
somax2.elf:     file format elf32-littlearm

Sections:
Idx Name          Size      VMA       LMA       File off  Algn
  0 .text         00006704  00000000  00000000  00010000  2**2
                  CONTENTS, ALLOC, LOAD, READONLY, CODE
  1 .relocate     00000084  20000000  00006704  00020000  2**2
                  CONTENTS, ALLOC, LOAD, DATA
  2 .bkupram      00000000  47000000  47000000  00020084  2**0
                  CONTENTS
  3 .qspi         00000000  04000000  04000000  00020084  2**0
                  CONTENTS
  4 .bss          0000064c  20000084  00006788  00020084  2**2
                  ALLOC
  5 .stack        00010000  200006d0  00006dd4  00020084  2**0
                  ALLOC
  6 .ARM.attributes 0000002e  00000000  00000000  00020084  2**0
                  CONTENTS, READONLY
  7 .comment      00000059  00000000  00000000  000200b2  2**0
                  CONTENTS, READONLY
  8 .debug_info   0005ab27  00000000  00000000  0002010b  2**0
                  CONTENTS, READONLY, DEBUGGING
  9 .debug_abbrev 00007968  00000000  00000000  0007ac32  2**0
                  CONTENTS, READONLY, DEBUGGING
 10 .debug_loc    00020226  00000000  00000000  0008259a  2**0
                  CONTENTS, READONLY, DEBUGGING
 11 .debug_aranges 00001948  00000000  00000000  000a27c0  2**0
                  CONTENTS, READONLY, DEBUGGING
 12 .debug_ranges 00001ba8  00000000  00000000  000a4108  2**0
                  CONTENTS, READONLY, DEBUGGING
 13 .debug_macro  0003c2a8  00000000  00000000  000a5cb0  2**0
                  CONTENTS, READONLY, DEBUGGING
 14 .debug_line   0002b08a  00000000  00000000  000e1f58  2**0
                  CONTENTS, READONLY, DEBUGGING
 15 .debug_str    001141d6  00000000  00000000  0010cfe2  2**0
                  CONTENTS, READONLY, DEBUGGING
 16 .debug_frame  00004388  00000000  00000000  002211b8  2**2
                  CONTENTS, READONLY, DEBUGGING

Disassembly of section .text:

00000000 <exception_table>:
       0:	d0 06 01 20 e1 03 00 00 dd 03 00 00 dd 03 00 00     ... ............
      10:	dd 03 00 00 dd 03 00 00 dd 03 00 00 00 00 00 00     ................
	...
      2c:	dd 03 00 00 dd 03 00 00 00 00 00 00 dd 03 00 00     ................
      3c:	dd 03 00 00 dd 03 00 00 dd 03 00 00 dd 03 00 00     ................
      4c:	dd 03 00 00 dd 03 00 00 dd 03 00 00 dd 03 00 00     ................
      5c:	dd 03 00 00 dd 03 00 00 dd 03 00 00 dd 03 00 00     ................
      6c:	f9 26 00 00 dd 03 00 00 dd 03 00 00 99 23 00 00     .&...........#..
      7c:	dd 03 00 00 dd 03 00 00 dd 03 00 00 dd 03 00 00     ................
      8c:	dd 03 00 00 dd 03 00 00 dd 03 00 00 dd 03 00 00     ................
      9c:	dd 03 00 00 dd 03 00 00 a5 23 00 00 dd 03 00 00     .........#......
      ac:	dd 03 00 00 dd 03 00 00 a5 24 00 00 b9 24 00 00     .........$...$..
      bc:	dd 03 00 00 dd 03 00 00 dd 03 00 00 dd 03 00 00     ................
      cc:	dd 03 00 00 dd 03 00 00 dd 03 00 00 dd 03 00 00     ................
      dc:	dd 03 00 00 dd 03 00 00 dd 03 00 00 00 00 00 00     ................
	...
      f4:	29 26 00 00 85 31 00 00 99 31 00 00 ad 31 00 00     )&...1...1...1..
     104:	c1 31 00 00 dd 03 00 00 dd 03 00 00 dd 03 00 00     .1..............
     114:	dd 03 00 00 d5 31 00 00 e9 31 00 00 fd 31 00 00     .....1...1...1..
     124:	11 32 00 00 dd 03 00 00 dd 03 00 00 dd 03 00 00     .2..............
     134:	dd 03 00 00 dd 03 00 00 dd 03 00 00 dd 03 00 00     ................
     144:	dd 03 00 00 dd 03 00 00 dd 03 00 00 dd 03 00 00     ................
     154:	dd 03 00 00 00 00 00 00 00 00 00 00 00 00 00 00     ................
	...
     178:	dd 03 00 00 1d 21 00 00 c1 47 00 00 cd 47 00 00     .....!...G...G..
     188:	d9 47 00 00 e5 47 00 00 00 00 00 00 dd 03 00 00     .G...G..........
     198:	dd 03 00 00 dd 03 00 00 dd 03 00 00 dd 03 00 00     ................
     1a8:	dd 03 00 00 dd 03 00 00 dd 03 00 00 dd 03 00 00     ................
     1b8:	dd 03 00 00 dd 03 00 00 dd 03 00 00 dd 03 00 00     ................
     1c8:	dd 03 00 00 dd 03 00 00 dd 03 00 00 dd 03 00 00     ................
     1d8:	dd 03 00 00 dd 03 00 00 dd 03 00 00 dd 03 00 00     ................
     1e8:	dd 03 00 00 dd 03 00 00 dd 03 00 00 dd 03 00 00     ................
     1f8:	dd 03 00 00 dd 03 00 00 dd 03 00 00 00 00 00 00     ................
     208:	00 00 00 00 dd 03 00 00 dd 03 00 00 dd 03 00 00     ................
     218:	dd 03 00 00 dd 03 00 00 dd 03 00 00 dd 03 00 00     ................
     228:	dd 03 00 00 dd 03 00 00 dd 03 00 00 dd 03 00 00     ................
     238:	dd 03 00 00 dd 03 00 00 dd 03 00 00 dd 03 00 00     ................
     248:	dd 03 00 00 dd 03 00 00 dd 03 00 00 dd 03 00 00     ................
     258:	dd 03 00 00 dd 03 00 00 00 00 00 00                 ............

00000264 <__do_global_dtors_aux>:
     264:	b510      	push	{r4, lr}
     266:	4c05      	ldr	r4, [pc, #20]	; (27c <__do_global_dtors_aux+0x18>)
     268:	7823      	ldrb	r3, [r4, #0]
     26a:	b933      	cbnz	r3, 27a <__do_global_dtors_aux+0x16>
     26c:	4b04      	ldr	r3, [pc, #16]	; (280 <__do_global_dtors_aux+0x1c>)
     26e:	b113      	cbz	r3, 276 <__do_global_dtors_aux+0x12>
     270:	4804      	ldr	r0, [pc, #16]	; (284 <__do_global_dtors_aux+0x20>)
     272:	f3af 8000 	nop.w
     276:	2301      	movs	r3, #1
     278:	7023      	strb	r3, [r4, #0]
     27a:	bd10      	pop	{r4, pc}
     27c:	20000084 	.word	0x20000084
     280:	00000000 	.word	0x00000000
     284:	00006704 	.word	0x00006704

00000288 <frame_dummy>:
     288:	4b0c      	ldr	r3, [pc, #48]	; (2bc <frame_dummy+0x34>)
     28a:	b143      	cbz	r3, 29e <frame_dummy+0x16>
     28c:	480c      	ldr	r0, [pc, #48]	; (2c0 <frame_dummy+0x38>)
     28e:	490d      	ldr	r1, [pc, #52]	; (2c4 <frame_dummy+0x3c>)
     290:	b510      	push	{r4, lr}
     292:	f3af 8000 	nop.w
     296:	480c      	ldr	r0, [pc, #48]	; (2c8 <frame_dummy+0x40>)
     298:	6803      	ldr	r3, [r0, #0]
     29a:	b923      	cbnz	r3, 2a6 <frame_dummy+0x1e>
     29c:	bd10      	pop	{r4, pc}
     29e:	480a      	ldr	r0, [pc, #40]	; (2c8 <frame_dummy+0x40>)
     2a0:	6803      	ldr	r3, [r0, #0]
     2a2:	b933      	cbnz	r3, 2b2 <frame_dummy+0x2a>
     2a4:	4770      	bx	lr
     2a6:	4b09      	ldr	r3, [pc, #36]	; (2cc <frame_dummy+0x44>)
     2a8:	2b00      	cmp	r3, #0
     2aa:	d0f7      	beq.n	29c <frame_dummy+0x14>
     2ac:	e8bd 4010 	ldmia.w	sp!, {r4, lr}
     2b0:	4718      	bx	r3
     2b2:	4b06      	ldr	r3, [pc, #24]	; (2cc <frame_dummy+0x44>)
     2b4:	2b00      	cmp	r3, #0
     2b6:	d0f5      	beq.n	2a4 <frame_dummy+0x1c>
     2b8:	4718      	bx	r3
     2ba:	bf00      	nop
     2bc:	00000000 	.word	0x00000000
     2c0:	00006704 	.word	0x00006704
     2c4:	20000088 	.word	0x20000088
     2c8:	00006704 	.word	0x00006704
     2cc:	00000000 	.word	0x00000000

000002d0 <atmel_start_init>:
     2d0:	b508      	push	{r3, lr}
     2d2:	4b02      	ldr	r3, [pc, #8]	; (2dc <atmel_start_init+0xc>)
     2d4:	4798      	blx	r3
     2d6:	4b02      	ldr	r3, [pc, #8]	; (2e0 <atmel_start_init+0x10>)
     2d8:	4798      	blx	r3
     2da:	bd08      	pop	{r3, pc}
     2dc:	00000ac1 	.word	0x00000ac1
     2e0:	000060d1 	.word	0x000060d1

000002e4 <tx_cb_USART_0>:
     2e4:	4770      	bx	lr

000002e6 <rx_cb_USART_0>:
     2e6:	4770      	bx	lr

000002e8 <ble_init>:
     2e8:	b538      	push	{r3, r4, r5, lr}
     2ea:	4c0a      	ldr	r4, [pc, #40]	; (314 <ble_init+0x2c>)
     2ec:	4a0a      	ldr	r2, [pc, #40]	; (318 <ble_init+0x30>)
     2ee:	2101      	movs	r1, #1
     2f0:	4620      	mov	r0, r4
     2f2:	4d0a      	ldr	r5, [pc, #40]	; (31c <ble_init+0x34>)
     2f4:	47a8      	blx	r5
     2f6:	4a0a      	ldr	r2, [pc, #40]	; (320 <ble_init+0x38>)
     2f8:	2100      	movs	r1, #0
     2fa:	4620      	mov	r0, r4
     2fc:	47a8      	blx	r5
     2fe:	4909      	ldr	r1, [pc, #36]	; (324 <ble_init+0x3c>)
     300:	4620      	mov	r0, r4
     302:	4b09      	ldr	r3, [pc, #36]	; (328 <ble_init+0x40>)
     304:	4798      	blx	r3
     306:	4620      	mov	r0, r4
     308:	4b08      	ldr	r3, [pc, #32]	; (32c <ble_init+0x44>)
     30a:	4798      	blx	r3
     30c:	2014      	movs	r0, #20
     30e:	4b08      	ldr	r3, [pc, #32]	; (330 <ble_init+0x48>)
     310:	4798      	blx	r3
     312:	bd38      	pop	{r3, r4, r5, pc}
     314:	20000560 	.word	0x20000560
     318:	000002e5 	.word	0x000002e5
     31c:	0000164d 	.word	0x0000164d
     320:	000002e7 	.word	0x000002e7
     324:	200000a0 	.word	0x200000a0
     328:	00001621 	.word	0x00001621
     32c:	000015f5 	.word	0x000015f5
     330:	00000f21 	.word	0x00000f21

00000334 <ble_send>:
     334:	b510      	push	{r4, lr}
     336:	b090      	sub	sp, #64	; 0x40
     338:	4604      	mov	r4, r0
     33a:	2240      	movs	r2, #64	; 0x40
     33c:	2100      	movs	r1, #0
     33e:	4668      	mov	r0, sp
     340:	4b08      	ldr	r3, [pc, #32]	; (364 <ble_send+0x30>)
     342:	4798      	blx	r3
     344:	4621      	mov	r1, r4
     346:	4668      	mov	r0, sp
     348:	4b07      	ldr	r3, [pc, #28]	; (368 <ble_send+0x34>)
     34a:	4798      	blx	r3
     34c:	4668      	mov	r0, sp
     34e:	4b07      	ldr	r3, [pc, #28]	; (36c <ble_send+0x38>)
     350:	4798      	blx	r3
     352:	b282      	uxth	r2, r0
     354:	4669      	mov	r1, sp
     356:	4b06      	ldr	r3, [pc, #24]	; (370 <ble_send+0x3c>)
     358:	6818      	ldr	r0, [r3, #0]
     35a:	4b06      	ldr	r3, [pc, #24]	; (374 <ble_send+0x40>)
     35c:	4798      	blx	r3
     35e:	b010      	add	sp, #64	; 0x40
     360:	bd10      	pop	{r4, pc}
     362:	bf00      	nop
     364:	00006207 	.word	0x00006207
     368:	00006217 	.word	0x00006217
     36c:	00006249 	.word	0x00006249
     370:	200000a0 	.word	0x200000a0
     374:	00001129 	.word	0x00001129

00000378 <ble_send_and_receive>:
     378:	b5f0      	push	{r4, r5, r6, r7, lr}
     37a:	b091      	sub	sp, #68	; 0x44
     37c:	4604      	mov	r4, r0
     37e:	460f      	mov	r7, r1
     380:	2640      	movs	r6, #64	; 0x40
     382:	4632      	mov	r2, r6
     384:	2100      	movs	r1, #0
     386:	4668      	mov	r0, sp
     388:	4b0d      	ldr	r3, [pc, #52]	; (3c0 <ble_send_and_receive+0x48>)
     38a:	4798      	blx	r3
     38c:	4621      	mov	r1, r4
     38e:	4668      	mov	r0, sp
     390:	4b0c      	ldr	r3, [pc, #48]	; (3c4 <ble_send_and_receive+0x4c>)
     392:	4798      	blx	r3
     394:	4668      	mov	r0, sp
     396:	4b0c      	ldr	r3, [pc, #48]	; (3c8 <ble_send_and_receive+0x50>)
     398:	4798      	blx	r3
     39a:	4d0c      	ldr	r5, [pc, #48]	; (3cc <ble_send_and_receive+0x54>)
     39c:	b282      	uxth	r2, r0
     39e:	4669      	mov	r1, sp
     3a0:	6828      	ldr	r0, [r5, #0]
     3a2:	4b0b      	ldr	r3, [pc, #44]	; (3d0 <ble_send_and_receive+0x58>)
     3a4:	4798      	blx	r3
     3a6:	2014      	movs	r0, #20
     3a8:	4c0a      	ldr	r4, [pc, #40]	; (3d4 <ble_send_and_receive+0x5c>)
     3aa:	47a0      	blx	r4
     3ac:	4632      	mov	r2, r6
     3ae:	4639      	mov	r1, r7
     3b0:	6828      	ldr	r0, [r5, #0]
     3b2:	4b09      	ldr	r3, [pc, #36]	; (3d8 <ble_send_and_receive+0x60>)
     3b4:	4798      	blx	r3
     3b6:	2014      	movs	r0, #20
     3b8:	47a0      	blx	r4
     3ba:	b011      	add	sp, #68	; 0x44
     3bc:	bdf0      	pop	{r4, r5, r6, r7, pc}
     3be:	bf00      	nop
     3c0:	00006207 	.word	0x00006207
     3c4:	00006217 	.word	0x00006217
     3c8:	00006249 	.word	0x00006249
     3cc:	200000a0 	.word	0x200000a0
     3d0:	00001129 	.word	0x00001129
     3d4:	00000f21 	.word	0x00000f21
     3d8:	0000115d 	.word	0x0000115d

000003dc <Dummy_Handler>:
     3dc:	e7fe      	b.n	3dc <Dummy_Handler>
	...

000003e0 <Reset_Handler>:
     3e0:	b508      	push	{r3, lr}
     3e2:	4b15      	ldr	r3, [pc, #84]	; (438 <Reset_Handler+0x58>)
     3e4:	4a15      	ldr	r2, [pc, #84]	; (43c <Reset_Handler+0x5c>)
     3e6:	429a      	cmp	r2, r3
     3e8:	d009      	beq.n	3fe <Reset_Handler+0x1e>
     3ea:	4b13      	ldr	r3, [pc, #76]	; (438 <Reset_Handler+0x58>)
     3ec:	4a13      	ldr	r2, [pc, #76]	; (43c <Reset_Handler+0x5c>)
     3ee:	e003      	b.n	3f8 <Reset_Handler+0x18>
     3f0:	6811      	ldr	r1, [r2, #0]
     3f2:	6019      	str	r1, [r3, #0]
     3f4:	3304      	adds	r3, #4
     3f6:	3204      	adds	r2, #4
     3f8:	4911      	ldr	r1, [pc, #68]	; (440 <Reset_Handler+0x60>)
     3fa:	428b      	cmp	r3, r1
     3fc:	d3f8      	bcc.n	3f0 <Reset_Handler+0x10>
     3fe:	4b11      	ldr	r3, [pc, #68]	; (444 <Reset_Handler+0x64>)
     400:	e002      	b.n	408 <Reset_Handler+0x28>
     402:	2200      	movs	r2, #0
     404:	601a      	str	r2, [r3, #0]
     406:	3304      	adds	r3, #4
     408:	4a0f      	ldr	r2, [pc, #60]	; (448 <Reset_Handler+0x68>)
     40a:	4293      	cmp	r3, r2
     40c:	d3f9      	bcc.n	402 <Reset_Handler+0x22>
     40e:	4b0f      	ldr	r3, [pc, #60]	; (44c <Reset_Handler+0x6c>)
     410:	4a0f      	ldr	r2, [pc, #60]	; (450 <Reset_Handler+0x70>)
     412:	f022 027f 	bic.w	r2, r2, #127	; 0x7f
     416:	609a      	str	r2, [r3, #8]
     418:	f8d3 2088 	ldr.w	r2, [r3, #136]	; 0x88
     41c:	f442 0270 	orr.w	r2, r2, #15728640	; 0xf00000
     420:	f8c3 2088 	str.w	r2, [r3, #136]	; 0x88
  \details Acts as a special kind of Data Memory Barrier.
           It completes when all explicit memory accesses before this instruction complete.
 */
__STATIC_FORCEINLINE void __DSB(void)
{
  __ASM volatile ("dsb 0xF":::"memory");
     424:	f3bf 8f4f 	dsb	sy
  __ASM volatile ("isb 0xF":::"memory");
     428:	f3bf 8f6f 	isb	sy
     42c:	4b09      	ldr	r3, [pc, #36]	; (454 <Reset_Handler+0x74>)
     42e:	4798      	blx	r3
     430:	4b09      	ldr	r3, [pc, #36]	; (458 <Reset_Handler+0x78>)
     432:	4798      	blx	r3
     434:	e7fe      	b.n	434 <Reset_Handler+0x54>
     436:	bf00      	nop
     438:	20000000 	.word	0x20000000
     43c:	00006704 	.word	0x00006704
     440:	20000084 	.word	0x20000084
     444:	20000084 	.word	0x20000084
     448:	200006d0 	.word	0x200006d0
     44c:	e000ed00 	.word	0xe000ed00
     450:	00000000 	.word	0x00000000
     454:	000061a9 	.word	0x000061a9
     458:	00005049 	.word	0x00005049

0000045c <TIMER_0_init>:
     45c:	b508      	push	{r3, lr}
     45e:	4a06      	ldr	r2, [pc, #24]	; (478 <TIMER_0_init+0x1c>)
     460:	6953      	ldr	r3, [r2, #20]
     462:	f443 7300 	orr.w	r3, r3, #512	; 0x200
     466:	6153      	str	r3, [r2, #20]
     468:	4b04      	ldr	r3, [pc, #16]	; (47c <TIMER_0_init+0x20>)
     46a:	4798      	blx	r3
     46c:	4602      	mov	r2, r0
     46e:	4904      	ldr	r1, [pc, #16]	; (480 <TIMER_0_init+0x24>)
     470:	4804      	ldr	r0, [pc, #16]	; (484 <TIMER_0_init+0x28>)
     472:	4b05      	ldr	r3, [pc, #20]	; (488 <TIMER_0_init+0x2c>)
     474:	4798      	blx	r3
     476:	bd08      	pop	{r3, pc}
     478:	40000800 	.word	0x40000800
     47c:	000026f5 	.word	0x000026f5
     480:	40002400 	.word	0x40002400
     484:	20000620 	.word	0x20000620
     488:	000013cd 	.word	0x000013cd

0000048c <ADC_0_PORT_init>:
     48c:	4b24      	ldr	r3, [pc, #144]	; (520 <ADC_0_PORT_init+0x94>)
     48e:	2204      	movs	r2, #4
     490:	605a      	str	r2, [r3, #4]
     492:	f102 4280 	add.w	r2, r2, #1073741824	; 0x40000000
     496:	629a      	str	r2, [r3, #40]	; 0x28
     498:	f04f 4140 	mov.w	r1, #3221225472	; 0xc0000000
     49c:	6299      	str	r1, [r3, #40]	; 0x28
     49e:	f893 2042 	ldrb.w	r2, [r3, #66]	; 0x42
     4a2:	f002 02fe 	and.w	r2, r2, #254	; 0xfe
     4a6:	f042 0201 	orr.w	r2, r2, #1
     4aa:	f883 2042 	strb.w	r2, [r3, #66]	; 0x42
     4ae:	f893 2031 	ldrb.w	r2, [r3, #49]	; 0x31
     4b2:	f002 02f0 	and.w	r2, r2, #240	; 0xf0
     4b6:	f042 0201 	orr.w	r2, r2, #1
     4ba:	f883 2031 	strb.w	r2, [r3, #49]	; 0x31
     4be:	2208      	movs	r2, #8
     4c0:	605a      	str	r2, [r3, #4]
     4c2:	f102 4280 	add.w	r2, r2, #1073741824	; 0x40000000
     4c6:	629a      	str	r2, [r3, #40]	; 0x28
     4c8:	6299      	str	r1, [r3, #40]	; 0x28
     4ca:	f893 2043 	ldrb.w	r2, [r3, #67]	; 0x43
     4ce:	f002 02fe 	and.w	r2, r2, #254	; 0xfe
     4d2:	f042 0201 	orr.w	r2, r2, #1
     4d6:	f883 2043 	strb.w	r2, [r3, #67]	; 0x43
     4da:	f893 2031 	ldrb.w	r2, [r3, #49]	; 0x31
     4de:	f002 020f 	and.w	r2, r2, #15
     4e2:	f042 0210 	orr.w	r2, r2, #16
     4e6:	f883 2031 	strb.w	r2, [r3, #49]	; 0x31
     4ea:	f44f 7280 	mov.w	r2, #256	; 0x100
     4ee:	f8c3 2084 	str.w	r2, [r3, #132]	; 0x84
     4f2:	f102 4280 	add.w	r2, r2, #1073741824	; 0x40000000
     4f6:	f8c3 20a8 	str.w	r2, [r3, #168]	; 0xa8
     4fa:	f8c3 10a8 	str.w	r1, [r3, #168]	; 0xa8
     4fe:	f893 20c8 	ldrb.w	r2, [r3, #200]	; 0xc8
     502:	f002 02fe 	and.w	r2, r2, #254	; 0xfe
     506:	f042 0201 	orr.w	r2, r2, #1
     50a:	f883 20c8 	strb.w	r2, [r3, #200]	; 0xc8
     50e:	f893 20b4 	ldrb.w	r2, [r3, #180]	; 0xb4
     512:	f002 02f0 	and.w	r2, r2, #240	; 0xf0
     516:	f042 0201 	orr.w	r2, r2, #1
     51a:	f883 20b4 	strb.w	r2, [r3, #180]	; 0xb4
     51e:	4770      	bx	lr
     520:	41008000 	.word	0x41008000

00000524 <ADC_0_CLOCK_init>:
     524:	4a04      	ldr	r2, [pc, #16]	; (538 <ADC_0_CLOCK_init+0x14>)
     526:	6a13      	ldr	r3, [r2, #32]
     528:	f043 0380 	orr.w	r3, r3, #128	; 0x80
     52c:	6213      	str	r3, [r2, #32]
     52e:	2240      	movs	r2, #64	; 0x40
     530:	4b02      	ldr	r3, [pc, #8]	; (53c <ADC_0_CLOCK_init+0x18>)
     532:	f8c3 2120 	str.w	r2, [r3, #288]	; 0x120
     536:	4770      	bx	lr
     538:	40000800 	.word	0x40000800
     53c:	40001c00 	.word	0x40001c00

00000540 <ADC_0_init>:
     540:	b508      	push	{r3, lr}
     542:	4b05      	ldr	r3, [pc, #20]	; (558 <ADC_0_init+0x18>)
     544:	4798      	blx	r3
     546:	4b05      	ldr	r3, [pc, #20]	; (55c <ADC_0_init+0x1c>)
     548:	4798      	blx	r3
     54a:	2200      	movs	r2, #0
     54c:	4904      	ldr	r1, [pc, #16]	; (560 <ADC_0_init+0x20>)
     54e:	4805      	ldr	r0, [pc, #20]	; (564 <ADC_0_init+0x24>)
     550:	4b05      	ldr	r3, [pc, #20]	; (568 <ADC_0_init+0x28>)
     552:	4798      	blx	r3
     554:	bd08      	pop	{r3, pc}
     556:	bf00      	nop
     558:	00000525 	.word	0x00000525
     55c:	0000048d 	.word	0x0000048d
     560:	43001c00 	.word	0x43001c00
     564:	20000544 	.word	0x20000544
     568:	00000e1d 	.word	0x00000e1d

0000056c <CRC_0_init>:
     56c:	b508      	push	{r3, lr}
     56e:	4a05      	ldr	r2, [pc, #20]	; (584 <CRC_0_init+0x18>)
     570:	6993      	ldr	r3, [r2, #24]
     572:	f043 0302 	orr.w	r3, r3, #2
     576:	6193      	str	r3, [r2, #24]
     578:	4903      	ldr	r1, [pc, #12]	; (588 <CRC_0_init+0x1c>)
     57a:	4804      	ldr	r0, [pc, #16]	; (58c <CRC_0_init+0x20>)
     57c:	4b04      	ldr	r3, [pc, #16]	; (590 <CRC_0_init+0x24>)
     57e:	4798      	blx	r3
     580:	bd08      	pop	{r3, pc}
     582:	bf00      	nop
     584:	40000800 	.word	0x40000800
     588:	41002000 	.word	0x41002000
     58c:	20000540 	.word	0x20000540
     590:	00000ed9 	.word	0x00000ed9

00000594 <EXTERNAL_IRQ_0_init>:
     594:	b508      	push	{r3, lr}
     596:	2240      	movs	r2, #64	; 0x40
     598:	4b24      	ldr	r3, [pc, #144]	; (62c <EXTERNAL_IRQ_0_init+0x98>)
     59a:	f8c3 2090 	str.w	r2, [r3, #144]	; 0x90
     59e:	4a24      	ldr	r2, [pc, #144]	; (630 <EXTERNAL_IRQ_0_init+0x9c>)
     5a0:	6953      	ldr	r3, [r2, #20]
     5a2:	f443 6380 	orr.w	r3, r3, #1024	; 0x400
     5a6:	6153      	str	r3, [r2, #20]
     5a8:	4b22      	ldr	r3, [pc, #136]	; (634 <EXTERNAL_IRQ_0_init+0xa0>)
     5aa:	2204      	movs	r2, #4
     5ac:	f8c3 2084 	str.w	r2, [r3, #132]	; 0x84
     5b0:	f102 4280 	add.w	r2, r2, #1073741824	; 0x40000000
     5b4:	f502 3200 	add.w	r2, r2, #131072	; 0x20000
     5b8:	f8c3 20a8 	str.w	r2, [r3, #168]	; 0xa8
     5bc:	491e      	ldr	r1, [pc, #120]	; (638 <EXTERNAL_IRQ_0_init+0xa4>)
     5be:	f8c3 10a8 	str.w	r1, [r3, #168]	; 0xa8
     5c2:	f893 20c2 	ldrb.w	r2, [r3, #194]	; 0xc2
     5c6:	f002 02fb 	and.w	r2, r2, #251	; 0xfb
     5ca:	f883 20c2 	strb.w	r2, [r3, #194]	; 0xc2
     5ce:	f893 20c2 	ldrb.w	r2, [r3, #194]	; 0xc2
     5d2:	f002 02fe 	and.w	r2, r2, #254	; 0xfe
     5d6:	f042 0201 	orr.w	r2, r2, #1
     5da:	f883 20c2 	strb.w	r2, [r3, #194]	; 0xc2
     5de:	f893 20b1 	ldrb.w	r2, [r3, #177]	; 0xb1
     5e2:	f002 02f0 	and.w	r2, r2, #240	; 0xf0
     5e6:	f883 20b1 	strb.w	r2, [r3, #177]	; 0xb1
     5ea:	f44f 5200 	mov.w	r2, #8192	; 0x2000
     5ee:	f8c3 2084 	str.w	r2, [r3, #132]	; 0x84
     5f2:	4a12      	ldr	r2, [pc, #72]	; (63c <EXTERNAL_IRQ_0_init+0xa8>)
     5f4:	f8c3 20a8 	str.w	r2, [r3, #168]	; 0xa8
     5f8:	f8c3 10a8 	str.w	r1, [r3, #168]	; 0xa8
     5fc:	f893 20cd 	ldrb.w	r2, [r3, #205]	; 0xcd
     600:	f002 02fb 	and.w	r2, r2, #251	; 0xfb
     604:	f883 20cd 	strb.w	r2, [r3, #205]	; 0xcd
     608:	f893 20cd 	ldrb.w	r2, [r3, #205]	; 0xcd
     60c:	f002 02fe 	and.w	r2, r2, #254	; 0xfe
     610:	f042 0201 	orr.w	r2, r2, #1
     614:	f883 20cd 	strb.w	r2, [r3, #205]	; 0xcd
     618:	f893 20b6 	ldrb.w	r2, [r3, #182]	; 0xb6
     61c:	f002 020f 	and.w	r2, r2, #15
     620:	f883 20b6 	strb.w	r2, [r3, #182]	; 0xb6
     624:	4b06      	ldr	r3, [pc, #24]	; (640 <EXTERNAL_IRQ_0_init+0xac>)
     626:	4798      	blx	r3
     628:	bd08      	pop	{r3, pc}
     62a:	bf00      	nop
     62c:	40001c00 	.word	0x40001c00
     630:	40000800 	.word	0x40000800
     634:	41008000 	.word	0x41008000
     638:	c0020000 	.word	0xc0020000
     63c:	40022000 	.word	0x40022000
     640:	00000f85 	.word	0x00000f85

00000644 <FLASH_0_CLOCK_init>:
     644:	4a02      	ldr	r2, [pc, #8]	; (650 <FLASH_0_CLOCK_init+0xc>)
     646:	6913      	ldr	r3, [r2, #16]
     648:	f043 0340 	orr.w	r3, r3, #64	; 0x40
     64c:	6113      	str	r3, [r2, #16]
     64e:	4770      	bx	lr
     650:	40000800 	.word	0x40000800

00000654 <FLASH_0_init>:
     654:	b508      	push	{r3, lr}
     656:	4b03      	ldr	r3, [pc, #12]	; (664 <FLASH_0_init+0x10>)
     658:	4798      	blx	r3
     65a:	4903      	ldr	r1, [pc, #12]	; (668 <FLASH_0_init+0x14>)
     65c:	4803      	ldr	r0, [pc, #12]	; (66c <FLASH_0_init+0x18>)
     65e:	4b04      	ldr	r3, [pc, #16]	; (670 <FLASH_0_init+0x1c>)
     660:	4798      	blx	r3
     662:	bd08      	pop	{r3, pc}
     664:	00000645 	.word	0x00000645
     668:	41004000 	.word	0x41004000
     66c:	20000524 	.word	0x20000524
     670:	00000fcd 	.word	0x00000fcd

00000674 <USART_0_CLOCK_init>:
     674:	4b06      	ldr	r3, [pc, #24]	; (690 <USART_0_CLOCK_init+0x1c>)
     676:	2240      	movs	r2, #64	; 0x40
     678:	f8c3 209c 	str.w	r2, [r3, #156]	; 0x9c
     67c:	2241      	movs	r2, #65	; 0x41
     67e:	f8c3 208c 	str.w	r2, [r3, #140]	; 0x8c
     682:	4a04      	ldr	r2, [pc, #16]	; (694 <USART_0_CLOCK_init+0x20>)
     684:	6953      	ldr	r3, [r2, #20]
     686:	f443 5380 	orr.w	r3, r3, #4096	; 0x1000
     68a:	6153      	str	r3, [r2, #20]
     68c:	4770      	bx	lr
     68e:	bf00      	nop
     690:	40001c00 	.word	0x40001c00
     694:	40000800 	.word	0x40000800

00000698 <USART_0_PORT_init>:
     698:	4b10      	ldr	r3, [pc, #64]	; (6dc <USART_0_PORT_init+0x44>)
     69a:	f893 2044 	ldrb.w	r2, [r3, #68]	; 0x44
     69e:	f002 02fe 	and.w	r2, r2, #254	; 0xfe
     6a2:	f042 0201 	orr.w	r2, r2, #1
     6a6:	f883 2044 	strb.w	r2, [r3, #68]	; 0x44
     6aa:	f893 2032 	ldrb.w	r2, [r3, #50]	; 0x32
     6ae:	f002 02f0 	and.w	r2, r2, #240	; 0xf0
     6b2:	f042 0203 	orr.w	r2, r2, #3
     6b6:	f883 2032 	strb.w	r2, [r3, #50]	; 0x32
     6ba:	f893 2045 	ldrb.w	r2, [r3, #69]	; 0x45
     6be:	f002 02fe 	and.w	r2, r2, #254	; 0xfe
     6c2:	f042 0201 	orr.w	r2, r2, #1
     6c6:	f883 2045 	strb.w	r2, [r3, #69]	; 0x45
     6ca:	f893 2032 	ldrb.w	r2, [r3, #50]	; 0x32
     6ce:	f002 020f 	and.w	r2, r2, #15
     6d2:	f042 0230 	orr.w	r2, r2, #48	; 0x30
     6d6:	f883 2032 	strb.w	r2, [r3, #50]	; 0x32
     6da:	4770      	bx	lr
     6dc:	41008000 	.word	0x41008000

000006e0 <USART_0_init>:
     6e0:	b510      	push	{r4, lr}
     6e2:	b082      	sub	sp, #8
     6e4:	4b06      	ldr	r3, [pc, #24]	; (700 <USART_0_init+0x20>)
     6e6:	4798      	blx	r3
     6e8:	2300      	movs	r3, #0
     6ea:	9300      	str	r3, [sp, #0]
     6ec:	2340      	movs	r3, #64	; 0x40
     6ee:	4a05      	ldr	r2, [pc, #20]	; (704 <USART_0_init+0x24>)
     6f0:	4905      	ldr	r1, [pc, #20]	; (708 <USART_0_init+0x28>)
     6f2:	4806      	ldr	r0, [pc, #24]	; (70c <USART_0_init+0x2c>)
     6f4:	4c06      	ldr	r4, [pc, #24]	; (710 <USART_0_init+0x30>)
     6f6:	47a0      	blx	r4
     6f8:	4b06      	ldr	r3, [pc, #24]	; (714 <USART_0_init+0x34>)
     6fa:	4798      	blx	r3
     6fc:	b002      	add	sp, #8
     6fe:	bd10      	pop	{r4, pc}
     700:	00000675 	.word	0x00000675
     704:	200000a4 	.word	0x200000a4
     708:	40003000 	.word	0x40003000
     70c:	20000560 	.word	0x20000560
     710:	00001561 	.word	0x00001561
     714:	00000699 	.word	0x00000699

00000718 <USART_1_CLOCK_init>:
     718:	4b06      	ldr	r3, [pc, #24]	; (734 <USART_1_CLOCK_init+0x1c>)
     71a:	2240      	movs	r2, #64	; 0x40
     71c:	f8c3 20dc 	str.w	r2, [r3, #220]	; 0xdc
     720:	2243      	movs	r2, #67	; 0x43
     722:	f8c3 208c 	str.w	r2, [r3, #140]	; 0x8c
     726:	4a04      	ldr	r2, [pc, #16]	; (738 <USART_1_CLOCK_init+0x20>)
     728:	6993      	ldr	r3, [r2, #24]
     72a:	f443 7300 	orr.w	r3, r3, #512	; 0x200
     72e:	6193      	str	r3, [r2, #24]
     730:	4770      	bx	lr
     732:	bf00      	nop
     734:	40001c00 	.word	0x40001c00
     738:	40000800 	.word	0x40000800

0000073c <USART_1_PORT_init>:
     73c:	4b10      	ldr	r3, [pc, #64]	; (780 <USART_1_PORT_init+0x44>)
     73e:	f893 2049 	ldrb.w	r2, [r3, #73]	; 0x49
     742:	f002 02fe 	and.w	r2, r2, #254	; 0xfe
     746:	f042 0201 	orr.w	r2, r2, #1
     74a:	f883 2049 	strb.w	r2, [r3, #73]	; 0x49
     74e:	f893 2034 	ldrb.w	r2, [r3, #52]	; 0x34
     752:	f002 020f 	and.w	r2, r2, #15
     756:	f042 0230 	orr.w	r2, r2, #48	; 0x30
     75a:	f883 2034 	strb.w	r2, [r3, #52]	; 0x34
     75e:	f893 2048 	ldrb.w	r2, [r3, #72]	; 0x48
     762:	f002 02fe 	and.w	r2, r2, #254	; 0xfe
     766:	f042 0201 	orr.w	r2, r2, #1
     76a:	f883 2048 	strb.w	r2, [r3, #72]	; 0x48
     76e:	f893 2034 	ldrb.w	r2, [r3, #52]	; 0x34
     772:	f002 02f0 	and.w	r2, r2, #240	; 0xf0
     776:	f042 0203 	orr.w	r2, r2, #3
     77a:	f883 2034 	strb.w	r2, [r3, #52]	; 0x34
     77e:	4770      	bx	lr
     780:	41008000 	.word	0x41008000

00000784 <USART_1_init>:
     784:	b510      	push	{r4, lr}
     786:	b082      	sub	sp, #8
     788:	4b06      	ldr	r3, [pc, #24]	; (7a4 <USART_1_init+0x20>)
     78a:	4798      	blx	r3
     78c:	2300      	movs	r3, #0
     78e:	9300      	str	r3, [sp, #0]
     790:	2340      	movs	r3, #64	; 0x40
     792:	4a05      	ldr	r2, [pc, #20]	; (7a8 <USART_1_init+0x24>)
     794:	4905      	ldr	r1, [pc, #20]	; (7ac <USART_1_init+0x28>)
     796:	4806      	ldr	r0, [pc, #24]	; (7b0 <USART_1_init+0x2c>)
     798:	4c06      	ldr	r4, [pc, #24]	; (7b4 <USART_1_init+0x30>)
     79a:	47a0      	blx	r4
     79c:	4b06      	ldr	r3, [pc, #24]	; (7b8 <USART_1_init+0x34>)
     79e:	4798      	blx	r3
     7a0:	b002      	add	sp, #8
     7a2:	bd10      	pop	{r4, pc}
     7a4:	00000719 	.word	0x00000719
     7a8:	200000e4 	.word	0x200000e4
     7ac:	41012000 	.word	0x41012000
     7b0:	200005b0 	.word	0x200005b0
     7b4:	00001561 	.word	0x00001561
     7b8:	0000073d 	.word	0x0000073d

000007bc <I2C_0_PORT_init>:
     7bc:	4b16      	ldr	r3, [pc, #88]	; (818 <I2C_0_PORT_init+0x5c>)
     7be:	f893 2051 	ldrb.w	r2, [r3, #81]	; 0x51
     7c2:	f002 02fb 	and.w	r2, r2, #251	; 0xfb
     7c6:	f883 2051 	strb.w	r2, [r3, #81]	; 0x51
     7ca:	f893 2051 	ldrb.w	r2, [r3, #81]	; 0x51
     7ce:	f002 02fe 	and.w	r2, r2, #254	; 0xfe
     7d2:	f042 0201 	orr.w	r2, r2, #1
     7d6:	f883 2051 	strb.w	r2, [r3, #81]	; 0x51
     7da:	f893 2038 	ldrb.w	r2, [r3, #56]	; 0x38
     7de:	f002 020f 	and.w	r2, r2, #15
     7e2:	f042 0230 	orr.w	r2, r2, #48	; 0x30
     7e6:	f883 2038 	strb.w	r2, [r3, #56]	; 0x38
     7ea:	f893 2050 	ldrb.w	r2, [r3, #80]	; 0x50
     7ee:	f002 02fb 	and.w	r2, r2, #251	; 0xfb
     7f2:	f883 2050 	strb.w	r2, [r3, #80]	; 0x50
     7f6:	f893 2050 	ldrb.w	r2, [r3, #80]	; 0x50
     7fa:	f002 02fe 	and.w	r2, r2, #254	; 0xfe
     7fe:	f042 0201 	orr.w	r2, r2, #1
     802:	f883 2050 	strb.w	r2, [r3, #80]	; 0x50
     806:	f893 2038 	ldrb.w	r2, [r3, #56]	; 0x38
     80a:	f002 02f0 	and.w	r2, r2, #240	; 0xf0
     80e:	f042 0203 	orr.w	r2, r2, #3
     812:	f883 2038 	strb.w	r2, [r3, #56]	; 0x38
     816:	4770      	bx	lr
     818:	41008000 	.word	0x41008000

0000081c <I2C_0_CLOCK_init>:
     81c:	4b06      	ldr	r3, [pc, #24]	; (838 <I2C_0_CLOCK_init+0x1c>)
     81e:	2240      	movs	r2, #64	; 0x40
     820:	f8c3 20e0 	str.w	r2, [r3, #224]	; 0xe0
     824:	2241      	movs	r2, #65	; 0x41
     826:	f8c3 208c 	str.w	r2, [r3, #140]	; 0x8c
     82a:	4a04      	ldr	r2, [pc, #16]	; (83c <I2C_0_CLOCK_init+0x20>)
     82c:	6993      	ldr	r3, [r2, #24]
     82e:	f443 6380 	orr.w	r3, r3, #1024	; 0x400
     832:	6193      	str	r3, [r2, #24]
     834:	4770      	bx	lr
     836:	bf00      	nop
     838:	40001c00 	.word	0x40001c00
     83c:	40000800 	.word	0x40000800

00000840 <I2C_0_init>:
     840:	b508      	push	{r3, lr}
     842:	4b04      	ldr	r3, [pc, #16]	; (854 <I2C_0_init+0x14>)
     844:	4798      	blx	r3
     846:	4904      	ldr	r1, [pc, #16]	; (858 <I2C_0_init+0x18>)
     848:	4804      	ldr	r0, [pc, #16]	; (85c <I2C_0_init+0x1c>)
     84a:	4b05      	ldr	r3, [pc, #20]	; (860 <I2C_0_init+0x20>)
     84c:	4798      	blx	r3
     84e:	4b05      	ldr	r3, [pc, #20]	; (864 <I2C_0_init+0x24>)
     850:	4798      	blx	r3
     852:	bd08      	pop	{r3, pc}
     854:	0000081d 	.word	0x0000081d
     858:	41014000 	.word	0x41014000
     85c:	20000600 	.word	0x20000600
     860:	00001075 	.word	0x00001075
     864:	000007bd 	.word	0x000007bd

00000868 <SPI_0_PORT_init>:
     868:	4b28      	ldr	r3, [pc, #160]	; (90c <SPI_0_PORT_init+0xa4>)
     86a:	f44f 5200 	mov.w	r2, #8192	; 0x2000
     86e:	615a      	str	r2, [r3, #20]
     870:	609a      	str	r2, [r3, #8]
     872:	f102 4280 	add.w	r2, r2, #1073741824	; 0x40000000
     876:	629a      	str	r2, [r3, #40]	; 0x28
     878:	f04f 4140 	mov.w	r1, #3221225472	; 0xc0000000
     87c:	6299      	str	r1, [r3, #40]	; 0x28
     87e:	f893 204d 	ldrb.w	r2, [r3, #77]	; 0x4d
     882:	f002 02fe 	and.w	r2, r2, #254	; 0xfe
     886:	f042 0201 	orr.w	r2, r2, #1
     88a:	f883 204d 	strb.w	r2, [r3, #77]	; 0x4d
     88e:	f893 2036 	ldrb.w	r2, [r3, #54]	; 0x36
     892:	f002 020f 	and.w	r2, r2, #15
     896:	f042 0230 	orr.w	r2, r2, #48	; 0x30
     89a:	f883 2036 	strb.w	r2, [r3, #54]	; 0x36
     89e:	f44f 5280 	mov.w	r2, #4096	; 0x1000
     8a2:	615a      	str	r2, [r3, #20]
     8a4:	609a      	str	r2, [r3, #8]
     8a6:	f102 4280 	add.w	r2, r2, #1073741824	; 0x40000000
     8aa:	629a      	str	r2, [r3, #40]	; 0x28
     8ac:	6299      	str	r1, [r3, #40]	; 0x28
     8ae:	f893 204c 	ldrb.w	r2, [r3, #76]	; 0x4c
     8b2:	f002 02fe 	and.w	r2, r2, #254	; 0xfe
     8b6:	f042 0201 	orr.w	r2, r2, #1
     8ba:	f883 204c 	strb.w	r2, [r3, #76]	; 0x4c
     8be:	f893 2036 	ldrb.w	r2, [r3, #54]	; 0x36
     8c2:	f002 02f0 	and.w	r2, r2, #240	; 0xf0
     8c6:	f042 0203 	orr.w	r2, r2, #3
     8ca:	f883 2036 	strb.w	r2, [r3, #54]	; 0x36
     8ce:	f44f 4200 	mov.w	r2, #32768	; 0x8000
     8d2:	605a      	str	r2, [r3, #4]
     8d4:	4a0e      	ldr	r2, [pc, #56]	; (910 <SPI_0_PORT_init+0xa8>)
     8d6:	629a      	str	r2, [r3, #40]	; 0x28
     8d8:	f1a2 2280 	sub.w	r2, r2, #2147516416	; 0x80008000
     8dc:	629a      	str	r2, [r3, #40]	; 0x28
     8de:	f893 204f 	ldrb.w	r2, [r3, #79]	; 0x4f
     8e2:	f002 02fb 	and.w	r2, r2, #251	; 0xfb
     8e6:	f883 204f 	strb.w	r2, [r3, #79]	; 0x4f
     8ea:	f893 204f 	ldrb.w	r2, [r3, #79]	; 0x4f
     8ee:	f002 02fe 	and.w	r2, r2, #254	; 0xfe
     8f2:	f042 0201 	orr.w	r2, r2, #1
     8f6:	f883 204f 	strb.w	r2, [r3, #79]	; 0x4f
     8fa:	f893 2037 	ldrb.w	r2, [r3, #55]	; 0x37
     8fe:	f002 020f 	and.w	r2, r2, #15
     902:	f042 0230 	orr.w	r2, r2, #48	; 0x30
     906:	f883 2037 	strb.w	r2, [r3, #55]	; 0x37
     90a:	4770      	bx	lr
     90c:	41008000 	.word	0x41008000
     910:	40028000 	.word	0x40028000

00000914 <SPI_0_CLOCK_init>:
     914:	4b06      	ldr	r3, [pc, #24]	; (930 <SPI_0_CLOCK_init+0x1c>)
     916:	2240      	movs	r2, #64	; 0x40
     918:	f8c3 2108 	str.w	r2, [r3, #264]	; 0x108
     91c:	2241      	movs	r2, #65	; 0x41
     91e:	f8c3 208c 	str.w	r2, [r3, #140]	; 0x8c
     922:	4a04      	ldr	r2, [pc, #16]	; (934 <SPI_0_CLOCK_init+0x20>)
     924:	6a13      	ldr	r3, [r2, #32]
     926:	f043 0301 	orr.w	r3, r3, #1
     92a:	6213      	str	r3, [r2, #32]
     92c:	4770      	bx	lr
     92e:	bf00      	nop
     930:	40001c00 	.word	0x40001c00
     934:	40000800 	.word	0x40000800

00000938 <SPI_0_init>:
     938:	b508      	push	{r3, lr}
     93a:	4b05      	ldr	r3, [pc, #20]	; (950 <SPI_0_init+0x18>)
     93c:	4798      	blx	r3
     93e:	f04f 4186 	mov.w	r1, #1124073472	; 0x43000000
     942:	4804      	ldr	r0, [pc, #16]	; (954 <SPI_0_init+0x1c>)
     944:	4b04      	ldr	r3, [pc, #16]	; (958 <SPI_0_init+0x20>)
     946:	4798      	blx	r3
     948:	4b04      	ldr	r3, [pc, #16]	; (95c <SPI_0_init+0x24>)
     94a:	4798      	blx	r3
     94c:	bd08      	pop	{r3, pc}
     94e:	bf00      	nop
     950:	00000915 	.word	0x00000915
     954:	20000548 	.word	0x20000548
     958:	000011b1 	.word	0x000011b1
     95c:	00000869 	.word	0x00000869

00000960 <delay_driver_init>:
     960:	b508      	push	{r3, lr}
     962:	4802      	ldr	r0, [pc, #8]	; (96c <delay_driver_init+0xc>)
     964:	4b02      	ldr	r3, [pc, #8]	; (970 <delay_driver_init+0x10>)
     966:	4798      	blx	r3
     968:	bd08      	pop	{r3, pc}
     96a:	bf00      	nop
     96c:	e000e010 	.word	0xe000e010
     970:	00000f0d 	.word	0x00000f0d

00000974 <USB_0_PORT_init>:
     974:	4b1e      	ldr	r3, [pc, #120]	; (9f0 <USB_0_PORT_init+0x7c>)
     976:	f04f 7280 	mov.w	r2, #16777216	; 0x1000000
     97a:	609a      	str	r2, [r3, #8]
     97c:	f04f 4180 	mov.w	r1, #1073741824	; 0x40000000
     980:	6299      	str	r1, [r3, #40]	; 0x28
     982:	481c      	ldr	r0, [pc, #112]	; (9f4 <USB_0_PORT_init+0x80>)
     984:	6298      	str	r0, [r3, #40]	; 0x28
     986:	615a      	str	r2, [r3, #20]
     988:	f893 2058 	ldrb.w	r2, [r3, #88]	; 0x58
     98c:	f002 02fb 	and.w	r2, r2, #251	; 0xfb
     990:	f883 2058 	strb.w	r2, [r3, #88]	; 0x58
     994:	f893 2058 	ldrb.w	r2, [r3, #88]	; 0x58
     998:	f002 02fe 	and.w	r2, r2, #254	; 0xfe
     99c:	f042 0201 	orr.w	r2, r2, #1
     9a0:	f883 2058 	strb.w	r2, [r3, #88]	; 0x58
     9a4:	f893 203c 	ldrb.w	r2, [r3, #60]	; 0x3c
     9a8:	f002 02f0 	and.w	r2, r2, #240	; 0xf0
     9ac:	f042 0207 	orr.w	r2, r2, #7
     9b0:	f883 203c 	strb.w	r2, [r3, #60]	; 0x3c
     9b4:	f04f 7200 	mov.w	r2, #33554432	; 0x2000000
     9b8:	609a      	str	r2, [r3, #8]
     9ba:	6299      	str	r1, [r3, #40]	; 0x28
     9bc:	490e      	ldr	r1, [pc, #56]	; (9f8 <USB_0_PORT_init+0x84>)
     9be:	6299      	str	r1, [r3, #40]	; 0x28
     9c0:	615a      	str	r2, [r3, #20]
     9c2:	f893 2059 	ldrb.w	r2, [r3, #89]	; 0x59
     9c6:	f002 02fb 	and.w	r2, r2, #251	; 0xfb
     9ca:	f883 2059 	strb.w	r2, [r3, #89]	; 0x59
     9ce:	f893 2059 	ldrb.w	r2, [r3, #89]	; 0x59
     9d2:	f002 02fe 	and.w	r2, r2, #254	; 0xfe
     9d6:	f042 0201 	orr.w	r2, r2, #1
     9da:	f883 2059 	strb.w	r2, [r3, #89]	; 0x59
     9de:	f893 203c 	ldrb.w	r2, [r3, #60]	; 0x3c
     9e2:	f002 020f 	and.w	r2, r2, #15
     9e6:	f042 0270 	orr.w	r2, r2, #112	; 0x70
     9ea:	f883 203c 	strb.w	r2, [r3, #60]	; 0x3c
     9ee:	4770      	bx	lr
     9f0:	41008000 	.word	0x41008000
     9f4:	c0000100 	.word	0xc0000100
     9f8:	c0000200 	.word	0xc0000200

000009fc <USB_0_CLOCK_init>:
     9fc:	2240      	movs	r2, #64	; 0x40
     9fe:	4b07      	ldr	r3, [pc, #28]	; (a1c <USB_0_CLOCK_init+0x20>)
     a00:	f8c3 20a8 	str.w	r2, [r3, #168]	; 0xa8
     a04:	f5a3 53a0 	sub.w	r3, r3, #5120	; 0x1400
     a08:	691a      	ldr	r2, [r3, #16]
     a0a:	f442 6280 	orr.w	r2, r2, #1024	; 0x400
     a0e:	611a      	str	r2, [r3, #16]
     a10:	699a      	ldr	r2, [r3, #24]
     a12:	f042 0201 	orr.w	r2, r2, #1
     a16:	619a      	str	r2, [r3, #24]
     a18:	4770      	bx	lr
     a1a:	bf00      	nop
     a1c:	40001c00 	.word	0x40001c00

00000a20 <USB_0_init>:
     a20:	b508      	push	{r3, lr}
     a22:	4b03      	ldr	r3, [pc, #12]	; (a30 <USB_0_init+0x10>)
     a24:	4798      	blx	r3
     a26:	4b03      	ldr	r3, [pc, #12]	; (a34 <USB_0_init+0x14>)
     a28:	4798      	blx	r3
     a2a:	4b03      	ldr	r3, [pc, #12]	; (a38 <USB_0_init+0x18>)
     a2c:	4798      	blx	r3
     a2e:	bd08      	pop	{r3, pc}
     a30:	000009fd 	.word	0x000009fd
     a34:	0000191d 	.word	0x0000191d
     a38:	00000975 	.word	0x00000975

00000a3c <CAN_0_PORT_init>:
     a3c:	4b10      	ldr	r3, [pc, #64]	; (a80 <CAN_0_PORT_init+0x44>)
     a3e:	f893 20cf 	ldrb.w	r2, [r3, #207]	; 0xcf
     a42:	f002 02fe 	and.w	r2, r2, #254	; 0xfe
     a46:	f042 0201 	orr.w	r2, r2, #1
     a4a:	f883 20cf 	strb.w	r2, [r3, #207]	; 0xcf
     a4e:	f893 20b7 	ldrb.w	r2, [r3, #183]	; 0xb7
     a52:	f002 020f 	and.w	r2, r2, #15
     a56:	f042 0270 	orr.w	r2, r2, #112	; 0x70
     a5a:	f883 20b7 	strb.w	r2, [r3, #183]	; 0xb7
     a5e:	f893 20ce 	ldrb.w	r2, [r3, #206]	; 0xce
     a62:	f002 02fe 	and.w	r2, r2, #254	; 0xfe
     a66:	f042 0201 	orr.w	r2, r2, #1
     a6a:	f883 20ce 	strb.w	r2, [r3, #206]	; 0xce
     a6e:	f893 20b7 	ldrb.w	r2, [r3, #183]	; 0xb7
     a72:	f002 02f0 	and.w	r2, r2, #240	; 0xf0
     a76:	f042 0207 	orr.w	r2, r2, #7
     a7a:	f883 20b7 	strb.w	r2, [r3, #183]	; 0xb7
     a7e:	4770      	bx	lr
     a80:	41008000 	.word	0x41008000

00000a84 <CAN_0_init>:
     a84:	b508      	push	{r3, lr}
     a86:	4a08      	ldr	r2, [pc, #32]	; (aa8 <CAN_0_init+0x24>)
     a88:	6913      	ldr	r3, [r2, #16]
     a8a:	f443 2380 	orr.w	r3, r3, #262144	; 0x40000
     a8e:	6113      	str	r3, [r2, #16]
     a90:	2240      	movs	r2, #64	; 0x40
     a92:	4b06      	ldr	r3, [pc, #24]	; (aac <CAN_0_init+0x28>)
     a94:	f8c3 20f0 	str.w	r2, [r3, #240]	; 0xf0
     a98:	4905      	ldr	r1, [pc, #20]	; (ab0 <CAN_0_init+0x2c>)
     a9a:	4806      	ldr	r0, [pc, #24]	; (ab4 <CAN_0_init+0x30>)
     a9c:	4b06      	ldr	r3, [pc, #24]	; (ab8 <CAN_0_init+0x34>)
     a9e:	4798      	blx	r3
     aa0:	4b06      	ldr	r3, [pc, #24]	; (abc <CAN_0_init+0x38>)
     aa2:	4798      	blx	r3
     aa4:	bd08      	pop	{r3, pc}
     aa6:	bf00      	nop
     aa8:	40000800 	.word	0x40000800
     aac:	40001c00 	.word	0x40001c00
     ab0:	42000400 	.word	0x42000400
     ab4:	200004fc 	.word	0x200004fc
     ab8:	00000e89 	.word	0x00000e89
     abc:	00000a3d 	.word	0x00000a3d

00000ac0 <system_init>:
     ac0:	b570      	push	{r4, r5, r6, lr}
     ac2:	4b7b      	ldr	r3, [pc, #492]	; (cb0 <system_init+0x1f0>)
     ac4:	4798      	blx	r3
     ac6:	4b7b      	ldr	r3, [pc, #492]	; (cb4 <system_init+0x1f4>)
     ac8:	2180      	movs	r1, #128	; 0x80
     aca:	6159      	str	r1, [r3, #20]
     acc:	6099      	str	r1, [r3, #8]
     ace:	4d7a      	ldr	r5, [pc, #488]	; (cb8 <system_init+0x1f8>)
     ad0:	629d      	str	r5, [r3, #40]	; 0x28
     ad2:	f04f 4040 	mov.w	r0, #3221225472	; 0xc0000000
     ad6:	6298      	str	r0, [r3, #40]	; 0x28
     ad8:	f893 2047 	ldrb.w	r2, [r3, #71]	; 0x47
     adc:	f002 02fe 	and.w	r2, r2, #254	; 0xfe
     ae0:	f883 2047 	strb.w	r2, [r3, #71]	; 0x47
     ae4:	f44f 6280 	mov.w	r2, #1024	; 0x400
     ae8:	605a      	str	r2, [r3, #4]
     aea:	f102 4280 	add.w	r2, r2, #1073741824	; 0x40000000
     aee:	f502 3200 	add.w	r2, r2, #131072	; 0x20000
     af2:	629a      	str	r2, [r3, #40]	; 0x28
     af4:	4a71      	ldr	r2, [pc, #452]	; (cbc <system_init+0x1fc>)
     af6:	629a      	str	r2, [r3, #40]	; 0x28
     af8:	f893 404a 	ldrb.w	r4, [r3, #74]	; 0x4a
     afc:	f004 04fb 	and.w	r4, r4, #251	; 0xfb
     b00:	f883 404a 	strb.w	r4, [r3, #74]	; 0x4a
     b04:	f893 404a 	ldrb.w	r4, [r3, #74]	; 0x4a
     b08:	f004 04fe 	and.w	r4, r4, #254	; 0xfe
     b0c:	f883 404a 	strb.w	r4, [r3, #74]	; 0x4a
     b10:	f44f 6400 	mov.w	r4, #2048	; 0x800
     b14:	605c      	str	r4, [r3, #4]
     b16:	f104 4480 	add.w	r4, r4, #1073741824	; 0x40000000
     b1a:	f504 3400 	add.w	r4, r4, #131072	; 0x20000
     b1e:	629c      	str	r4, [r3, #40]	; 0x28
     b20:	629a      	str	r2, [r3, #40]	; 0x28
     b22:	f893 404b 	ldrb.w	r4, [r3, #75]	; 0x4b
     b26:	f004 04fb 	and.w	r4, r4, #251	; 0xfb
     b2a:	f883 404b 	strb.w	r4, [r3, #75]	; 0x4b
     b2e:	f893 404b 	ldrb.w	r4, [r3, #75]	; 0x4b
     b32:	f004 04fe 	and.w	r4, r4, #254	; 0xfe
     b36:	f883 404b 	strb.w	r4, [r3, #75]	; 0x4b
     b3a:	f44f 4480 	mov.w	r4, #16384	; 0x4000
     b3e:	619c      	str	r4, [r3, #24]
     b40:	609c      	str	r4, [r3, #8]
     b42:	f04f 2440 	mov.w	r4, #1073758208	; 0x40004000
     b46:	629c      	str	r4, [r3, #40]	; 0x28
     b48:	6298      	str	r0, [r3, #40]	; 0x28
     b4a:	f893 404e 	ldrb.w	r4, [r3, #78]	; 0x4e
     b4e:	f004 04fe 	and.w	r4, r4, #254	; 0xfe
     b52:	f883 404e 	strb.w	r4, [r3, #78]	; 0x4e
     b56:	f44f 2480 	mov.w	r4, #262144	; 0x40000
     b5a:	615c      	str	r4, [r3, #20]
     b5c:	609c      	str	r4, [r3, #8]
     b5e:	f04f 4480 	mov.w	r4, #1073741824	; 0x40000000
     b62:	629c      	str	r4, [r3, #40]	; 0x28
     b64:	4e56      	ldr	r6, [pc, #344]	; (cc0 <system_init+0x200>)
     b66:	629e      	str	r6, [r3, #40]	; 0x28
     b68:	f893 6052 	ldrb.w	r6, [r3, #82]	; 0x52
     b6c:	f006 06fe 	and.w	r6, r6, #254	; 0xfe
     b70:	f883 6052 	strb.w	r6, [r3, #82]	; 0x52
     b74:	f44f 2600 	mov.w	r6, #524288	; 0x80000
     b78:	615e      	str	r6, [r3, #20]
     b7a:	609e      	str	r6, [r3, #8]
     b7c:	629c      	str	r4, [r3, #40]	; 0x28
     b7e:	4e51      	ldr	r6, [pc, #324]	; (cc4 <system_init+0x204>)
     b80:	629e      	str	r6, [r3, #40]	; 0x28
     b82:	f893 6053 	ldrb.w	r6, [r3, #83]	; 0x53
     b86:	f006 06fe 	and.w	r6, r6, #254	; 0xfe
     b8a:	f883 6053 	strb.w	r6, [r3, #83]	; 0x53
     b8e:	f44f 1680 	mov.w	r6, #1048576	; 0x100000
     b92:	615e      	str	r6, [r3, #20]
     b94:	609e      	str	r6, [r3, #8]
     b96:	629c      	str	r4, [r3, #40]	; 0x28
     b98:	4c4b      	ldr	r4, [pc, #300]	; (cc8 <system_init+0x208>)
     b9a:	629c      	str	r4, [r3, #40]	; 0x28
     b9c:	f893 4054 	ldrb.w	r4, [r3, #84]	; 0x54
     ba0:	f004 04fe 	and.w	r4, r4, #254	; 0xfe
     ba4:	f883 4054 	strb.w	r4, [r3, #84]	; 0x54
     ba8:	2410      	movs	r4, #16
     baa:	f8c3 4084 	str.w	r4, [r3, #132]	; 0x84
     bae:	f104 4480 	add.w	r4, r4, #1073741824	; 0x40000000
     bb2:	f504 3400 	add.w	r4, r4, #131072	; 0x20000
     bb6:	f8c3 40a8 	str.w	r4, [r3, #168]	; 0xa8
     bba:	f8c3 20a8 	str.w	r2, [r3, #168]	; 0xa8
     bbe:	f893 40c4 	ldrb.w	r4, [r3, #196]	; 0xc4
     bc2:	f004 04fb 	and.w	r4, r4, #251	; 0xfb
     bc6:	f883 40c4 	strb.w	r4, [r3, #196]	; 0xc4
     bca:	f893 40c4 	ldrb.w	r4, [r3, #196]	; 0xc4
     bce:	f004 04fe 	and.w	r4, r4, #254	; 0xfe
     bd2:	f883 40c4 	strb.w	r4, [r3, #196]	; 0xc4
     bd6:	2420      	movs	r4, #32
     bd8:	f8c3 4084 	str.w	r4, [r3, #132]	; 0x84
     bdc:	f104 4480 	add.w	r4, r4, #1073741824	; 0x40000000
     be0:	f504 3400 	add.w	r4, r4, #131072	; 0x20000
     be4:	f8c3 40a8 	str.w	r4, [r3, #168]	; 0xa8
     be8:	f8c3 20a8 	str.w	r2, [r3, #168]	; 0xa8
     bec:	f893 40c5 	ldrb.w	r4, [r3, #197]	; 0xc5
     bf0:	f004 04fb 	and.w	r4, r4, #251	; 0xfb
     bf4:	f883 40c5 	strb.w	r4, [r3, #197]	; 0xc5
     bf8:	f893 40c5 	ldrb.w	r4, [r3, #197]	; 0xc5
     bfc:	f004 04fe 	and.w	r4, r4, #254	; 0xfe
     c00:	f883 40c5 	strb.w	r4, [r3, #197]	; 0xc5
     c04:	2440      	movs	r4, #64	; 0x40
     c06:	f8c3 4084 	str.w	r4, [r3, #132]	; 0x84
     c0a:	f104 4480 	add.w	r4, r4, #1073741824	; 0x40000000
     c0e:	f504 3400 	add.w	r4, r4, #131072	; 0x20000
     c12:	f8c3 40a8 	str.w	r4, [r3, #168]	; 0xa8
     c16:	f8c3 20a8 	str.w	r2, [r3, #168]	; 0xa8
     c1a:	f893 40c6 	ldrb.w	r4, [r3, #198]	; 0xc6
     c1e:	f004 04fb 	and.w	r4, r4, #251	; 0xfb
     c22:	f883 40c6 	strb.w	r4, [r3, #198]	; 0xc6
     c26:	f893 40c6 	ldrb.w	r4, [r3, #198]	; 0xc6
     c2a:	f004 04fe 	and.w	r4, r4, #254	; 0xfe
     c2e:	f883 40c6 	strb.w	r4, [r3, #198]	; 0xc6
     c32:	f8c3 1094 	str.w	r1, [r3, #148]	; 0x94
     c36:	f8c3 1088 	str.w	r1, [r3, #136]	; 0x88
     c3a:	f8c3 50a8 	str.w	r5, [r3, #168]	; 0xa8
     c3e:	f8c3 00a8 	str.w	r0, [r3, #168]	; 0xa8
     c42:	f893 10c7 	ldrb.w	r1, [r3, #199]	; 0xc7
     c46:	f001 01fe 	and.w	r1, r1, #254	; 0xfe
     c4a:	f883 10c7 	strb.w	r1, [r3, #199]	; 0xc7
     c4e:	f44f 7100 	mov.w	r1, #512	; 0x200
     c52:	f8c3 1084 	str.w	r1, [r3, #132]	; 0x84
     c56:	f101 4180 	add.w	r1, r1, #1073741824	; 0x40000000
     c5a:	f501 3100 	add.w	r1, r1, #131072	; 0x20000
     c5e:	f8c3 10a8 	str.w	r1, [r3, #168]	; 0xa8
     c62:	f8c3 20a8 	str.w	r2, [r3, #168]	; 0xa8
     c66:	f893 20c9 	ldrb.w	r2, [r3, #201]	; 0xc9
     c6a:	f002 02fb 	and.w	r2, r2, #251	; 0xfb
     c6e:	f883 20c9 	strb.w	r2, [r3, #201]	; 0xc9
     c72:	f893 20c9 	ldrb.w	r2, [r3, #201]	; 0xc9
     c76:	f002 02fe 	and.w	r2, r2, #254	; 0xfe
     c7a:	f883 20c9 	strb.w	r2, [r3, #201]	; 0xc9
     c7e:	4b13      	ldr	r3, [pc, #76]	; (ccc <system_init+0x20c>)
     c80:	4798      	blx	r3
     c82:	4b13      	ldr	r3, [pc, #76]	; (cd0 <system_init+0x210>)
     c84:	4798      	blx	r3
     c86:	4b13      	ldr	r3, [pc, #76]	; (cd4 <system_init+0x214>)
     c88:	4798      	blx	r3
     c8a:	4b13      	ldr	r3, [pc, #76]	; (cd8 <system_init+0x218>)
     c8c:	4798      	blx	r3
     c8e:	4b13      	ldr	r3, [pc, #76]	; (cdc <system_init+0x21c>)
     c90:	4798      	blx	r3
     c92:	4b13      	ldr	r3, [pc, #76]	; (ce0 <system_init+0x220>)
     c94:	4798      	blx	r3
     c96:	4b13      	ldr	r3, [pc, #76]	; (ce4 <system_init+0x224>)
     c98:	4798      	blx	r3
     c9a:	4b13      	ldr	r3, [pc, #76]	; (ce8 <system_init+0x228>)
     c9c:	4798      	blx	r3
     c9e:	4b13      	ldr	r3, [pc, #76]	; (cec <system_init+0x22c>)
     ca0:	4798      	blx	r3
     ca2:	4b13      	ldr	r3, [pc, #76]	; (cf0 <system_init+0x230>)
     ca4:	4798      	blx	r3
     ca6:	4b13      	ldr	r3, [pc, #76]	; (cf4 <system_init+0x234>)
     ca8:	4798      	blx	r3
     caa:	4b13      	ldr	r3, [pc, #76]	; (cf8 <system_init+0x238>)
     cac:	4798      	blx	r3
     cae:	bd70      	pop	{r4, r5, r6, pc}
     cb0:	000021b1 	.word	0x000021b1
     cb4:	41008000 	.word	0x41008000
     cb8:	40000080 	.word	0x40000080
     cbc:	c0020000 	.word	0xc0020000
     cc0:	c0000004 	.word	0xc0000004
     cc4:	c0000008 	.word	0xc0000008
     cc8:	c0000010 	.word	0xc0000010
     ccc:	00000541 	.word	0x00000541
     cd0:	0000056d 	.word	0x0000056d
     cd4:	00000595 	.word	0x00000595
     cd8:	00000655 	.word	0x00000655
     cdc:	0000045d 	.word	0x0000045d
     ce0:	000006e1 	.word	0x000006e1
     ce4:	00000785 	.word	0x00000785
     ce8:	00000841 	.word	0x00000841
     cec:	00000939 	.word	0x00000939
     cf0:	00000961 	.word	0x00000961
     cf4:	00000a21 	.word	0x00000a21
     cf8:	00000a85 	.word	0x00000a85

00000cfc <i2c_m_sync_byte_write>:
     cfc:	b500      	push	{lr}
     cfe:	b085      	sub	sp, #20
     d00:	8b83      	ldrh	r3, [r0, #28]
     d02:	f8ad 3004 	strh.w	r3, [sp, #4]
     d06:	9202      	str	r2, [sp, #8]
     d08:	f44f 4300 	mov.w	r3, #32768	; 0x8000
     d0c:	f8ad 3006 	strh.w	r3, [sp, #6]
     d10:	9103      	str	r1, [sp, #12]
     d12:	a901      	add	r1, sp, #4
     d14:	4b02      	ldr	r3, [pc, #8]	; (d20 <i2c_m_sync_byte_write+0x24>)
     d16:	4798      	blx	r3
     d18:	b005      	add	sp, #20
     d1a:	f85d fb04 	ldr.w	pc, [sp], #4
     d1e:	bf00      	nop
     d20:	00002ed5 	.word	0x00002ed5

00000d24 <i2c_m_sync_byte_write_nostop>:
     d24:	b500      	push	{lr}
     d26:	b085      	sub	sp, #20
     d28:	8b83      	ldrh	r3, [r0, #28]
     d2a:	f8ad 3004 	strh.w	r3, [sp, #4]
     d2e:	9202      	str	r2, [sp, #8]
     d30:	2300      	movs	r3, #0
     d32:	f8ad 3006 	strh.w	r3, [sp, #6]
     d36:	9103      	str	r1, [sp, #12]
     d38:	a901      	add	r1, sp, #4
     d3a:	4b02      	ldr	r3, [pc, #8]	; (d44 <i2c_m_sync_byte_write_nostop+0x20>)
     d3c:	4798      	blx	r3
     d3e:	b005      	add	sp, #20
     d40:	f85d fb04 	ldr.w	pc, [sp], #4
     d44:	00002ed5 	.word	0x00002ed5

00000d48 <i2c_m_sync_byte_read>:
     d48:	b500      	push	{lr}
     d4a:	b085      	sub	sp, #20
     d4c:	8b83      	ldrh	r3, [r0, #28]
     d4e:	f8ad 3004 	strh.w	r3, [sp, #4]
     d52:	9202      	str	r2, [sp, #8]
     d54:	f248 0301 	movw	r3, #32769	; 0x8001
     d58:	f8ad 3006 	strh.w	r3, [sp, #6]
     d5c:	9103      	str	r1, [sp, #12]
     d5e:	a901      	add	r1, sp, #4
     d60:	4b02      	ldr	r3, [pc, #8]	; (d6c <i2c_m_sync_byte_read+0x24>)
     d62:	4798      	blx	r3
     d64:	b005      	add	sp, #20
     d66:	f85d fb04 	ldr.w	pc, [sp], #4
     d6a:	bf00      	nop
     d6c:	00002ed5 	.word	0x00002ed5

00000d70 <FRAM_init>:
     d70:	b510      	push	{r4, lr}
     d72:	4c05      	ldr	r4, [pc, #20]	; (d88 <FRAM_init+0x18>)
     d74:	4620      	mov	r0, r4
     d76:	4b05      	ldr	r3, [pc, #20]	; (d8c <FRAM_init+0x1c>)
     d78:	4798      	blx	r3
     d7a:	f44f 6200 	mov.w	r2, #2048	; 0x800
     d7e:	2150      	movs	r1, #80	; 0x50
     d80:	4620      	mov	r0, r4
     d82:	4b03      	ldr	r3, [pc, #12]	; (d90 <FRAM_init+0x20>)
     d84:	4798      	blx	r3
     d86:	bd10      	pop	{r4, pc}
     d88:	20000600 	.word	0x20000600
     d8c:	000010b5 	.word	0x000010b5
     d90:	000010c1 	.word	0x000010c1

00000d94 <FRAM_bytewrite>:
     d94:	b570      	push	{r4, r5, r6, lr}
     d96:	b082      	sub	sp, #8
     d98:	4605      	mov	r5, r0
     d9a:	460e      	mov	r6, r1
     d9c:	4c0a      	ldr	r4, [pc, #40]	; (dc8 <FRAM_bytewrite+0x34>)
     d9e:	f44f 6200 	mov.w	r2, #2048	; 0x800
     da2:	2150      	movs	r1, #80	; 0x50
     da4:	4620      	mov	r0, r4
     da6:	4b09      	ldr	r3, [pc, #36]	; (dcc <FRAM_bytewrite+0x38>)
     da8:	4798      	blx	r3
     daa:	0a2a      	lsrs	r2, r5, #8
     dac:	7833      	ldrb	r3, [r6, #0]
     dae:	f88d 2004 	strb.w	r2, [sp, #4]
     db2:	f88d 5005 	strb.w	r5, [sp, #5]
     db6:	f88d 3006 	strb.w	r3, [sp, #6]
     dba:	2203      	movs	r2, #3
     dbc:	a901      	add	r1, sp, #4
     dbe:	4620      	mov	r0, r4
     dc0:	4b03      	ldr	r3, [pc, #12]	; (dd0 <FRAM_bytewrite+0x3c>)
     dc2:	4798      	blx	r3
     dc4:	b002      	add	sp, #8
     dc6:	bd70      	pop	{r4, r5, r6, pc}
     dc8:	20000600 	.word	0x20000600
     dcc:	000010c1 	.word	0x000010c1
     dd0:	00000cfd 	.word	0x00000cfd

00000dd4 <FRAM_byteread>:
     dd4:	b570      	push	{r4, r5, r6, lr}
     dd6:	b082      	sub	sp, #8
     dd8:	4605      	mov	r5, r0
     dda:	460e      	mov	r6, r1
     ddc:	4c0b      	ldr	r4, [pc, #44]	; (e0c <FRAM_byteread+0x38>)
     dde:	f44f 6200 	mov.w	r2, #2048	; 0x800
     de2:	2150      	movs	r1, #80	; 0x50
     de4:	4620      	mov	r0, r4
     de6:	4b0a      	ldr	r3, [pc, #40]	; (e10 <FRAM_byteread+0x3c>)
     de8:	4798      	blx	r3
     dea:	0a2b      	lsrs	r3, r5, #8
     dec:	f88d 3004 	strb.w	r3, [sp, #4]
     df0:	f88d 5005 	strb.w	r5, [sp, #5]
     df4:	2202      	movs	r2, #2
     df6:	a901      	add	r1, sp, #4
     df8:	4620      	mov	r0, r4
     dfa:	4b06      	ldr	r3, [pc, #24]	; (e14 <FRAM_byteread+0x40>)
     dfc:	4798      	blx	r3
     dfe:	2201      	movs	r2, #1
     e00:	4631      	mov	r1, r6
     e02:	4620      	mov	r0, r4
     e04:	4b04      	ldr	r3, [pc, #16]	; (e18 <FRAM_byteread+0x44>)
     e06:	4798      	blx	r3
     e08:	b002      	add	sp, #8
     e0a:	bd70      	pop	{r4, r5, r6, pc}
     e0c:	20000600 	.word	0x20000600
     e10:	000010c1 	.word	0x000010c1
     e14:	00000d25 	.word	0x00000d25
     e18:	00000d49 	.word	0x00000d49

00000e1c <adc_sync_init>:
     e1c:	b538      	push	{r3, r4, r5, lr}
     e1e:	460c      	mov	r4, r1
     e20:	4605      	mov	r5, r0
     e22:	b160      	cbz	r0, e3e <adc_sync_init+0x22>
     e24:	b149      	cbz	r1, e3a <adc_sync_init+0x1e>
     e26:	2001      	movs	r0, #1
     e28:	2239      	movs	r2, #57	; 0x39
     e2a:	4906      	ldr	r1, [pc, #24]	; (e44 <adc_sync_init+0x28>)
     e2c:	4b06      	ldr	r3, [pc, #24]	; (e48 <adc_sync_init+0x2c>)
     e2e:	4798      	blx	r3
     e30:	4621      	mov	r1, r4
     e32:	4628      	mov	r0, r5
     e34:	4b05      	ldr	r3, [pc, #20]	; (e4c <adc_sync_init+0x30>)
     e36:	4798      	blx	r3
     e38:	bd38      	pop	{r3, r4, r5, pc}
     e3a:	2000      	movs	r0, #0
     e3c:	e7f4      	b.n	e28 <adc_sync_init+0xc>
     e3e:	2000      	movs	r0, #0
     e40:	e7f2      	b.n	e28 <adc_sync_init+0xc>
     e42:	bf00      	nop
     e44:	0000627c 	.word	0x0000627c
     e48:	00001c69 	.word	0x00001c69
     e4c:	00001fd9 	.word	0x00001fd9

00000e50 <atomic_enter_critical>:
  __ASM volatile ("MRS %0, primask" : "=r" (result) :: "memory");
     e50:	f3ef 8310 	mrs	r3, PRIMASK
     e54:	6003      	str	r3, [r0, #0]
  __ASM volatile ("cpsid i" : : : "memory");
     e56:	b672      	cpsid	i
  \details Ensures the apparent order of the explicit memory operations before
           and after the instruction, without ensuring their completion.
 */
__STATIC_FORCEINLINE void __DMB(void)
{
  __ASM volatile ("dmb 0xF":::"memory");
     e58:	f3bf 8f5f 	dmb	sy
     e5c:	4770      	bx	lr

00000e5e <atomic_leave_critical>:
     e5e:	f3bf 8f5f 	dmb	sy
     e62:	6803      	ldr	r3, [r0, #0]
  __ASM volatile ("MSR primask, %0" : : "r" (priMask) : "memory");
     e64:	f383 8810 	msr	PRIMASK, r3
     e68:	4770      	bx	lr

00000e6a <can_tx_done>:
     e6a:	b508      	push	{r3, lr}
     e6c:	69c3      	ldr	r3, [r0, #28]
     e6e:	b103      	cbz	r3, e72 <can_tx_done+0x8>
     e70:	4798      	blx	r3
     e72:	bd08      	pop	{r3, pc}

00000e74 <can_rx_done>:
     e74:	b508      	push	{r3, lr}
     e76:	6a03      	ldr	r3, [r0, #32]
     e78:	b103      	cbz	r3, e7c <can_rx_done+0x8>
     e7a:	4798      	blx	r3
     e7c:	bd08      	pop	{r3, pc}

00000e7e <can_irq_handler>:
     e7e:	b508      	push	{r3, lr}
     e80:	6a43      	ldr	r3, [r0, #36]	; 0x24
     e82:	b103      	cbz	r3, e86 <can_irq_handler+0x8>
     e84:	4798      	blx	r3
     e86:	bd08      	pop	{r3, pc}

00000e88 <can_async_init>:
     e88:	b538      	push	{r3, r4, r5, lr}
     e8a:	460d      	mov	r5, r1
     e8c:	4604      	mov	r4, r0
     e8e:	b1a8      	cbz	r0, ebc <can_async_init+0x34>
     e90:	b191      	cbz	r1, eb8 <can_async_init+0x30>
     e92:	2001      	movs	r0, #1
     e94:	2241      	movs	r2, #65	; 0x41
     e96:	490a      	ldr	r1, [pc, #40]	; (ec0 <can_async_init+0x38>)
     e98:	4b0a      	ldr	r3, [pc, #40]	; (ec4 <can_async_init+0x3c>)
     e9a:	4798      	blx	r3
     e9c:	4629      	mov	r1, r5
     e9e:	4620      	mov	r0, r4
     ea0:	4b09      	ldr	r3, [pc, #36]	; (ec8 <can_async_init+0x40>)
     ea2:	4798      	blx	r3
     ea4:	4603      	mov	r3, r0
     ea6:	b928      	cbnz	r0, eb4 <can_async_init+0x2c>
     ea8:	4a08      	ldr	r2, [pc, #32]	; (ecc <can_async_init+0x44>)
     eaa:	6062      	str	r2, [r4, #4]
     eac:	4a08      	ldr	r2, [pc, #32]	; (ed0 <can_async_init+0x48>)
     eae:	60a2      	str	r2, [r4, #8]
     eb0:	4a08      	ldr	r2, [pc, #32]	; (ed4 <can_async_init+0x4c>)
     eb2:	60e2      	str	r2, [r4, #12]
     eb4:	4618      	mov	r0, r3
     eb6:	bd38      	pop	{r3, r4, r5, pc}
     eb8:	2000      	movs	r0, #0
     eba:	e7eb      	b.n	e94 <can_async_init+0xc>
     ebc:	2000      	movs	r0, #0
     ebe:	e7e9      	b.n	e94 <can_async_init+0xc>
     ec0:	00006298 	.word	0x00006298
     ec4:	00001c69 	.word	0x00001c69
     ec8:	00002011 	.word	0x00002011
     ecc:	00000e6b 	.word	0x00000e6b
     ed0:	00000e75 	.word	0x00000e75
     ed4:	00000e7f 	.word	0x00000e7f

00000ed8 <crc_sync_init>:
     ed8:	b538      	push	{r3, r4, r5, lr}
     eda:	460c      	mov	r4, r1
     edc:	4605      	mov	r5, r0
     ede:	b160      	cbz	r0, efa <crc_sync_init+0x22>
     ee0:	b149      	cbz	r1, ef6 <crc_sync_init+0x1e>
     ee2:	2001      	movs	r0, #1
     ee4:	222b      	movs	r2, #43	; 0x2b
     ee6:	4906      	ldr	r1, [pc, #24]	; (f00 <crc_sync_init+0x28>)
     ee8:	4b06      	ldr	r3, [pc, #24]	; (f04 <crc_sync_init+0x2c>)
     eea:	4798      	blx	r3
     eec:	4621      	mov	r1, r4
     eee:	4628      	mov	r0, r5
     ef0:	4b05      	ldr	r3, [pc, #20]	; (f08 <crc_sync_init+0x30>)
     ef2:	4798      	blx	r3
     ef4:	bd38      	pop	{r3, r4, r5, pc}
     ef6:	2000      	movs	r0, #0
     ef8:	e7f4      	b.n	ee4 <crc_sync_init+0xc>
     efa:	2000      	movs	r0, #0
     efc:	e7f2      	b.n	ee4 <crc_sync_init+0xc>
     efe:	bf00      	nop
     f00:	000062b4 	.word	0x000062b4
     f04:	00001c69 	.word	0x00001c69
     f08:	000021f1 	.word	0x000021f1

00000f0c <delay_init>:
     f0c:	b508      	push	{r3, lr}
     f0e:	4b02      	ldr	r3, [pc, #8]	; (f18 <delay_init+0xc>)
     f10:	6018      	str	r0, [r3, #0]
     f12:	4b02      	ldr	r3, [pc, #8]	; (f1c <delay_init+0x10>)
     f14:	4798      	blx	r3
     f16:	bd08      	pop	{r3, pc}
     f18:	20000124 	.word	0x20000124
     f1c:	000034e9 	.word	0x000034e9

00000f20 <delay_ms>:
     f20:	b510      	push	{r4, lr}
     f22:	4b04      	ldr	r3, [pc, #16]	; (f34 <delay_ms+0x14>)
     f24:	681c      	ldr	r4, [r3, #0]
     f26:	4b04      	ldr	r3, [pc, #16]	; (f38 <delay_ms+0x18>)
     f28:	4798      	blx	r3
     f2a:	4601      	mov	r1, r0
     f2c:	4620      	mov	r0, r4
     f2e:	4b03      	ldr	r3, [pc, #12]	; (f3c <delay_ms+0x1c>)
     f30:	4798      	blx	r3
     f32:	bd10      	pop	{r4, pc}
     f34:	20000124 	.word	0x20000124
     f38:	000021a1 	.word	0x000021a1
     f3c:	000034f5 	.word	0x000034f5

00000f40 <process_ext_irq>:
     f40:	b538      	push	{r3, r4, r5, lr}
     f42:	2502      	movs	r5, #2
     f44:	2400      	movs	r4, #0
     f46:	e007      	b.n	f58 <process_ext_irq+0x18>
     f48:	4a0d      	ldr	r2, [pc, #52]	; (f80 <process_ext_irq+0x40>)
     f4a:	f852 3033 	ldr.w	r3, [r2, r3, lsl #3]
     f4e:	b1b3      	cbz	r3, f7e <process_ext_irq+0x3e>
     f50:	4798      	blx	r3
     f52:	bd38      	pop	{r3, r4, r5, pc}
     f54:	3a01      	subs	r2, #1
     f56:	b2d5      	uxtb	r5, r2
     f58:	42ac      	cmp	r4, r5
     f5a:	d810      	bhi.n	f7e <process_ext_irq+0x3e>
     f5c:	192b      	adds	r3, r5, r4
     f5e:	105b      	asrs	r3, r3, #1
     f60:	b2da      	uxtb	r2, r3
     f62:	2a01      	cmp	r2, #1
     f64:	d80b      	bhi.n	f7e <process_ext_irq+0x3e>
     f66:	4613      	mov	r3, r2
     f68:	4905      	ldr	r1, [pc, #20]	; (f80 <process_ext_irq+0x40>)
     f6a:	eb01 01c2 	add.w	r1, r1, r2, lsl #3
     f6e:	6849      	ldr	r1, [r1, #4]
     f70:	4281      	cmp	r1, r0
     f72:	d0e9      	beq.n	f48 <process_ext_irq+0x8>
     f74:	4281      	cmp	r1, r0
     f76:	d2ed      	bcs.n	f54 <process_ext_irq+0x14>
     f78:	3201      	adds	r2, #1
     f7a:	b2d4      	uxtb	r4, r2
     f7c:	e7ec      	b.n	f58 <process_ext_irq+0x18>
     f7e:	bd38      	pop	{r3, r4, r5, pc}
     f80:	20000128 	.word	0x20000128

00000f84 <ext_irq_init>:
     f84:	b508      	push	{r3, lr}
     f86:	2300      	movs	r3, #0
     f88:	e00a      	b.n	fa0 <ext_irq_init+0x1c>
     f8a:	4a08      	ldr	r2, [pc, #32]	; (fac <ext_irq_init+0x28>)
     f8c:	eb02 01c3 	add.w	r1, r2, r3, lsl #3
     f90:	f04f 30ff 	mov.w	r0, #4294967295
     f94:	6048      	str	r0, [r1, #4]
     f96:	2100      	movs	r1, #0
     f98:	f842 1033 	str.w	r1, [r2, r3, lsl #3]
     f9c:	3301      	adds	r3, #1
     f9e:	b29b      	uxth	r3, r3
     fa0:	2b01      	cmp	r3, #1
     fa2:	d9f2      	bls.n	f8a <ext_irq_init+0x6>
     fa4:	4802      	ldr	r0, [pc, #8]	; (fb0 <ext_irq_init+0x2c>)
     fa6:	4b03      	ldr	r3, [pc, #12]	; (fb4 <ext_irq_init+0x30>)
     fa8:	4798      	blx	r3
     faa:	bd08      	pop	{r3, pc}
     fac:	20000128 	.word	0x20000128
     fb0:	00000f41 	.word	0x00000f41
     fb4:	000022bd 	.word	0x000022bd

00000fb8 <flash_ready>:
     fb8:	b508      	push	{r3, lr}
     fba:	6943      	ldr	r3, [r0, #20]
     fbc:	b103      	cbz	r3, fc0 <flash_ready+0x8>
     fbe:	4798      	blx	r3
     fc0:	bd08      	pop	{r3, pc}

00000fc2 <flash_error>:
     fc2:	b508      	push	{r3, lr}
     fc4:	6983      	ldr	r3, [r0, #24]
     fc6:	b103      	cbz	r3, fca <flash_error+0x8>
     fc8:	4798      	blx	r3
     fca:	bd08      	pop	{r3, pc}

00000fcc <flash_init>:
     fcc:	b538      	push	{r3, r4, r5, lr}
     fce:	460d      	mov	r5, r1
     fd0:	4604      	mov	r4, r0
     fd2:	b198      	cbz	r0, ffc <flash_init+0x30>
     fd4:	b181      	cbz	r1, ff8 <flash_init+0x2c>
     fd6:	2001      	movs	r0, #1
     fd8:	2238      	movs	r2, #56	; 0x38
     fda:	4909      	ldr	r1, [pc, #36]	; (1000 <flash_init+0x34>)
     fdc:	4b09      	ldr	r3, [pc, #36]	; (1004 <flash_init+0x38>)
     fde:	4798      	blx	r3
     fe0:	4629      	mov	r1, r5
     fe2:	4620      	mov	r0, r4
     fe4:	4b08      	ldr	r3, [pc, #32]	; (1008 <flash_init+0x3c>)
     fe6:	4798      	blx	r3
     fe8:	4603      	mov	r3, r0
     fea:	b918      	cbnz	r0, ff4 <flash_init+0x28>
     fec:	4a07      	ldr	r2, [pc, #28]	; (100c <flash_init+0x40>)
     fee:	6022      	str	r2, [r4, #0]
     ff0:	4a07      	ldr	r2, [pc, #28]	; (1010 <flash_init+0x44>)
     ff2:	6062      	str	r2, [r4, #4]
     ff4:	4618      	mov	r0, r3
     ff6:	bd38      	pop	{r3, r4, r5, pc}
     ff8:	2000      	movs	r0, #0
     ffa:	e7ed      	b.n	fd8 <flash_init+0xc>
     ffc:	2000      	movs	r0, #0
     ffe:	e7eb      	b.n	fd8 <flash_init+0xc>
    1000:	000062d0 	.word	0x000062d0
    1004:	00001c69 	.word	0x00001c69
    1008:	00002429 	.word	0x00002429
    100c:	00000fb9 	.word	0x00000fb9
    1010:	00000fc3 	.word	0x00000fc3

00001014 <i2c_m_sync_write>:
    1014:	b510      	push	{r4, lr}
    1016:	b084      	sub	sp, #16
    1018:	8903      	ldrh	r3, [r0, #8]
    101a:	f8ad 3004 	strh.w	r3, [sp, #4]
    101e:	4614      	mov	r4, r2
    1020:	9202      	str	r2, [sp, #8]
    1022:	f44f 4300 	mov.w	r3, #32768	; 0x8000
    1026:	f8ad 3006 	strh.w	r3, [sp, #6]
    102a:	9103      	str	r1, [sp, #12]
    102c:	a901      	add	r1, sp, #4
    102e:	3814      	subs	r0, #20
    1030:	4b03      	ldr	r3, [pc, #12]	; (1040 <i2c_m_sync_write+0x2c>)
    1032:	4798      	blx	r3
    1034:	b910      	cbnz	r0, 103c <i2c_m_sync_write+0x28>
    1036:	4620      	mov	r0, r4
    1038:	b004      	add	sp, #16
    103a:	bd10      	pop	{r4, pc}
    103c:	4604      	mov	r4, r0
    103e:	e7fa      	b.n	1036 <i2c_m_sync_write+0x22>
    1040:	00002ed5 	.word	0x00002ed5

00001044 <i2c_m_sync_read>:
    1044:	b510      	push	{r4, lr}
    1046:	b084      	sub	sp, #16
    1048:	8903      	ldrh	r3, [r0, #8]
    104a:	f8ad 3004 	strh.w	r3, [sp, #4]
    104e:	4614      	mov	r4, r2
    1050:	9202      	str	r2, [sp, #8]
    1052:	f248 0301 	movw	r3, #32769	; 0x8001
    1056:	f8ad 3006 	strh.w	r3, [sp, #6]
    105a:	9103      	str	r1, [sp, #12]
    105c:	a901      	add	r1, sp, #4
    105e:	3814      	subs	r0, #20
    1060:	4b03      	ldr	r3, [pc, #12]	; (1070 <i2c_m_sync_read+0x2c>)
    1062:	4798      	blx	r3
    1064:	b910      	cbnz	r0, 106c <i2c_m_sync_read+0x28>
    1066:	4620      	mov	r0, r4
    1068:	b004      	add	sp, #16
    106a:	bd10      	pop	{r4, pc}
    106c:	4604      	mov	r4, r0
    106e:	e7fa      	b.n	1066 <i2c_m_sync_read+0x22>
    1070:	00002ed5 	.word	0x00002ed5

00001074 <i2c_m_sync_init>:
    1074:	b538      	push	{r3, r4, r5, lr}
    1076:	460d      	mov	r5, r1
    1078:	4604      	mov	r4, r0
    107a:	225e      	movs	r2, #94	; 0x5e
    107c:	4908      	ldr	r1, [pc, #32]	; (10a0 <i2c_m_sync_init+0x2c>)
    107e:	3000      	adds	r0, #0
    1080:	bf18      	it	ne
    1082:	2001      	movne	r0, #1
    1084:	4b07      	ldr	r3, [pc, #28]	; (10a4 <i2c_m_sync_init+0x30>)
    1086:	4798      	blx	r3
    1088:	4629      	mov	r1, r5
    108a:	4620      	mov	r0, r4
    108c:	4b06      	ldr	r3, [pc, #24]	; (10a8 <i2c_m_sync_init+0x34>)
    108e:	4798      	blx	r3
    1090:	4603      	mov	r3, r0
    1092:	b918      	cbnz	r0, 109c <i2c_m_sync_init+0x28>
    1094:	4a05      	ldr	r2, [pc, #20]	; (10ac <i2c_m_sync_init+0x38>)
    1096:	61a2      	str	r2, [r4, #24]
    1098:	4a05      	ldr	r2, [pc, #20]	; (10b0 <i2c_m_sync_init+0x3c>)
    109a:	6162      	str	r2, [r4, #20]
    109c:	4618      	mov	r0, r3
    109e:	bd38      	pop	{r3, r4, r5, pc}
    10a0:	000062e8 	.word	0x000062e8
    10a4:	00001c69 	.word	0x00001c69
    10a8:	00002e2d 	.word	0x00002e2d
    10ac:	00001045 	.word	0x00001045
    10b0:	00001015 	.word	0x00001015

000010b4 <i2c_m_sync_enable>:
    10b4:	b508      	push	{r3, lr}
    10b6:	4b01      	ldr	r3, [pc, #4]	; (10bc <i2c_m_sync_enable+0x8>)
    10b8:	4798      	blx	r3
    10ba:	bd08      	pop	{r3, pc}
    10bc:	00002e5d 	.word	0x00002e5d

000010c0 <i2c_m_sync_set_slaveaddr>:
    10c0:	f3c1 0109 	ubfx	r1, r1, #0, #10
    10c4:	f402 6280 	and.w	r2, r2, #1024	; 0x400
    10c8:	430a      	orrs	r2, r1
    10ca:	8382      	strh	r2, [r0, #28]
    10cc:	4610      	mov	r0, r2
    10ce:	4770      	bx	lr

000010d0 <i2c_m_sync_cmd_read>:
    10d0:	b570      	push	{r4, r5, r6, lr}
    10d2:	b086      	sub	sp, #24
    10d4:	4604      	mov	r4, r0
    10d6:	4616      	mov	r6, r2
    10d8:	461d      	mov	r5, r3
    10da:	f88d 1007 	strb.w	r1, [sp, #7]
    10de:	8b83      	ldrh	r3, [r0, #28]
    10e0:	f8ad 300c 	strh.w	r3, [sp, #12]
    10e4:	2301      	movs	r3, #1
    10e6:	9304      	str	r3, [sp, #16]
    10e8:	2300      	movs	r3, #0
    10ea:	f8ad 300e 	strh.w	r3, [sp, #14]
    10ee:	f10d 0307 	add.w	r3, sp, #7
    10f2:	9305      	str	r3, [sp, #20]
    10f4:	a903      	add	r1, sp, #12
    10f6:	4b09      	ldr	r3, [pc, #36]	; (111c <i2c_m_sync_cmd_read+0x4c>)
    10f8:	4798      	blx	r3
    10fa:	4603      	mov	r3, r0
    10fc:	b110      	cbz	r0, 1104 <i2c_m_sync_cmd_read+0x34>
    10fe:	4618      	mov	r0, r3
    1100:	b006      	add	sp, #24
    1102:	bd70      	pop	{r4, r5, r6, pc}
    1104:	f248 0301 	movw	r3, #32769	; 0x8001
    1108:	f8ad 300e 	strh.w	r3, [sp, #14]
    110c:	9605      	str	r6, [sp, #20]
    110e:	9504      	str	r5, [sp, #16]
    1110:	a903      	add	r1, sp, #12
    1112:	4620      	mov	r0, r4
    1114:	4b01      	ldr	r3, [pc, #4]	; (111c <i2c_m_sync_cmd_read+0x4c>)
    1116:	4798      	blx	r3
    1118:	4603      	mov	r3, r0
    111a:	e7f0      	b.n	10fe <i2c_m_sync_cmd_read+0x2e>
    111c:	00002ed5 	.word	0x00002ed5

00001120 <i2c_m_sync_get_io_descriptor>:
    1120:	3014      	adds	r0, #20
    1122:	6008      	str	r0, [r1, #0]
    1124:	2000      	movs	r0, #0
    1126:	4770      	bx	lr

00001128 <io_write>:
    1128:	b570      	push	{r4, r5, r6, lr}
    112a:	460d      	mov	r5, r1
    112c:	4616      	mov	r6, r2
    112e:	4604      	mov	r4, r0
    1130:	b168      	cbz	r0, 114e <io_write+0x26>
    1132:	b151      	cbz	r1, 114a <io_write+0x22>
    1134:	2001      	movs	r0, #1
    1136:	2234      	movs	r2, #52	; 0x34
    1138:	4906      	ldr	r1, [pc, #24]	; (1154 <io_write+0x2c>)
    113a:	4b07      	ldr	r3, [pc, #28]	; (1158 <io_write+0x30>)
    113c:	4798      	blx	r3
    113e:	6823      	ldr	r3, [r4, #0]
    1140:	4632      	mov	r2, r6
    1142:	4629      	mov	r1, r5
    1144:	4620      	mov	r0, r4
    1146:	4798      	blx	r3
    1148:	bd70      	pop	{r4, r5, r6, pc}
    114a:	2000      	movs	r0, #0
    114c:	e7f3      	b.n	1136 <io_write+0xe>
    114e:	2000      	movs	r0, #0
    1150:	e7f1      	b.n	1136 <io_write+0xe>
    1152:	bf00      	nop
    1154:	00006304 	.word	0x00006304
    1158:	00001c69 	.word	0x00001c69

0000115c <io_read>:
    115c:	b570      	push	{r4, r5, r6, lr}
    115e:	460d      	mov	r5, r1
    1160:	4616      	mov	r6, r2
    1162:	4604      	mov	r4, r0
    1164:	b168      	cbz	r0, 1182 <io_read+0x26>
    1166:	b151      	cbz	r1, 117e <io_read+0x22>
    1168:	2001      	movs	r0, #1
    116a:	223d      	movs	r2, #61	; 0x3d
    116c:	4906      	ldr	r1, [pc, #24]	; (1188 <io_read+0x2c>)
    116e:	4b07      	ldr	r3, [pc, #28]	; (118c <io_read+0x30>)
    1170:	4798      	blx	r3
    1172:	6863      	ldr	r3, [r4, #4]
    1174:	4632      	mov	r2, r6
    1176:	4629      	mov	r1, r5
    1178:	4620      	mov	r0, r4
    117a:	4798      	blx	r3
    117c:	bd70      	pop	{r4, r5, r6, pc}
    117e:	2000      	movs	r0, #0
    1180:	e7f3      	b.n	116a <io_read+0xe>
    1182:	2000      	movs	r0, #0
    1184:	e7f1      	b.n	116a <io_read+0xe>
    1186:	bf00      	nop
    1188:	00006304 	.word	0x00006304
    118c:	00001c69 	.word	0x00001c69

00001190 <sleep>:
    1190:	b508      	push	{r3, lr}
    1192:	4b05      	ldr	r3, [pc, #20]	; (11a8 <sleep+0x18>)
    1194:	4798      	blx	r3
    1196:	b918      	cbnz	r0, 11a0 <sleep+0x10>
    1198:	4b04      	ldr	r3, [pc, #16]	; (11ac <sleep+0x1c>)
    119a:	4798      	blx	r3
    119c:	2000      	movs	r0, #0
    119e:	bd08      	pop	{r3, pc}
    11a0:	f06f 000c 	mvn.w	r0, #12
    11a4:	bd08      	pop	{r3, pc}
    11a6:	bf00      	nop
    11a8:	000025f1 	.word	0x000025f1
    11ac:	00002199 	.word	0x00002199

000011b0 <spi_m_sync_init>:
    11b0:	b538      	push	{r3, r4, r5, lr}
    11b2:	460d      	mov	r5, r1
    11b4:	4604      	mov	r4, r0
    11b6:	b1c0      	cbz	r0, 11ea <spi_m_sync_init+0x3a>
    11b8:	b1a9      	cbz	r1, 11e6 <spi_m_sync_init+0x36>
    11ba:	2001      	movs	r0, #1
    11bc:	2240      	movs	r2, #64	; 0x40
    11be:	490c      	ldr	r1, [pc, #48]	; (11f0 <spi_m_sync_init+0x40>)
    11c0:	4b0c      	ldr	r3, [pc, #48]	; (11f4 <spi_m_sync_init+0x44>)
    11c2:	4798      	blx	r3
    11c4:	4620      	mov	r0, r4
    11c6:	f840 5f04 	str.w	r5, [r0, #4]!
    11ca:	4629      	mov	r1, r5
    11cc:	4b0a      	ldr	r3, [pc, #40]	; (11f8 <spi_m_sync_init+0x48>)
    11ce:	4798      	blx	r3
    11d0:	2800      	cmp	r0, #0
    11d2:	db07      	blt.n	11e4 <spi_m_sync_init+0x34>
    11d4:	f44f 4300 	mov.w	r3, #32768	; 0x8000
    11d8:	82a3      	strh	r3, [r4, #20]
    11da:	4b08      	ldr	r3, [pc, #32]	; (11fc <spi_m_sync_init+0x4c>)
    11dc:	6123      	str	r3, [r4, #16]
    11de:	4b08      	ldr	r3, [pc, #32]	; (1200 <spi_m_sync_init+0x50>)
    11e0:	60e3      	str	r3, [r4, #12]
    11e2:	2000      	movs	r0, #0
    11e4:	bd38      	pop	{r3, r4, r5, pc}
    11e6:	2000      	movs	r0, #0
    11e8:	e7e8      	b.n	11bc <spi_m_sync_init+0xc>
    11ea:	2000      	movs	r0, #0
    11ec:	e7e6      	b.n	11bc <spi_m_sync_init+0xc>
    11ee:	bf00      	nop
    11f0:	00006318 	.word	0x00006318
    11f4:	00001c69 	.word	0x00001c69
    11f8:	00003225 	.word	0x00003225
    11fc:	000012ad 	.word	0x000012ad
    1200:	00001271 	.word	0x00001271

00001204 <spi_m_sync_enable>:
    1204:	b510      	push	{r4, lr}
    1206:	4604      	mov	r4, r0
    1208:	2257      	movs	r2, #87	; 0x57
    120a:	4905      	ldr	r1, [pc, #20]	; (1220 <spi_m_sync_enable+0x1c>)
    120c:	3000      	adds	r0, #0
    120e:	bf18      	it	ne
    1210:	2001      	movne	r0, #1
    1212:	4b04      	ldr	r3, [pc, #16]	; (1224 <spi_m_sync_enable+0x20>)
    1214:	4798      	blx	r3
    1216:	1d20      	adds	r0, r4, #4
    1218:	4b03      	ldr	r3, [pc, #12]	; (1228 <spi_m_sync_enable+0x24>)
    121a:	4798      	blx	r3
    121c:	bd10      	pop	{r4, pc}
    121e:	bf00      	nop
    1220:	00006318 	.word	0x00006318
    1224:	00001c69 	.word	0x00001c69
    1228:	000033a1 	.word	0x000033a1

0000122c <spi_m_sync_transfer>:
    122c:	b530      	push	{r4, r5, lr}
    122e:	b085      	sub	sp, #20
    1230:	460c      	mov	r4, r1
    1232:	4605      	mov	r5, r0
    1234:	b198      	cbz	r0, 125e <spi_m_sync_transfer+0x32>
    1236:	b181      	cbz	r1, 125a <spi_m_sync_transfer+0x2e>
    1238:	2001      	movs	r0, #1
    123a:	22b3      	movs	r2, #179	; 0xb3
    123c:	4909      	ldr	r1, [pc, #36]	; (1264 <spi_m_sync_transfer+0x38>)
    123e:	4b0a      	ldr	r3, [pc, #40]	; (1268 <spi_m_sync_transfer+0x3c>)
    1240:	4798      	blx	r3
    1242:	6823      	ldr	r3, [r4, #0]
    1244:	9301      	str	r3, [sp, #4]
    1246:	6863      	ldr	r3, [r4, #4]
    1248:	9302      	str	r3, [sp, #8]
    124a:	68a3      	ldr	r3, [r4, #8]
    124c:	9303      	str	r3, [sp, #12]
    124e:	a901      	add	r1, sp, #4
    1250:	1d28      	adds	r0, r5, #4
    1252:	4b06      	ldr	r3, [pc, #24]	; (126c <spi_m_sync_transfer+0x40>)
    1254:	4798      	blx	r3
    1256:	b005      	add	sp, #20
    1258:	bd30      	pop	{r4, r5, pc}
    125a:	2000      	movs	r0, #0
    125c:	e7ed      	b.n	123a <spi_m_sync_transfer+0xe>
    125e:	2000      	movs	r0, #0
    1260:	e7eb      	b.n	123a <spi_m_sync_transfer+0xe>
    1262:	bf00      	nop
    1264:	00006318 	.word	0x00006318
    1268:	00001c69 	.word	0x00001c69
    126c:	000033d5 	.word	0x000033d5

00001270 <_spi_m_sync_io_write>:
    1270:	b570      	push	{r4, r5, r6, lr}
    1272:	b084      	sub	sp, #16
    1274:	460e      	mov	r6, r1
    1276:	4615      	mov	r5, r2
    1278:	4604      	mov	r4, r0
    127a:	22a3      	movs	r2, #163	; 0xa3
    127c:	4908      	ldr	r1, [pc, #32]	; (12a0 <_spi_m_sync_io_write+0x30>)
    127e:	3000      	adds	r0, #0
    1280:	bf18      	it	ne
    1282:	2001      	movne	r0, #1
    1284:	4b07      	ldr	r3, [pc, #28]	; (12a4 <_spi_m_sync_io_write+0x34>)
    1286:	4798      	blx	r3
    1288:	2300      	movs	r3, #0
    128a:	9302      	str	r3, [sp, #8]
    128c:	9601      	str	r6, [sp, #4]
    128e:	9503      	str	r5, [sp, #12]
    1290:	a901      	add	r1, sp, #4
    1292:	f1a4 000c 	sub.w	r0, r4, #12
    1296:	4b04      	ldr	r3, [pc, #16]	; (12a8 <_spi_m_sync_io_write+0x38>)
    1298:	4798      	blx	r3
    129a:	b004      	add	sp, #16
    129c:	bd70      	pop	{r4, r5, r6, pc}
    129e:	bf00      	nop
    12a0:	00006318 	.word	0x00006318
    12a4:	00001c69 	.word	0x00001c69
    12a8:	0000122d 	.word	0x0000122d

000012ac <_spi_m_sync_io_read>:
    12ac:	b570      	push	{r4, r5, r6, lr}
    12ae:	b084      	sub	sp, #16
    12b0:	460e      	mov	r6, r1
    12b2:	4615      	mov	r5, r2
    12b4:	4604      	mov	r4, r0
    12b6:	2287      	movs	r2, #135	; 0x87
    12b8:	4908      	ldr	r1, [pc, #32]	; (12dc <_spi_m_sync_io_read+0x30>)
    12ba:	3000      	adds	r0, #0
    12bc:	bf18      	it	ne
    12be:	2001      	movne	r0, #1
    12c0:	4b07      	ldr	r3, [pc, #28]	; (12e0 <_spi_m_sync_io_read+0x34>)
    12c2:	4798      	blx	r3
    12c4:	9602      	str	r6, [sp, #8]
    12c6:	2300      	movs	r3, #0
    12c8:	9301      	str	r3, [sp, #4]
    12ca:	9503      	str	r5, [sp, #12]
    12cc:	a901      	add	r1, sp, #4
    12ce:	f1a4 000c 	sub.w	r0, r4, #12
    12d2:	4b04      	ldr	r3, [pc, #16]	; (12e4 <_spi_m_sync_io_read+0x38>)
    12d4:	4798      	blx	r3
    12d6:	b004      	add	sp, #16
    12d8:	bd70      	pop	{r4, r5, r6, pc}
    12da:	bf00      	nop
    12dc:	00006318 	.word	0x00006318
    12e0:	00001c69 	.word	0x00001c69
    12e4:	0000122d 	.word	0x0000122d

000012e8 <spi_m_sync_get_io_descriptor>:
    12e8:	b538      	push	{r3, r4, r5, lr}
    12ea:	460d      	mov	r5, r1
    12ec:	4604      	mov	r4, r0
    12ee:	b158      	cbz	r0, 1308 <spi_m_sync_get_io_descriptor+0x20>
    12f0:	b141      	cbz	r1, 1304 <spi_m_sync_get_io_descriptor+0x1c>
    12f2:	2001      	movs	r0, #1
    12f4:	22bd      	movs	r2, #189	; 0xbd
    12f6:	4905      	ldr	r1, [pc, #20]	; (130c <spi_m_sync_get_io_descriptor+0x24>)
    12f8:	4b05      	ldr	r3, [pc, #20]	; (1310 <spi_m_sync_get_io_descriptor+0x28>)
    12fa:	4798      	blx	r3
    12fc:	340c      	adds	r4, #12
    12fe:	602c      	str	r4, [r5, #0]
    1300:	2000      	movs	r0, #0
    1302:	bd38      	pop	{r3, r4, r5, pc}
    1304:	2000      	movs	r0, #0
    1306:	e7f5      	b.n	12f4 <spi_m_sync_get_io_descriptor+0xc>
    1308:	2000      	movs	r0, #0
    130a:	e7f3      	b.n	12f4 <spi_m_sync_get_io_descriptor+0xc>
    130c:	00006318 	.word	0x00006318
    1310:	00001c69 	.word	0x00001c69

00001314 <timer_add_timer_task>:
    1314:	b5f8      	push	{r3, r4, r5, r6, r7, lr}
    1316:	6807      	ldr	r7, [r0, #0]
    1318:	b117      	cbz	r7, 1320 <timer_add_timer_task+0xc>
    131a:	463c      	mov	r4, r7
    131c:	2600      	movs	r6, #0
    131e:	e00b      	b.n	1338 <timer_add_timer_task+0x24>
    1320:	4b0e      	ldr	r3, [pc, #56]	; (135c <timer_add_timer_task+0x48>)
    1322:	4798      	blx	r3
    1324:	bdf8      	pop	{r3, r4, r5, r6, r7, pc}
    1326:	68a5      	ldr	r5, [r4, #8]
    1328:	442b      	add	r3, r5
    132a:	1a9b      	subs	r3, r3, r2
    132c:	3301      	adds	r3, #1
    132e:	688d      	ldr	r5, [r1, #8]
    1330:	42ab      	cmp	r3, r5
    1332:	d209      	bcs.n	1348 <timer_add_timer_task+0x34>
    1334:	4626      	mov	r6, r4
    1336:	6824      	ldr	r4, [r4, #0]
    1338:	b134      	cbz	r4, 1348 <timer_add_timer_task+0x34>
    133a:	6863      	ldr	r3, [r4, #4]
    133c:	4293      	cmp	r3, r2
    133e:	d8f2      	bhi.n	1326 <timer_add_timer_task+0x12>
    1340:	68a5      	ldr	r5, [r4, #8]
    1342:	1a9b      	subs	r3, r3, r2
    1344:	442b      	add	r3, r5
    1346:	e7f2      	b.n	132e <timer_add_timer_task+0x1a>
    1348:	42bc      	cmp	r4, r7
    134a:	d003      	beq.n	1354 <timer_add_timer_task+0x40>
    134c:	4630      	mov	r0, r6
    134e:	4b04      	ldr	r3, [pc, #16]	; (1360 <timer_add_timer_task+0x4c>)
    1350:	4798      	blx	r3
    1352:	bdf8      	pop	{r3, r4, r5, r6, r7, pc}
    1354:	4b01      	ldr	r3, [pc, #4]	; (135c <timer_add_timer_task+0x48>)
    1356:	4798      	blx	r3
    1358:	bdf8      	pop	{r3, r4, r5, r6, r7, pc}
    135a:	bf00      	nop
    135c:	00001c85 	.word	0x00001c85
    1360:	00001cb1 	.word	0x00001cb1

00001364 <timer_process_counted>:
    1364:	b5f8      	push	{r3, r4, r5, r6, r7, lr}
    1366:	6944      	ldr	r4, [r0, #20]
    1368:	6906      	ldr	r6, [r0, #16]
    136a:	3601      	adds	r6, #1
    136c:	6106      	str	r6, [r0, #16]
    136e:	7e03      	ldrb	r3, [r0, #24]
    1370:	f013 0f01 	tst.w	r3, #1
    1374:	d105      	bne.n	1382 <timer_process_counted+0x1e>
    1376:	7e03      	ldrb	r3, [r0, #24]
    1378:	f013 0f02 	tst.w	r3, #2
    137c:	d101      	bne.n	1382 <timer_process_counted+0x1e>
    137e:	4605      	mov	r5, r0
    1380:	e009      	b.n	1396 <timer_process_counted+0x32>
    1382:	7e03      	ldrb	r3, [r0, #24]
    1384:	f043 0302 	orr.w	r3, r3, #2
    1388:	7603      	strb	r3, [r0, #24]
    138a:	bdf8      	pop	{r3, r4, r5, r6, r7, pc}
    138c:	696f      	ldr	r7, [r5, #20]
    138e:	68e3      	ldr	r3, [r4, #12]
    1390:	4620      	mov	r0, r4
    1392:	4798      	blx	r3
    1394:	463c      	mov	r4, r7
    1396:	b19c      	cbz	r4, 13c0 <timer_process_counted+0x5c>
    1398:	6863      	ldr	r3, [r4, #4]
    139a:	1af3      	subs	r3, r6, r3
    139c:	68a2      	ldr	r2, [r4, #8]
    139e:	4293      	cmp	r3, r2
    13a0:	d30e      	bcc.n	13c0 <timer_process_counted+0x5c>
    13a2:	f105 0714 	add.w	r7, r5, #20
    13a6:	4638      	mov	r0, r7
    13a8:	4b06      	ldr	r3, [pc, #24]	; (13c4 <timer_process_counted+0x60>)
    13aa:	4798      	blx	r3
    13ac:	7c23      	ldrb	r3, [r4, #16]
    13ae:	2b01      	cmp	r3, #1
    13b0:	d1ec      	bne.n	138c <timer_process_counted+0x28>
    13b2:	6066      	str	r6, [r4, #4]
    13b4:	4632      	mov	r2, r6
    13b6:	4621      	mov	r1, r4
    13b8:	4638      	mov	r0, r7
    13ba:	4b03      	ldr	r3, [pc, #12]	; (13c8 <timer_process_counted+0x64>)
    13bc:	4798      	blx	r3
    13be:	e7e5      	b.n	138c <timer_process_counted+0x28>
    13c0:	bdf8      	pop	{r3, r4, r5, r6, r7, pc}
    13c2:	bf00      	nop
    13c4:	00001cf9 	.word	0x00001cf9
    13c8:	00001315 	.word	0x00001315

000013cc <timer_init>:
    13cc:	b538      	push	{r3, r4, r5, lr}
    13ce:	460d      	mov	r5, r1
    13d0:	4604      	mov	r4, r0
    13d2:	b180      	cbz	r0, 13f6 <timer_init+0x2a>
    13d4:	b169      	cbz	r1, 13f2 <timer_init+0x26>
    13d6:	2001      	movs	r0, #1
    13d8:	223b      	movs	r2, #59	; 0x3b
    13da:	4908      	ldr	r1, [pc, #32]	; (13fc <timer_init+0x30>)
    13dc:	4b08      	ldr	r3, [pc, #32]	; (1400 <timer_init+0x34>)
    13de:	4798      	blx	r3
    13e0:	4629      	mov	r1, r5
    13e2:	4620      	mov	r0, r4
    13e4:	4b07      	ldr	r3, [pc, #28]	; (1404 <timer_init+0x38>)
    13e6:	4798      	blx	r3
    13e8:	2000      	movs	r0, #0
    13ea:	6120      	str	r0, [r4, #16]
    13ec:	4b06      	ldr	r3, [pc, #24]	; (1408 <timer_init+0x3c>)
    13ee:	6023      	str	r3, [r4, #0]
    13f0:	bd38      	pop	{r3, r4, r5, pc}
    13f2:	2000      	movs	r0, #0
    13f4:	e7f0      	b.n	13d8 <timer_init+0xc>
    13f6:	2000      	movs	r0, #0
    13f8:	e7ee      	b.n	13d8 <timer_init+0xc>
    13fa:	bf00      	nop
    13fc:	00006334 	.word	0x00006334
    1400:	00001c69 	.word	0x00001c69
    1404:	0000268d 	.word	0x0000268d
    1408:	00001365 	.word	0x00001365

0000140c <usart_transmission_complete>:
    140c:	b508      	push	{r3, lr}
    140e:	2300      	movs	r3, #0
    1410:	6283      	str	r3, [r0, #40]	; 0x28
    1412:	69c3      	ldr	r3, [r0, #28]
    1414:	b11b      	cbz	r3, 141e <usart_transmission_complete+0x12>
    1416:	f1a0 0208 	sub.w	r2, r0, #8
    141a:	4610      	mov	r0, r2
    141c:	4798      	blx	r3
    141e:	bd08      	pop	{r3, pc}

00001420 <usart_error>:
    1420:	b508      	push	{r3, lr}
    1422:	2300      	movs	r3, #0
    1424:	6283      	str	r3, [r0, #40]	; 0x28
    1426:	6a43      	ldr	r3, [r0, #36]	; 0x24
    1428:	b11b      	cbz	r3, 1432 <usart_error+0x12>
    142a:	f1a0 0208 	sub.w	r2, r0, #8
    142e:	4610      	mov	r0, r2
    1430:	4798      	blx	r3
    1432:	bd08      	pop	{r3, pc}

00001434 <usart_fill_rx_buffer>:
    1434:	b538      	push	{r3, r4, r5, lr}
    1436:	4604      	mov	r4, r0
    1438:	f1a0 0508 	sub.w	r5, r0, #8
    143c:	302c      	adds	r0, #44	; 0x2c
    143e:	4b03      	ldr	r3, [pc, #12]	; (144c <usart_fill_rx_buffer+0x18>)
    1440:	4798      	blx	r3
    1442:	6a23      	ldr	r3, [r4, #32]
    1444:	b10b      	cbz	r3, 144a <usart_fill_rx_buffer+0x16>
    1446:	4628      	mov	r0, r5
    1448:	4798      	blx	r3
    144a:	bd38      	pop	{r3, r4, r5, pc}
    144c:	00001d95 	.word	0x00001d95

00001450 <usart_async_write>:
    1450:	b570      	push	{r4, r5, r6, lr}
    1452:	460e      	mov	r6, r1
    1454:	4615      	mov	r5, r2
    1456:	4604      	mov	r4, r0
    1458:	b1d8      	cbz	r0, 1492 <usart_async_write+0x42>
    145a:	b1e1      	cbz	r1, 1496 <usart_async_write+0x46>
    145c:	b9ea      	cbnz	r2, 149a <usart_async_write+0x4a>
    145e:	2000      	movs	r0, #0
    1460:	f240 123b 	movw	r2, #315	; 0x13b
    1464:	490f      	ldr	r1, [pc, #60]	; (14a4 <usart_async_write+0x54>)
    1466:	4b10      	ldr	r3, [pc, #64]	; (14a8 <usart_async_write+0x58>)
    1468:	4798      	blx	r3
    146a:	f8b4 2044 	ldrh.w	r2, [r4, #68]	; 0x44
    146e:	f8b4 304c 	ldrh.w	r3, [r4, #76]	; 0x4c
    1472:	429a      	cmp	r2, r3
    1474:	d113      	bne.n	149e <usart_async_write+0x4e>
    1476:	64a6      	str	r6, [r4, #72]	; 0x48
    1478:	f8a4 504c 	strh.w	r5, [r4, #76]	; 0x4c
    147c:	2300      	movs	r3, #0
    147e:	f8a4 3044 	strh.w	r3, [r4, #68]	; 0x44
    1482:	2301      	movs	r3, #1
    1484:	6323      	str	r3, [r4, #48]	; 0x30
    1486:	f104 0008 	add.w	r0, r4, #8
    148a:	4b08      	ldr	r3, [pc, #32]	; (14ac <usart_async_write+0x5c>)
    148c:	4798      	blx	r3
    148e:	4628      	mov	r0, r5
    1490:	bd70      	pop	{r4, r5, r6, pc}
    1492:	2000      	movs	r0, #0
    1494:	e7e4      	b.n	1460 <usart_async_write+0x10>
    1496:	2000      	movs	r0, #0
    1498:	e7e2      	b.n	1460 <usart_async_write+0x10>
    149a:	2001      	movs	r0, #1
    149c:	e7e0      	b.n	1460 <usart_async_write+0x10>
    149e:	f06f 001b 	mvn.w	r0, #27
    14a2:	bd70      	pop	{r4, r5, r6, pc}
    14a4:	0000634c 	.word	0x0000634c
    14a8:	00001c69 	.word	0x00001c69
    14ac:	00002dab 	.word	0x00002dab

000014b0 <usart_process_byte_sent>:
    14b0:	b510      	push	{r4, lr}
    14b2:	4604      	mov	r4, r0
    14b4:	8f83      	ldrh	r3, [r0, #60]	; 0x3c
    14b6:	f8b0 2044 	ldrh.w	r2, [r0, #68]	; 0x44
    14ba:	4293      	cmp	r3, r2
    14bc:	d009      	beq.n	14d2 <usart_process_byte_sent+0x22>
    14be:	6c02      	ldr	r2, [r0, #64]	; 0x40
    14c0:	1c59      	adds	r1, r3, #1
    14c2:	8781      	strh	r1, [r0, #60]	; 0x3c
    14c4:	5cd1      	ldrb	r1, [r2, r3]
    14c6:	4b04      	ldr	r3, [pc, #16]	; (14d8 <usart_process_byte_sent+0x28>)
    14c8:	4798      	blx	r3
    14ca:	4620      	mov	r0, r4
    14cc:	4b03      	ldr	r3, [pc, #12]	; (14dc <usart_process_byte_sent+0x2c>)
    14ce:	4798      	blx	r3
    14d0:	bd10      	pop	{r4, pc}
    14d2:	4b03      	ldr	r3, [pc, #12]	; (14e0 <usart_process_byte_sent+0x30>)
    14d4:	4798      	blx	r3
    14d6:	bd10      	pop	{r4, pc}
    14d8:	00002da5 	.word	0x00002da5
    14dc:	00002dab 	.word	0x00002dab
    14e0:	00002db3 	.word	0x00002db3

000014e4 <usart_async_read>:
    14e4:	e92d 41f0 	stmdb	sp!, {r4, r5, r6, r7, r8, lr}
    14e8:	b082      	sub	sp, #8
    14ea:	4688      	mov	r8, r1
    14ec:	4616      	mov	r6, r2
    14ee:	4605      	mov	r5, r0
    14f0:	b1a0      	cbz	r0, 151c <usart_async_read+0x38>
    14f2:	b1a9      	cbz	r1, 1520 <usart_async_read+0x3c>
    14f4:	b9b2      	cbnz	r2, 1524 <usart_async_read+0x40>
    14f6:	2000      	movs	r0, #0
    14f8:	f44f 72ac 	mov.w	r2, #344	; 0x158
    14fc:	4912      	ldr	r1, [pc, #72]	; (1548 <usart_async_read+0x64>)
    14fe:	4b13      	ldr	r3, [pc, #76]	; (154c <usart_async_read+0x68>)
    1500:	4798      	blx	r3
    1502:	a801      	add	r0, sp, #4
    1504:	4b12      	ldr	r3, [pc, #72]	; (1550 <usart_async_read+0x6c>)
    1506:	4798      	blx	r3
    1508:	3534      	adds	r5, #52	; 0x34
    150a:	4628      	mov	r0, r5
    150c:	4b11      	ldr	r3, [pc, #68]	; (1554 <usart_async_read+0x70>)
    150e:	4798      	blx	r3
    1510:	4607      	mov	r7, r0
    1512:	a801      	add	r0, sp, #4
    1514:	4b10      	ldr	r3, [pc, #64]	; (1558 <usart_async_read+0x74>)
    1516:	4798      	blx	r3
    1518:	2400      	movs	r4, #0
    151a:	e00b      	b.n	1534 <usart_async_read+0x50>
    151c:	2000      	movs	r0, #0
    151e:	e7eb      	b.n	14f8 <usart_async_read+0x14>
    1520:	2000      	movs	r0, #0
    1522:	e7e9      	b.n	14f8 <usart_async_read+0x14>
    1524:	2001      	movs	r0, #1
    1526:	e7e7      	b.n	14f8 <usart_async_read+0x14>
    1528:	3401      	adds	r4, #1
    152a:	b2a4      	uxth	r4, r4
    152c:	4441      	add	r1, r8
    152e:	4628      	mov	r0, r5
    1530:	4b0a      	ldr	r3, [pc, #40]	; (155c <usart_async_read+0x78>)
    1532:	4798      	blx	r3
    1534:	4621      	mov	r1, r4
    1536:	42a7      	cmp	r7, r4
    1538:	d901      	bls.n	153e <usart_async_read+0x5a>
    153a:	42b4      	cmp	r4, r6
    153c:	d3f4      	bcc.n	1528 <usart_async_read+0x44>
    153e:	4620      	mov	r0, r4
    1540:	b002      	add	sp, #8
    1542:	e8bd 81f0 	ldmia.w	sp!, {r4, r5, r6, r7, r8, pc}
    1546:	bf00      	nop
    1548:	0000634c 	.word	0x0000634c
    154c:	00001c69 	.word	0x00001c69
    1550:	00000e51 	.word	0x00000e51
    1554:	00001dd5 	.word	0x00001dd5
    1558:	00000e5f 	.word	0x00000e5f
    155c:	00001d4d 	.word	0x00001d4d

00001560 <usart_async_init>:
    1560:	b5f8      	push	{r3, r4, r5, r6, r7, lr}
    1562:	460d      	mov	r5, r1
    1564:	4616      	mov	r6, r2
    1566:	461f      	mov	r7, r3
    1568:	4604      	mov	r4, r0
    156a:	b318      	cbz	r0, 15b4 <usart_async_init+0x54>
    156c:	b321      	cbz	r1, 15b8 <usart_async_init+0x58>
    156e:	b32a      	cbz	r2, 15bc <usart_async_init+0x5c>
    1570:	bb33      	cbnz	r3, 15c0 <usart_async_init+0x60>
    1572:	2000      	movs	r0, #0
    1574:	223a      	movs	r2, #58	; 0x3a
    1576:	4915      	ldr	r1, [pc, #84]	; (15cc <usart_async_init+0x6c>)
    1578:	4b15      	ldr	r3, [pc, #84]	; (15d0 <usart_async_init+0x70>)
    157a:	4798      	blx	r3
    157c:	463a      	mov	r2, r7
    157e:	4631      	mov	r1, r6
    1580:	f104 0034 	add.w	r0, r4, #52	; 0x34
    1584:	4b13      	ldr	r3, [pc, #76]	; (15d4 <usart_async_init+0x74>)
    1586:	4798      	blx	r3
    1588:	b9e0      	cbnz	r0, 15c4 <usart_async_init+0x64>
    158a:	4629      	mov	r1, r5
    158c:	f104 0008 	add.w	r0, r4, #8
    1590:	4b11      	ldr	r3, [pc, #68]	; (15d8 <usart_async_init+0x78>)
    1592:	4798      	blx	r3
    1594:	4603      	mov	r3, r0
    1596:	b958      	cbnz	r0, 15b0 <usart_async_init+0x50>
    1598:	4a10      	ldr	r2, [pc, #64]	; (15dc <usart_async_init+0x7c>)
    159a:	6062      	str	r2, [r4, #4]
    159c:	4a10      	ldr	r2, [pc, #64]	; (15e0 <usart_async_init+0x80>)
    159e:	6022      	str	r2, [r4, #0]
    15a0:	4a10      	ldr	r2, [pc, #64]	; (15e4 <usart_async_init+0x84>)
    15a2:	60a2      	str	r2, [r4, #8]
    15a4:	4a10      	ldr	r2, [pc, #64]	; (15e8 <usart_async_init+0x88>)
    15a6:	60e2      	str	r2, [r4, #12]
    15a8:	4a10      	ldr	r2, [pc, #64]	; (15ec <usart_async_init+0x8c>)
    15aa:	6122      	str	r2, [r4, #16]
    15ac:	4a10      	ldr	r2, [pc, #64]	; (15f0 <usart_async_init+0x90>)
    15ae:	6162      	str	r2, [r4, #20]
    15b0:	4618      	mov	r0, r3
    15b2:	bdf8      	pop	{r3, r4, r5, r6, r7, pc}
    15b4:	2000      	movs	r0, #0
    15b6:	e7dd      	b.n	1574 <usart_async_init+0x14>
    15b8:	2000      	movs	r0, #0
    15ba:	e7db      	b.n	1574 <usart_async_init+0x14>
    15bc:	2000      	movs	r0, #0
    15be:	e7d9      	b.n	1574 <usart_async_init+0x14>
    15c0:	2001      	movs	r0, #1
    15c2:	e7d7      	b.n	1574 <usart_async_init+0x14>
    15c4:	f06f 030c 	mvn.w	r3, #12
    15c8:	e7f2      	b.n	15b0 <usart_async_init+0x50>
    15ca:	bf00      	nop
    15cc:	0000634c 	.word	0x0000634c
    15d0:	00001c69 	.word	0x00001c69
    15d4:	00001d09 	.word	0x00001d09
    15d8:	00002d0d 	.word	0x00002d0d
    15dc:	000014e5 	.word	0x000014e5
    15e0:	00001451 	.word	0x00001451
    15e4:	000014b1 	.word	0x000014b1
    15e8:	00001435 	.word	0x00001435
    15ec:	0000140d 	.word	0x0000140d
    15f0:	00001421 	.word	0x00001421

000015f4 <usart_async_enable>:
    15f4:	b510      	push	{r4, lr}
    15f6:	4604      	mov	r4, r0
    15f8:	2261      	movs	r2, #97	; 0x61
    15fa:	4906      	ldr	r1, [pc, #24]	; (1614 <usart_async_enable+0x20>)
    15fc:	3000      	adds	r0, #0
    15fe:	bf18      	it	ne
    1600:	2001      	movne	r0, #1
    1602:	4b05      	ldr	r3, [pc, #20]	; (1618 <usart_async_enable+0x24>)
    1604:	4798      	blx	r3
    1606:	f104 0008 	add.w	r0, r4, #8
    160a:	4b04      	ldr	r3, [pc, #16]	; (161c <usart_async_enable+0x28>)
    160c:	4798      	blx	r3
    160e:	2000      	movs	r0, #0
    1610:	bd10      	pop	{r4, pc}
    1612:	bf00      	nop
    1614:	0000634c 	.word	0x0000634c
    1618:	00001c69 	.word	0x00001c69
    161c:	00002d91 	.word	0x00002d91

00001620 <usart_async_get_io_descriptor>:
    1620:	b538      	push	{r3, r4, r5, lr}
    1622:	460c      	mov	r4, r1
    1624:	4605      	mov	r5, r0
    1626:	b150      	cbz	r0, 163e <usart_async_get_io_descriptor+0x1e>
    1628:	b139      	cbz	r1, 163a <usart_async_get_io_descriptor+0x1a>
    162a:	2001      	movs	r0, #1
    162c:	2277      	movs	r2, #119	; 0x77
    162e:	4905      	ldr	r1, [pc, #20]	; (1644 <usart_async_get_io_descriptor+0x24>)
    1630:	4b05      	ldr	r3, [pc, #20]	; (1648 <usart_async_get_io_descriptor+0x28>)
    1632:	4798      	blx	r3
    1634:	6025      	str	r5, [r4, #0]
    1636:	2000      	movs	r0, #0
    1638:	bd38      	pop	{r3, r4, r5, pc}
    163a:	2000      	movs	r0, #0
    163c:	e7f6      	b.n	162c <usart_async_get_io_descriptor+0xc>
    163e:	2000      	movs	r0, #0
    1640:	e7f4      	b.n	162c <usart_async_get_io_descriptor+0xc>
    1642:	bf00      	nop
    1644:	0000634c 	.word	0x0000634c
    1648:	00001c69 	.word	0x00001c69

0000164c <usart_async_register_callback>:
    164c:	b570      	push	{r4, r5, r6, lr}
    164e:	460c      	mov	r4, r1
    1650:	4616      	mov	r6, r2
    1652:	4605      	mov	r5, r0
    1654:	2283      	movs	r2, #131	; 0x83
    1656:	4917      	ldr	r1, [pc, #92]	; (16b4 <usart_async_register_callback+0x68>)
    1658:	3000      	adds	r0, #0
    165a:	bf18      	it	ne
    165c:	2001      	movne	r0, #1
    165e:	4b16      	ldr	r3, [pc, #88]	; (16b8 <usart_async_register_callback+0x6c>)
    1660:	4798      	blx	r3
    1662:	2c01      	cmp	r4, #1
    1664:	d010      	beq.n	1688 <usart_async_register_callback+0x3c>
    1666:	b124      	cbz	r4, 1672 <usart_async_register_callback+0x26>
    1668:	2c02      	cmp	r4, #2
    166a:	d018      	beq.n	169e <usart_async_register_callback+0x52>
    166c:	f06f 000c 	mvn.w	r0, #12
    1670:	bd70      	pop	{r4, r5, r6, pc}
    1672:	62ae      	str	r6, [r5, #40]	; 0x28
    1674:	1c32      	adds	r2, r6, #0
    1676:	bf18      	it	ne
    1678:	2201      	movne	r2, #1
    167a:	2101      	movs	r1, #1
    167c:	f105 0008 	add.w	r0, r5, #8
    1680:	4b0e      	ldr	r3, [pc, #56]	; (16bc <usart_async_register_callback+0x70>)
    1682:	4798      	blx	r3
    1684:	2000      	movs	r0, #0
    1686:	bd70      	pop	{r4, r5, r6, pc}
    1688:	626e      	str	r6, [r5, #36]	; 0x24
    168a:	1c32      	adds	r2, r6, #0
    168c:	bf18      	it	ne
    168e:	2201      	movne	r2, #1
    1690:	2102      	movs	r1, #2
    1692:	f105 0008 	add.w	r0, r5, #8
    1696:	4b09      	ldr	r3, [pc, #36]	; (16bc <usart_async_register_callback+0x70>)
    1698:	4798      	blx	r3
    169a:	2000      	movs	r0, #0
    169c:	bd70      	pop	{r4, r5, r6, pc}
    169e:	62ee      	str	r6, [r5, #44]	; 0x2c
    16a0:	1c32      	adds	r2, r6, #0
    16a2:	bf18      	it	ne
    16a4:	2201      	movne	r2, #1
    16a6:	2103      	movs	r1, #3
    16a8:	f105 0008 	add.w	r0, r5, #8
    16ac:	4b03      	ldr	r3, [pc, #12]	; (16bc <usart_async_register_callback+0x70>)
    16ae:	4798      	blx	r3
    16b0:	2000      	movs	r0, #0
    16b2:	bd70      	pop	{r4, r5, r6, pc}
    16b4:	0000634c 	.word	0x0000634c
    16b8:	00001c69 	.word	0x00001c69
    16bc:	00002dbd 	.word	0x00002dbd

000016c0 <_usb_d_find_ep>:
    16c0:	2300      	movs	r3, #0
    16c2:	2b03      	cmp	r3, #3
    16c4:	dc21      	bgt.n	170a <_usb_d_find_ep+0x4a>
    16c6:	4a13      	ldr	r2, [pc, #76]	; (1714 <_usb_d_find_ep+0x54>)
    16c8:	eb02 1243 	add.w	r2, r2, r3, lsl #5
    16cc:	7851      	ldrb	r1, [r2, #1]
    16ce:	4281      	cmp	r1, r0
    16d0:	d01d      	beq.n	170e <_usb_d_find_ep+0x4e>
    16d2:	b410      	push	{r4}
    16d4:	e009      	b.n	16ea <_usb_d_find_ep+0x2a>
    16d6:	3301      	adds	r3, #1
    16d8:	b25b      	sxtb	r3, r3
    16da:	2b03      	cmp	r3, #3
    16dc:	dc0f      	bgt.n	16fe <_usb_d_find_ep+0x3e>
    16de:	4a0d      	ldr	r2, [pc, #52]	; (1714 <_usb_d_find_ep+0x54>)
    16e0:	eb02 1243 	add.w	r2, r2, r3, lsl #5
    16e4:	7851      	ldrb	r1, [r2, #1]
    16e6:	4281      	cmp	r1, r0
    16e8:	d00b      	beq.n	1702 <_usb_d_find_ep+0x42>
    16ea:	015a      	lsls	r2, r3, #5
    16ec:	4c09      	ldr	r4, [pc, #36]	; (1714 <_usb_d_find_ep+0x54>)
    16ee:	5ca2      	ldrb	r2, [r4, r2]
    16f0:	2a00      	cmp	r2, #0
    16f2:	d1f0      	bne.n	16d6 <_usb_d_find_ep+0x16>
    16f4:	f000 020f 	and.w	r2, r0, #15
    16f8:	428a      	cmp	r2, r1
    16fa:	d1ec      	bne.n	16d6 <_usb_d_find_ep+0x16>
    16fc:	e001      	b.n	1702 <_usb_d_find_ep+0x42>
    16fe:	f04f 33ff 	mov.w	r3, #4294967295
    1702:	4618      	mov	r0, r3
    1704:	f85d 4b04 	ldr.w	r4, [sp], #4
    1708:	4770      	bx	lr
    170a:	f04f 33ff 	mov.w	r3, #4294967295
    170e:	4618      	mov	r0, r3
    1710:	4770      	bx	lr
    1712:	bf00      	nop
    1714:	20000138 	.word	0x20000138

00001718 <usb_d_dummy_cb_false>:
    1718:	2000      	movs	r0, #0
    171a:	4770      	bx	lr

0000171c <usb_d_cb_trans_more>:
    171c:	b538      	push	{r3, r4, r5, lr}
    171e:	4604      	mov	r4, r0
    1720:	460d      	mov	r5, r1
    1722:	4b09      	ldr	r3, [pc, #36]	; (1748 <usb_d_cb_trans_more+0x2c>)
    1724:	4798      	blx	r3
    1726:	4b09      	ldr	r3, [pc, #36]	; (174c <usb_d_cb_trans_more+0x30>)
    1728:	eb03 1340 	add.w	r3, r3, r0, lsl #5
    172c:	789b      	ldrb	r3, [r3, #2]
    172e:	2b03      	cmp	r3, #3
    1730:	d001      	beq.n	1736 <usb_d_cb_trans_more+0x1a>
    1732:	2000      	movs	r0, #0
    1734:	bd38      	pop	{r3, r4, r5, pc}
    1736:	4b05      	ldr	r3, [pc, #20]	; (174c <usb_d_cb_trans_more+0x30>)
    1738:	eb03 1040 	add.w	r0, r3, r0, lsl #5
    173c:	6983      	ldr	r3, [r0, #24]
    173e:	4629      	mov	r1, r5
    1740:	4620      	mov	r0, r4
    1742:	4798      	blx	r3
    1744:	bd38      	pop	{r3, r4, r5, pc}
    1746:	bf00      	nop
    1748:	000016c1 	.word	0x000016c1
    174c:	20000138 	.word	0x20000138

00001750 <_usb_d_cb_trans_done>:
    1750:	e92d 41f0 	stmdb	sp!, {r4, r5, r6, r7, r8, lr}
    1754:	b084      	sub	sp, #16
    1756:	4607      	mov	r7, r0
    1758:	460d      	mov	r5, r1
    175a:	4690      	mov	r8, r2
    175c:	4b48      	ldr	r3, [pc, #288]	; (1880 <_usb_d_cb_trans_done+0x130>)
    175e:	4798      	blx	r3
    1760:	4604      	mov	r4, r0
    1762:	4e48      	ldr	r6, [pc, #288]	; (1884 <_usb_d_cb_trans_done+0x134>)
    1764:	eb06 1640 	add.w	r6, r6, r0, lsl #5
    1768:	2d00      	cmp	r5, #0
    176a:	d14f      	bne.n	180c <_usb_d_cb_trans_done+0xbc>
    176c:	4a45      	ldr	r2, [pc, #276]	; (1884 <_usb_d_cb_trans_done+0x134>)
    176e:	0143      	lsls	r3, r0, #5
    1770:	2000      	movs	r0, #0
    1772:	70f0      	strb	r0, [r6, #3]
    1774:	5cd3      	ldrb	r3, [r2, r3]
    1776:	b17b      	cbz	r3, 1798 <_usb_d_cb_trans_done+0x48>
    1778:	4b42      	ldr	r3, [pc, #264]	; (1884 <_usb_d_cb_trans_done+0x134>)
    177a:	eb03 1344 	add.w	r3, r3, r4, lsl #5
    177e:	2201      	movs	r2, #1
    1780:	709a      	strb	r2, [r3, #2]
    1782:	4b40      	ldr	r3, [pc, #256]	; (1884 <_usb_d_cb_trans_done+0x134>)
    1784:	eb03 1444 	add.w	r4, r3, r4, lsl #5
    1788:	69e3      	ldr	r3, [r4, #28]
    178a:	4642      	mov	r2, r8
    178c:	78e1      	ldrb	r1, [r4, #3]
    178e:	4638      	mov	r0, r7
    1790:	4798      	blx	r3
    1792:	b004      	add	sp, #16
    1794:	e8bd 81f0 	ldmia.w	sp!, {r4, r5, r6, r7, r8, pc}
    1798:	78b3      	ldrb	r3, [r6, #2]
    179a:	f996 400c 	ldrsb.w	r4, [r6, #12]
    179e:	2b03      	cmp	r3, #3
    17a0:	d008      	beq.n	17b4 <_usb_d_cb_trans_done+0x64>
    17a2:	69f3      	ldr	r3, [r6, #28]
    17a4:	f106 020c 	add.w	r2, r6, #12
    17a8:	2100      	movs	r1, #0
    17aa:	7870      	ldrb	r0, [r6, #1]
    17ac:	4798      	blx	r3
    17ae:	2302      	movs	r3, #2
    17b0:	70b3      	strb	r3, [r6, #2]
    17b2:	e7ee      	b.n	1792 <_usb_d_cb_trans_done+0x42>
    17b4:	69f3      	ldr	r3, [r6, #28]
    17b6:	f106 020c 	add.w	r2, r6, #12
    17ba:	2101      	movs	r1, #1
    17bc:	7870      	ldrb	r0, [r6, #1]
    17be:	4798      	blx	r3
    17c0:	b170      	cbz	r0, 17e0 <_usb_d_cb_trans_done+0x90>
    17c2:	2305      	movs	r3, #5
    17c4:	70b3      	strb	r3, [r6, #2]
    17c6:	2302      	movs	r3, #2
    17c8:	70f3      	strb	r3, [r6, #3]
    17ca:	2c00      	cmp	r4, #0
    17cc:	db06      	blt.n	17dc <_usb_d_cb_trans_done+0x8c>
    17ce:	7870      	ldrb	r0, [r6, #1]
    17d0:	f040 0080 	orr.w	r0, r0, #128	; 0x80
    17d4:	2101      	movs	r1, #1
    17d6:	4b2c      	ldr	r3, [pc, #176]	; (1888 <_usb_d_cb_trans_done+0x138>)
    17d8:	4798      	blx	r3
    17da:	e7da      	b.n	1792 <_usb_d_cb_trans_done+0x42>
    17dc:	7870      	ldrb	r0, [r6, #1]
    17de:	e7f9      	b.n	17d4 <_usb_d_cb_trans_done+0x84>
    17e0:	2304      	movs	r3, #4
    17e2:	70b3      	strb	r3, [r6, #2]
    17e4:	7873      	ldrb	r3, [r6, #1]
    17e6:	2200      	movs	r2, #0
    17e8:	9201      	str	r2, [sp, #4]
    17ea:	9202      	str	r2, [sp, #8]
    17ec:	4294      	cmp	r4, r2
    17ee:	db0a      	blt.n	1806 <_usb_d_cb_trans_done+0xb6>
    17f0:	f043 0380 	orr.w	r3, r3, #128	; 0x80
    17f4:	f88d 300c 	strb.w	r3, [sp, #12]
    17f8:	2301      	movs	r3, #1
    17fa:	f88d 300d 	strb.w	r3, [sp, #13]
    17fe:	a801      	add	r0, sp, #4
    1800:	4b22      	ldr	r3, [pc, #136]	; (188c <_usb_d_cb_trans_done+0x13c>)
    1802:	4798      	blx	r3
    1804:	e7c5      	b.n	1792 <_usb_d_cb_trans_done+0x42>
    1806:	f003 030f 	and.w	r3, r3, #15
    180a:	e7f3      	b.n	17f4 <_usb_d_cb_trans_done+0xa4>
    180c:	2d01      	cmp	r5, #1
    180e:	d00a      	beq.n	1826 <_usb_d_cb_trans_done+0xd6>
    1810:	2d02      	cmp	r5, #2
    1812:	d01c      	beq.n	184e <_usb_d_cb_trans_done+0xfe>
    1814:	2d03      	cmp	r5, #3
    1816:	d02a      	beq.n	186e <_usb_d_cb_trans_done+0x11e>
    1818:	4b1a      	ldr	r3, [pc, #104]	; (1884 <_usb_d_cb_trans_done+0x134>)
    181a:	eb03 1340 	add.w	r3, r3, r0, lsl #5
    181e:	2206      	movs	r2, #6
    1820:	709a      	strb	r2, [r3, #2]
    1822:	70da      	strb	r2, [r3, #3]
    1824:	e7ad      	b.n	1782 <_usb_d_cb_trans_done+0x32>
    1826:	4a17      	ldr	r2, [pc, #92]	; (1884 <_usb_d_cb_trans_done+0x134>)
    1828:	0143      	lsls	r3, r0, #5
    182a:	18d1      	adds	r1, r2, r3
    182c:	2002      	movs	r0, #2
    182e:	70c8      	strb	r0, [r1, #3]
    1830:	5cd3      	ldrb	r3, [r2, r3]
    1832:	b12b      	cbz	r3, 1840 <_usb_d_cb_trans_done+0xf0>
    1834:	4b13      	ldr	r3, [pc, #76]	; (1884 <_usb_d_cb_trans_done+0x134>)
    1836:	eb03 1344 	add.w	r3, r3, r4, lsl #5
    183a:	2205      	movs	r2, #5
    183c:	709a      	strb	r2, [r3, #2]
    183e:	e7a0      	b.n	1782 <_usb_d_cb_trans_done+0x32>
    1840:	460b      	mov	r3, r1
    1842:	7098      	strb	r0, [r3, #2]
    1844:	2100      	movs	r1, #0
    1846:	4638      	mov	r0, r7
    1848:	4b0f      	ldr	r3, [pc, #60]	; (1888 <_usb_d_cb_trans_done+0x138>)
    184a:	4798      	blx	r3
    184c:	e799      	b.n	1782 <_usb_d_cb_trans_done+0x32>
    184e:	4a0d      	ldr	r2, [pc, #52]	; (1884 <_usb_d_cb_trans_done+0x134>)
    1850:	0143      	lsls	r3, r0, #5
    1852:	18d1      	adds	r1, r2, r3
    1854:	2004      	movs	r0, #4
    1856:	70c8      	strb	r0, [r1, #3]
    1858:	5cd3      	ldrb	r3, [r2, r3]
    185a:	b12b      	cbz	r3, 1868 <_usb_d_cb_trans_done+0x118>
    185c:	4b09      	ldr	r3, [pc, #36]	; (1884 <_usb_d_cb_trans_done+0x134>)
    185e:	eb03 1344 	add.w	r3, r3, r4, lsl #5
    1862:	2201      	movs	r2, #1
    1864:	709a      	strb	r2, [r3, #2]
    1866:	e78c      	b.n	1782 <_usb_d_cb_trans_done+0x32>
    1868:	2302      	movs	r3, #2
    186a:	708b      	strb	r3, [r1, #2]
    186c:	e791      	b.n	1792 <_usb_d_cb_trans_done+0x42>
    186e:	4b05      	ldr	r3, [pc, #20]	; (1884 <_usb_d_cb_trans_done+0x134>)
    1870:	eb03 1340 	add.w	r3, r3, r0, lsl #5
    1874:	2200      	movs	r2, #0
    1876:	709a      	strb	r2, [r3, #2]
    1878:	2205      	movs	r2, #5
    187a:	70da      	strb	r2, [r3, #3]
    187c:	e781      	b.n	1782 <_usb_d_cb_trans_done+0x32>
    187e:	bf00      	nop
    1880:	000016c1 	.word	0x000016c1
    1884:	20000138 	.word	0x20000138
    1888:	000043fd 	.word	0x000043fd
    188c:	000045b9 	.word	0x000045b9

00001890 <usb_d_cb_trans_setup>:
    1890:	e92d 41f0 	stmdb	sp!, {r4, r5, r6, r7, r8, lr}
    1894:	4605      	mov	r5, r0
    1896:	4b1d      	ldr	r3, [pc, #116]	; (190c <usb_d_cb_trans_setup+0x7c>)
    1898:	4798      	blx	r3
    189a:	4606      	mov	r6, r0
    189c:	0144      	lsls	r4, r0, #5
    189e:	f104 0308 	add.w	r3, r4, #8
    18a2:	4c1b      	ldr	r4, [pc, #108]	; (1910 <usb_d_cb_trans_setup+0x80>)
    18a4:	441c      	add	r4, r3
    18a6:	3404      	adds	r4, #4
    18a8:	4621      	mov	r1, r4
    18aa:	4628      	mov	r0, r5
    18ac:	4b19      	ldr	r3, [pc, #100]	; (1914 <usb_d_cb_trans_setup+0x84>)
    18ae:	4798      	blx	r3
    18b0:	b2c0      	uxtb	r0, r0
    18b2:	2808      	cmp	r0, #8
    18b4:	d009      	beq.n	18ca <usb_d_cb_trans_setup+0x3a>
    18b6:	2101      	movs	r1, #1
    18b8:	4628      	mov	r0, r5
    18ba:	4c17      	ldr	r4, [pc, #92]	; (1918 <usb_d_cb_trans_setup+0x88>)
    18bc:	47a0      	blx	r4
    18be:	2101      	movs	r1, #1
    18c0:	f045 0080 	orr.w	r0, r5, #128	; 0x80
    18c4:	47a0      	blx	r4
    18c6:	e8bd 81f0 	ldmia.w	sp!, {r4, r5, r6, r7, r8, pc}
    18ca:	2100      	movs	r1, #0
    18cc:	4628      	mov	r0, r5
    18ce:	4f12      	ldr	r7, [pc, #72]	; (1918 <usb_d_cb_trans_setup+0x88>)
    18d0:	47b8      	blx	r7
    18d2:	f045 0880 	orr.w	r8, r5, #128	; 0x80
    18d6:	2100      	movs	r1, #0
    18d8:	4640      	mov	r0, r8
    18da:	47b8      	blx	r7
    18dc:	4b0c      	ldr	r3, [pc, #48]	; (1910 <usb_d_cb_trans_setup+0x80>)
    18de:	eb03 1346 	add.w	r3, r3, r6, lsl #5
    18e2:	2201      	movs	r2, #1
    18e4:	709a      	strb	r2, [r3, #2]
    18e6:	695b      	ldr	r3, [r3, #20]
    18e8:	4621      	mov	r1, r4
    18ea:	4628      	mov	r0, r5
    18ec:	4798      	blx	r3
    18ee:	b108      	cbz	r0, 18f4 <usb_d_cb_trans_setup+0x64>
    18f0:	e8bd 81f0 	ldmia.w	sp!, {r4, r5, r6, r7, r8, pc}
    18f4:	4b06      	ldr	r3, [pc, #24]	; (1910 <usb_d_cb_trans_setup+0x80>)
    18f6:	eb03 1646 	add.w	r6, r3, r6, lsl #5
    18fa:	2305      	movs	r3, #5
    18fc:	70b3      	strb	r3, [r6, #2]
    18fe:	2101      	movs	r1, #1
    1900:	4628      	mov	r0, r5
    1902:	47b8      	blx	r7
    1904:	2101      	movs	r1, #1
    1906:	4640      	mov	r0, r8
    1908:	47b8      	blx	r7
    190a:	e7f1      	b.n	18f0 <usb_d_cb_trans_setup+0x60>
    190c:	000016c1 	.word	0x000016c1
    1910:	20000138 	.word	0x20000138
    1914:	00004545 	.word	0x00004545
    1918:	000043fd 	.word	0x000043fd

0000191c <usb_d_init>:
    191c:	b510      	push	{r4, lr}
    191e:	4b12      	ldr	r3, [pc, #72]	; (1968 <usb_d_init+0x4c>)
    1920:	4798      	blx	r3
    1922:	2800      	cmp	r0, #0
    1924:	db1e      	blt.n	1964 <usb_d_init+0x48>
    1926:	2280      	movs	r2, #128	; 0x80
    1928:	2100      	movs	r1, #0
    192a:	4810      	ldr	r0, [pc, #64]	; (196c <usb_d_init+0x50>)
    192c:	4b10      	ldr	r3, [pc, #64]	; (1970 <usb_d_init+0x54>)
    192e:	4798      	blx	r3
    1930:	2200      	movs	r2, #0
    1932:	e00a      	b.n	194a <usb_d_init+0x2e>
    1934:	4b0d      	ldr	r3, [pc, #52]	; (196c <usb_d_init+0x50>)
    1936:	eb03 1342 	add.w	r3, r3, r2, lsl #5
    193a:	21ff      	movs	r1, #255	; 0xff
    193c:	7059      	strb	r1, [r3, #1]
    193e:	490d      	ldr	r1, [pc, #52]	; (1974 <usb_d_init+0x58>)
    1940:	6159      	str	r1, [r3, #20]
    1942:	6199      	str	r1, [r3, #24]
    1944:	61d9      	str	r1, [r3, #28]
    1946:	3201      	adds	r2, #1
    1948:	b2d2      	uxtb	r2, r2
    194a:	2a03      	cmp	r2, #3
    194c:	d9f2      	bls.n	1934 <usb_d_init+0x18>
    194e:	490a      	ldr	r1, [pc, #40]	; (1978 <usb_d_init+0x5c>)
    1950:	2000      	movs	r0, #0
    1952:	4c0a      	ldr	r4, [pc, #40]	; (197c <usb_d_init+0x60>)
    1954:	47a0      	blx	r4
    1956:	490a      	ldr	r1, [pc, #40]	; (1980 <usb_d_init+0x64>)
    1958:	2001      	movs	r0, #1
    195a:	47a0      	blx	r4
    195c:	4909      	ldr	r1, [pc, #36]	; (1984 <usb_d_init+0x68>)
    195e:	2002      	movs	r0, #2
    1960:	47a0      	blx	r4
    1962:	2000      	movs	r0, #0
    1964:	bd10      	pop	{r4, pc}
    1966:	bf00      	nop
    1968:	00003df9 	.word	0x00003df9
    196c:	20000138 	.word	0x20000138
    1970:	00006207 	.word	0x00006207
    1974:	00001719 	.word	0x00001719
    1978:	00001891 	.word	0x00001891
    197c:	00004791 	.word	0x00004791
    1980:	0000171d 	.word	0x0000171d
    1984:	00001751 	.word	0x00001751

00001988 <usb_d_register_callback>:
    1988:	b508      	push	{r3, lr}
    198a:	4b01      	ldr	r3, [pc, #4]	; (1990 <usb_d_register_callback+0x8>)
    198c:	4798      	blx	r3
    198e:	bd08      	pop	{r3, pc}
    1990:	0000476d 	.word	0x0000476d

00001994 <usb_d_enable>:
    1994:	b508      	push	{r3, lr}
    1996:	4b01      	ldr	r3, [pc, #4]	; (199c <usb_d_enable+0x8>)
    1998:	4798      	blx	r3
    199a:	bd08      	pop	{r3, pc}
    199c:	00003ec1 	.word	0x00003ec1

000019a0 <usb_d_detach>:
    19a0:	b508      	push	{r3, lr}
    19a2:	4b01      	ldr	r3, [pc, #4]	; (19a8 <usb_d_detach+0x8>)
    19a4:	4798      	blx	r3
    19a6:	bd08      	pop	{r3, pc}
    19a8:	00003f31 	.word	0x00003f31

000019ac <usb_d_set_address>:
    19ac:	b508      	push	{r3, lr}
    19ae:	4b01      	ldr	r3, [pc, #4]	; (19b4 <usb_d_set_address+0x8>)
    19b0:	4798      	blx	r3
    19b2:	bd08      	pop	{r3, pc}
    19b4:	00003f41 	.word	0x00003f41

000019b8 <usb_d_ep_init>:
    19b8:	b5f8      	push	{r3, r4, r5, r6, r7, lr}
    19ba:	4606      	mov	r6, r0
    19bc:	460c      	mov	r4, r1
    19be:	4617      	mov	r7, r2
    19c0:	4b0f      	ldr	r3, [pc, #60]	; (1a00 <usb_d_ep_init+0x48>)
    19c2:	4798      	blx	r3
    19c4:	2800      	cmp	r0, #0
    19c6:	da14      	bge.n	19f2 <usb_d_ep_init+0x3a>
    19c8:	20ff      	movs	r0, #255	; 0xff
    19ca:	4b0d      	ldr	r3, [pc, #52]	; (1a00 <usb_d_ep_init+0x48>)
    19cc:	4798      	blx	r3
    19ce:	1e05      	subs	r5, r0, #0
    19d0:	db12      	blt.n	19f8 <usb_d_ep_init+0x40>
    19d2:	463a      	mov	r2, r7
    19d4:	4621      	mov	r1, r4
    19d6:	4630      	mov	r0, r6
    19d8:	4b0a      	ldr	r3, [pc, #40]	; (1a04 <usb_d_ep_init+0x4c>)
    19da:	4798      	blx	r3
    19dc:	2800      	cmp	r0, #0
    19de:	db0d      	blt.n	19fc <usb_d_ep_init+0x44>
    19e0:	4b09      	ldr	r3, [pc, #36]	; (1a08 <usb_d_ep_init+0x50>)
    19e2:	0168      	lsls	r0, r5, #5
    19e4:	181a      	adds	r2, r3, r0
    19e6:	7056      	strb	r6, [r2, #1]
    19e8:	f004 0403 	and.w	r4, r4, #3
    19ec:	541c      	strb	r4, [r3, r0]
    19ee:	2000      	movs	r0, #0
    19f0:	bdf8      	pop	{r3, r4, r5, r6, r7, pc}
    19f2:	f06f 0013 	mvn.w	r0, #19
    19f6:	bdf8      	pop	{r3, r4, r5, r6, r7, pc}
    19f8:	f06f 0014 	mvn.w	r0, #20
    19fc:	bdf8      	pop	{r3, r4, r5, r6, r7, pc}
    19fe:	bf00      	nop
    1a00:	000016c1 	.word	0x000016c1
    1a04:	00003f4d 	.word	0x00003f4d
    1a08:	20000138 	.word	0x20000138

00001a0c <usb_d_ep0_init>:
    1a0c:	b508      	push	{r3, lr}
    1a0e:	4602      	mov	r2, r0
    1a10:	2100      	movs	r1, #0
    1a12:	4608      	mov	r0, r1
    1a14:	4b01      	ldr	r3, [pc, #4]	; (1a1c <usb_d_ep0_init+0x10>)
    1a16:	4798      	blx	r3
    1a18:	bd08      	pop	{r3, pc}
    1a1a:	bf00      	nop
    1a1c:	000019b9 	.word	0x000019b9

00001a20 <usb_d_ep_deinit>:
    1a20:	b538      	push	{r3, r4, r5, lr}
    1a22:	4605      	mov	r5, r0
    1a24:	4b06      	ldr	r3, [pc, #24]	; (1a40 <usb_d_ep_deinit+0x20>)
    1a26:	4798      	blx	r3
    1a28:	1e04      	subs	r4, r0, #0
    1a2a:	db07      	blt.n	1a3c <usb_d_ep_deinit+0x1c>
    1a2c:	4628      	mov	r0, r5
    1a2e:	4b05      	ldr	r3, [pc, #20]	; (1a44 <usb_d_ep_deinit+0x24>)
    1a30:	4798      	blx	r3
    1a32:	4805      	ldr	r0, [pc, #20]	; (1a48 <usb_d_ep_deinit+0x28>)
    1a34:	eb00 1044 	add.w	r0, r0, r4, lsl #5
    1a38:	23ff      	movs	r3, #255	; 0xff
    1a3a:	7043      	strb	r3, [r0, #1]
    1a3c:	bd38      	pop	{r3, r4, r5, pc}
    1a3e:	bf00      	nop
    1a40:	000016c1 	.word	0x000016c1
    1a44:	0000406d 	.word	0x0000406d
    1a48:	20000138 	.word	0x20000138

00001a4c <usb_d_ep_enable>:
    1a4c:	b538      	push	{r3, r4, r5, lr}
    1a4e:	4605      	mov	r5, r0
    1a50:	4b0e      	ldr	r3, [pc, #56]	; (1a8c <usb_d_ep_enable+0x40>)
    1a52:	4798      	blx	r3
    1a54:	1e04      	subs	r4, r0, #0
    1a56:	db16      	blt.n	1a86 <usb_d_ep_enable+0x3a>
    1a58:	0163      	lsls	r3, r4, #5
    1a5a:	4a0d      	ldr	r2, [pc, #52]	; (1a90 <usb_d_ep_enable+0x44>)
    1a5c:	5cd3      	ldrb	r3, [r2, r3]
    1a5e:	b953      	cbnz	r3, 1a76 <usb_d_ep_enable+0x2a>
    1a60:	2202      	movs	r2, #2
    1a62:	4b0b      	ldr	r3, [pc, #44]	; (1a90 <usb_d_ep_enable+0x44>)
    1a64:	eb03 1344 	add.w	r3, r3, r4, lsl #5
    1a68:	709a      	strb	r2, [r3, #2]
    1a6a:	4628      	mov	r0, r5
    1a6c:	4b09      	ldr	r3, [pc, #36]	; (1a94 <usb_d_ep_enable+0x48>)
    1a6e:	4798      	blx	r3
    1a70:	2800      	cmp	r0, #0
    1a72:	db02      	blt.n	1a7a <usb_d_ep_enable+0x2e>
    1a74:	bd38      	pop	{r3, r4, r5, pc}
    1a76:	2201      	movs	r2, #1
    1a78:	e7f3      	b.n	1a62 <usb_d_ep_enable+0x16>
    1a7a:	4b05      	ldr	r3, [pc, #20]	; (1a90 <usb_d_ep_enable+0x44>)
    1a7c:	eb03 1444 	add.w	r4, r3, r4, lsl #5
    1a80:	2300      	movs	r3, #0
    1a82:	70a3      	strb	r3, [r4, #2]
    1a84:	bd38      	pop	{r3, r4, r5, pc}
    1a86:	f06f 0011 	mvn.w	r0, #17
    1a8a:	e7f3      	b.n	1a74 <usb_d_ep_enable+0x28>
    1a8c:	000016c1 	.word	0x000016c1
    1a90:	20000138 	.word	0x20000138
    1a94:	0000412d 	.word	0x0000412d

00001a98 <usb_d_ep_transfer>:
    1a98:	e92d 47f0 	stmdb	sp!, {r4, r5, r6, r7, r8, r9, sl, lr}
    1a9c:	b086      	sub	sp, #24
    1a9e:	4605      	mov	r5, r0
    1aa0:	7a06      	ldrb	r6, [r0, #8]
    1aa2:	4630      	mov	r0, r6
    1aa4:	4b3c      	ldr	r3, [pc, #240]	; (1b98 <usb_d_ep_transfer+0x100>)
    1aa6:	4798      	blx	r3
    1aa8:	7a6c      	ldrb	r4, [r5, #9]
    1aaa:	3400      	adds	r4, #0
    1aac:	bf18      	it	ne
    1aae:	2401      	movne	r4, #1
    1ab0:	f8d5 8004 	ldr.w	r8, [r5, #4]
    1ab4:	1e07      	subs	r7, r0, #0
    1ab6:	db69      	blt.n	1b8c <usb_d_ep_transfer+0xf4>
    1ab8:	09f6      	lsrs	r6, r6, #7
    1aba:	a804      	add	r0, sp, #16
    1abc:	4b37      	ldr	r3, [pc, #220]	; (1b9c <usb_d_ep_transfer+0x104>)
    1abe:	4798      	blx	r3
    1ac0:	4b37      	ldr	r3, [pc, #220]	; (1ba0 <usb_d_ep_transfer+0x108>)
    1ac2:	eb03 1347 	add.w	r3, r3, r7, lsl #5
    1ac6:	789b      	ldrb	r3, [r3, #2]
    1ac8:	f88d 3017 	strb.w	r3, [sp, #23]
    1acc:	f89d 3017 	ldrb.w	r3, [sp, #23]
    1ad0:	b2db      	uxtb	r3, r3
    1ad2:	2b01      	cmp	r3, #1
    1ad4:	d00c      	beq.n	1af0 <usb_d_ep_transfer+0x58>
    1ad6:	a804      	add	r0, sp, #16
    1ad8:	4b32      	ldr	r3, [pc, #200]	; (1ba4 <usb_d_ep_transfer+0x10c>)
    1ada:	4798      	blx	r3
    1adc:	f89d 3017 	ldrb.w	r3, [sp, #23]
    1ae0:	b2db      	uxtb	r3, r3
    1ae2:	2b05      	cmp	r3, #5
    1ae4:	d025      	beq.n	1b32 <usb_d_ep_transfer+0x9a>
    1ae6:	2b06      	cmp	r3, #6
    1ae8:	d053      	beq.n	1b92 <usb_d_ep_transfer+0xfa>
    1aea:	b323      	cbz	r3, 1b36 <usb_d_ep_transfer+0x9e>
    1aec:	2001      	movs	r0, #1
    1aee:	e01d      	b.n	1b2c <usb_d_ep_transfer+0x94>
    1af0:	f8df a0ac 	ldr.w	sl, [pc, #172]	; 1ba0 <usb_d_ep_transfer+0x108>
    1af4:	ea4f 1947 	mov.w	r9, r7, lsl #5
    1af8:	eb0a 0309 	add.w	r3, sl, r9
    1afc:	2203      	movs	r2, #3
    1afe:	709a      	strb	r2, [r3, #2]
    1b00:	a804      	add	r0, sp, #16
    1b02:	4b28      	ldr	r3, [pc, #160]	; (1ba4 <usb_d_ep_transfer+0x10c>)
    1b04:	4798      	blx	r3
    1b06:	f81a 3009 	ldrb.w	r3, [sl, r9]
    1b0a:	b1bb      	cbz	r3, 1b3c <usb_d_ep_transfer+0xa4>
    1b0c:	7a2b      	ldrb	r3, [r5, #8]
    1b0e:	682a      	ldr	r2, [r5, #0]
    1b10:	9201      	str	r2, [sp, #4]
    1b12:	f8cd 8008 	str.w	r8, [sp, #8]
    1b16:	2e00      	cmp	r6, #0
    1b18:	d035      	beq.n	1b86 <usb_d_ep_transfer+0xee>
    1b1a:	f043 0380 	orr.w	r3, r3, #128	; 0x80
    1b1e:	f88d 300c 	strb.w	r3, [sp, #12]
    1b22:	f88d 400d 	strb.w	r4, [sp, #13]
    1b26:	a801      	add	r0, sp, #4
    1b28:	4b1f      	ldr	r3, [pc, #124]	; (1ba8 <usb_d_ep_transfer+0x110>)
    1b2a:	4798      	blx	r3
    1b2c:	b006      	add	sp, #24
    1b2e:	e8bd 87f0 	ldmia.w	sp!, {r4, r5, r6, r7, r8, r9, sl, pc}
    1b32:	2002      	movs	r0, #2
    1b34:	e7fa      	b.n	1b2c <usb_d_ep_transfer+0x94>
    1b36:	f06f 0012 	mvn.w	r0, #18
    1b3a:	e7f7      	b.n	1b2c <usb_d_ep_transfer+0x94>
    1b3c:	4b18      	ldr	r3, [pc, #96]	; (1ba0 <usb_d_ep_transfer+0x108>)
    1b3e:	eb03 1347 	add.w	r3, r3, r7, lsl #5
    1b42:	7c9c      	ldrb	r4, [r3, #18]
    1b44:	7cdb      	ldrb	r3, [r3, #19]
    1b46:	eb04 2403 	add.w	r4, r4, r3, lsl #8
    1b4a:	b2a4      	uxth	r4, r4
    1b4c:	b94c      	cbnz	r4, 1b62 <usb_d_ep_transfer+0xca>
    1b4e:	4b14      	ldr	r3, [pc, #80]	; (1ba0 <usb_d_ep_transfer+0x108>)
    1b50:	eb03 1747 	add.w	r7, r3, r7, lsl #5
    1b54:	2304      	movs	r3, #4
    1b56:	70bb      	strb	r3, [r7, #2]
    1b58:	f04f 0800 	mov.w	r8, #0
    1b5c:	2401      	movs	r4, #1
    1b5e:	4626      	mov	r6, r4
    1b60:	e7d4      	b.n	1b0c <usb_d_ep_transfer+0x74>
    1b62:	4b0f      	ldr	r3, [pc, #60]	; (1ba0 <usb_d_ep_transfer+0x108>)
    1b64:	eb03 1747 	add.w	r7, r3, r7, lsl #5
    1b68:	f997 300c 	ldrsb.w	r3, [r7, #12]
    1b6c:	0fde      	lsrs	r6, r3, #31
    1b6e:	45a0      	cmp	r8, r4
    1b70:	d900      	bls.n	1b74 <usb_d_ep_transfer+0xdc>
    1b72:	46a0      	mov	r8, r4
    1b74:	2b00      	cmp	r3, #0
    1b76:	db01      	blt.n	1b7c <usb_d_ep_transfer+0xe4>
    1b78:	2400      	movs	r4, #0
    1b7a:	e7c7      	b.n	1b0c <usb_d_ep_transfer+0x74>
    1b7c:	45a0      	cmp	r8, r4
    1b7e:	bf2c      	ite	cs
    1b80:	2400      	movcs	r4, #0
    1b82:	2401      	movcc	r4, #1
    1b84:	e7c2      	b.n	1b0c <usb_d_ep_transfer+0x74>
    1b86:	f003 030f 	and.w	r3, r3, #15
    1b8a:	e7c8      	b.n	1b1e <usb_d_ep_transfer+0x86>
    1b8c:	f06f 0011 	mvn.w	r0, #17
    1b90:	e7cc      	b.n	1b2c <usb_d_ep_transfer+0x94>
    1b92:	f06f 000f 	mvn.w	r0, #15
    1b96:	e7c9      	b.n	1b2c <usb_d_ep_transfer+0x94>
    1b98:	000016c1 	.word	0x000016c1
    1b9c:	00000e51 	.word	0x00000e51
    1ba0:	20000138 	.word	0x20000138
    1ba4:	00000e5f 	.word	0x00000e5f
    1ba8:	000045b9 	.word	0x000045b9

00001bac <usb_d_ep_halt>:
    1bac:	b538      	push	{r3, r4, r5, lr}
    1bae:	4604      	mov	r4, r0
    1bb0:	b139      	cbz	r1, 1bc2 <usb_d_ep_halt+0x16>
    1bb2:	2901      	cmp	r1, #1
    1bb4:	d026      	beq.n	1c04 <usb_d_ep_halt+0x58>
    1bb6:	2102      	movs	r1, #2
    1bb8:	4b15      	ldr	r3, [pc, #84]	; (1c10 <usb_d_ep_halt+0x64>)
    1bba:	4798      	blx	r3
    1bbc:	4603      	mov	r3, r0
    1bbe:	4618      	mov	r0, r3
    1bc0:	bd38      	pop	{r3, r4, r5, pc}
    1bc2:	4b14      	ldr	r3, [pc, #80]	; (1c14 <usb_d_ep_halt+0x68>)
    1bc4:	4798      	blx	r3
    1bc6:	1e05      	subs	r5, r0, #0
    1bc8:	db19      	blt.n	1bfe <usb_d_ep_halt+0x52>
    1bca:	2102      	movs	r1, #2
    1bcc:	4620      	mov	r0, r4
    1bce:	4b10      	ldr	r3, [pc, #64]	; (1c10 <usb_d_ep_halt+0x64>)
    1bd0:	4798      	blx	r3
    1bd2:	4603      	mov	r3, r0
    1bd4:	2800      	cmp	r0, #0
    1bd6:	d0f2      	beq.n	1bbe <usb_d_ep_halt+0x12>
    1bd8:	2100      	movs	r1, #0
    1bda:	4620      	mov	r0, r4
    1bdc:	4b0c      	ldr	r3, [pc, #48]	; (1c10 <usb_d_ep_halt+0x64>)
    1bde:	4798      	blx	r3
    1be0:	1e03      	subs	r3, r0, #0
    1be2:	dbec      	blt.n	1bbe <usb_d_ep_halt+0x12>
    1be4:	4b0c      	ldr	r3, [pc, #48]	; (1c18 <usb_d_ep_halt+0x6c>)
    1be6:	eb03 1345 	add.w	r3, r3, r5, lsl #5
    1bea:	2201      	movs	r2, #1
    1bec:	709a      	strb	r2, [r3, #2]
    1bee:	2103      	movs	r1, #3
    1bf0:	70d9      	strb	r1, [r3, #3]
    1bf2:	69db      	ldr	r3, [r3, #28]
    1bf4:	2200      	movs	r2, #0
    1bf6:	4620      	mov	r0, r4
    1bf8:	4798      	blx	r3
    1bfa:	2300      	movs	r3, #0
    1bfc:	e7df      	b.n	1bbe <usb_d_ep_halt+0x12>
    1bfe:	f06f 0311 	mvn.w	r3, #17
    1c02:	e7dc      	b.n	1bbe <usb_d_ep_halt+0x12>
    1c04:	2101      	movs	r1, #1
    1c06:	4b02      	ldr	r3, [pc, #8]	; (1c10 <usb_d_ep_halt+0x64>)
    1c08:	4798      	blx	r3
    1c0a:	4603      	mov	r3, r0
    1c0c:	e7d7      	b.n	1bbe <usb_d_ep_halt+0x12>
    1c0e:	bf00      	nop
    1c10:	000043fd 	.word	0x000043fd
    1c14:	000016c1 	.word	0x000016c1
    1c18:	20000138 	.word	0x20000138

00001c1c <usb_d_ep_register_callback>:
    1c1c:	b538      	push	{r3, r4, r5, lr}
    1c1e:	460d      	mov	r5, r1
    1c20:	4614      	mov	r4, r2
    1c22:	4b0e      	ldr	r3, [pc, #56]	; (1c5c <usb_d_ep_register_callback+0x40>)
    1c24:	4798      	blx	r3
    1c26:	b13c      	cbz	r4, 1c38 <usb_d_ep_register_callback+0x1c>
    1c28:	2800      	cmp	r0, #0
    1c2a:	db15      	blt.n	1c58 <usb_d_ep_register_callback+0x3c>
    1c2c:	2d01      	cmp	r5, #1
    1c2e:	d00a      	beq.n	1c46 <usb_d_ep_register_callback+0x2a>
    1c30:	b125      	cbz	r5, 1c3c <usb_d_ep_register_callback+0x20>
    1c32:	2d02      	cmp	r5, #2
    1c34:	d00c      	beq.n	1c50 <usb_d_ep_register_callback+0x34>
    1c36:	bd38      	pop	{r3, r4, r5, pc}
    1c38:	4c09      	ldr	r4, [pc, #36]	; (1c60 <usb_d_ep_register_callback+0x44>)
    1c3a:	e7f5      	b.n	1c28 <usb_d_ep_register_callback+0xc>
    1c3c:	4b09      	ldr	r3, [pc, #36]	; (1c64 <usb_d_ep_register_callback+0x48>)
    1c3e:	eb03 1040 	add.w	r0, r3, r0, lsl #5
    1c42:	6144      	str	r4, [r0, #20]
    1c44:	bd38      	pop	{r3, r4, r5, pc}
    1c46:	4b07      	ldr	r3, [pc, #28]	; (1c64 <usb_d_ep_register_callback+0x48>)
    1c48:	eb03 1040 	add.w	r0, r3, r0, lsl #5
    1c4c:	6184      	str	r4, [r0, #24]
    1c4e:	bd38      	pop	{r3, r4, r5, pc}
    1c50:	4b04      	ldr	r3, [pc, #16]	; (1c64 <usb_d_ep_register_callback+0x48>)
    1c52:	eb03 1040 	add.w	r0, r3, r0, lsl #5
    1c56:	61c4      	str	r4, [r0, #28]
    1c58:	bd38      	pop	{r3, r4, r5, pc}
    1c5a:	bf00      	nop
    1c5c:	000016c1 	.word	0x000016c1
    1c60:	00001719 	.word	0x00001719
    1c64:	20000138 	.word	0x20000138

00001c68 <assert>:
    1c68:	b900      	cbnz	r0, 1c6c <assert+0x4>
    1c6a:	be00      	bkpt	0x0000
    1c6c:	4770      	bx	lr

00001c6e <is_list_element>:
    1c6e:	6803      	ldr	r3, [r0, #0]
    1c70:	b11b      	cbz	r3, 1c7a <is_list_element+0xc>
    1c72:	428b      	cmp	r3, r1
    1c74:	d003      	beq.n	1c7e <is_list_element+0x10>
    1c76:	681b      	ldr	r3, [r3, #0]
    1c78:	e7fa      	b.n	1c70 <is_list_element+0x2>
    1c7a:	2000      	movs	r0, #0
    1c7c:	4770      	bx	lr
    1c7e:	2001      	movs	r0, #1
    1c80:	4770      	bx	lr
	...

00001c84 <list_insert_as_head>:
    1c84:	b538      	push	{r3, r4, r5, lr}
    1c86:	4604      	mov	r4, r0
    1c88:	460d      	mov	r5, r1
    1c8a:	4b06      	ldr	r3, [pc, #24]	; (1ca4 <list_insert_as_head+0x20>)
    1c8c:	4798      	blx	r3
    1c8e:	f080 0001 	eor.w	r0, r0, #1
    1c92:	2239      	movs	r2, #57	; 0x39
    1c94:	4904      	ldr	r1, [pc, #16]	; (1ca8 <list_insert_as_head+0x24>)
    1c96:	b2c0      	uxtb	r0, r0
    1c98:	4b04      	ldr	r3, [pc, #16]	; (1cac <list_insert_as_head+0x28>)
    1c9a:	4798      	blx	r3
    1c9c:	6823      	ldr	r3, [r4, #0]
    1c9e:	602b      	str	r3, [r5, #0]
    1ca0:	6025      	str	r5, [r4, #0]
    1ca2:	bd38      	pop	{r3, r4, r5, pc}
    1ca4:	00001c6f 	.word	0x00001c6f
    1ca8:	0000636c 	.word	0x0000636c
    1cac:	00001c69 	.word	0x00001c69

00001cb0 <list_insert_after>:
    1cb0:	6803      	ldr	r3, [r0, #0]
    1cb2:	600b      	str	r3, [r1, #0]
    1cb4:	6001      	str	r1, [r0, #0]
    1cb6:	4770      	bx	lr

00001cb8 <list_insert_at_end>:
    1cb8:	b570      	push	{r4, r5, r6, lr}
    1cba:	4605      	mov	r5, r0
    1cbc:	460e      	mov	r6, r1
    1cbe:	6804      	ldr	r4, [r0, #0]
    1cc0:	4b0a      	ldr	r3, [pc, #40]	; (1cec <list_insert_at_end+0x34>)
    1cc2:	4798      	blx	r3
    1cc4:	f080 0001 	eor.w	r0, r0, #1
    1cc8:	224f      	movs	r2, #79	; 0x4f
    1cca:	4909      	ldr	r1, [pc, #36]	; (1cf0 <list_insert_at_end+0x38>)
    1ccc:	b2c0      	uxtb	r0, r0
    1cce:	4b09      	ldr	r3, [pc, #36]	; (1cf4 <list_insert_at_end+0x3c>)
    1cd0:	4798      	blx	r3
    1cd2:	682b      	ldr	r3, [r5, #0]
    1cd4:	b91b      	cbnz	r3, 1cde <list_insert_at_end+0x26>
    1cd6:	602e      	str	r6, [r5, #0]
    1cd8:	6033      	str	r3, [r6, #0]
    1cda:	bd70      	pop	{r4, r5, r6, pc}
    1cdc:	461c      	mov	r4, r3
    1cde:	6823      	ldr	r3, [r4, #0]
    1ce0:	2b00      	cmp	r3, #0
    1ce2:	d1fb      	bne.n	1cdc <list_insert_at_end+0x24>
    1ce4:	6026      	str	r6, [r4, #0]
    1ce6:	6033      	str	r3, [r6, #0]
    1ce8:	bd70      	pop	{r4, r5, r6, pc}
    1cea:	bf00      	nop
    1cec:	00001c6f 	.word	0x00001c6f
    1cf0:	0000636c 	.word	0x0000636c
    1cf4:	00001c69 	.word	0x00001c69

00001cf8 <list_remove_head>:
    1cf8:	6803      	ldr	r3, [r0, #0]
    1cfa:	b11b      	cbz	r3, 1d04 <list_remove_head+0xc>
    1cfc:	681a      	ldr	r2, [r3, #0]
    1cfe:	6002      	str	r2, [r0, #0]
    1d00:	4618      	mov	r0, r3
    1d02:	4770      	bx	lr
    1d04:	2000      	movs	r0, #0
    1d06:	4770      	bx	lr

00001d08 <ringbuffer_init>:
    1d08:	b570      	push	{r4, r5, r6, lr}
    1d0a:	460e      	mov	r6, r1
    1d0c:	4615      	mov	r5, r2
    1d0e:	4604      	mov	r4, r0
    1d10:	b178      	cbz	r0, 1d32 <ringbuffer_init+0x2a>
    1d12:	b181      	cbz	r1, 1d36 <ringbuffer_init+0x2e>
    1d14:	b98a      	cbnz	r2, 1d3a <ringbuffer_init+0x32>
    1d16:	2000      	movs	r0, #0
    1d18:	2228      	movs	r2, #40	; 0x28
    1d1a:	490a      	ldr	r1, [pc, #40]	; (1d44 <ringbuffer_init+0x3c>)
    1d1c:	4b0a      	ldr	r3, [pc, #40]	; (1d48 <ringbuffer_init+0x40>)
    1d1e:	4798      	blx	r3
    1d20:	1e6b      	subs	r3, r5, #1
    1d22:	421d      	tst	r5, r3
    1d24:	d10b      	bne.n	1d3e <ringbuffer_init+0x36>
    1d26:	6063      	str	r3, [r4, #4]
    1d28:	2000      	movs	r0, #0
    1d2a:	60a0      	str	r0, [r4, #8]
    1d2c:	60e0      	str	r0, [r4, #12]
    1d2e:	6026      	str	r6, [r4, #0]
    1d30:	bd70      	pop	{r4, r5, r6, pc}
    1d32:	2000      	movs	r0, #0
    1d34:	e7f0      	b.n	1d18 <ringbuffer_init+0x10>
    1d36:	2000      	movs	r0, #0
    1d38:	e7ee      	b.n	1d18 <ringbuffer_init+0x10>
    1d3a:	2001      	movs	r0, #1
    1d3c:	e7ec      	b.n	1d18 <ringbuffer_init+0x10>
    1d3e:	f06f 000c 	mvn.w	r0, #12
    1d42:	bd70      	pop	{r4, r5, r6, pc}
    1d44:	0000638c 	.word	0x0000638c
    1d48:	00001c69 	.word	0x00001c69

00001d4c <ringbuffer_get>:
    1d4c:	b538      	push	{r3, r4, r5, lr}
    1d4e:	460d      	mov	r5, r1
    1d50:	4604      	mov	r4, r0
    1d52:	b1a8      	cbz	r0, 1d80 <ringbuffer_get+0x34>
    1d54:	b191      	cbz	r1, 1d7c <ringbuffer_get+0x30>
    1d56:	2001      	movs	r0, #1
    1d58:	2240      	movs	r2, #64	; 0x40
    1d5a:	490c      	ldr	r1, [pc, #48]	; (1d8c <ringbuffer_get+0x40>)
    1d5c:	4b0c      	ldr	r3, [pc, #48]	; (1d90 <ringbuffer_get+0x44>)
    1d5e:	4798      	blx	r3
    1d60:	68e2      	ldr	r2, [r4, #12]
    1d62:	68a3      	ldr	r3, [r4, #8]
    1d64:	429a      	cmp	r2, r3
    1d66:	d00d      	beq.n	1d84 <ringbuffer_get+0x38>
    1d68:	6822      	ldr	r2, [r4, #0]
    1d6a:	6861      	ldr	r1, [r4, #4]
    1d6c:	400b      	ands	r3, r1
    1d6e:	5cd3      	ldrb	r3, [r2, r3]
    1d70:	702b      	strb	r3, [r5, #0]
    1d72:	68a3      	ldr	r3, [r4, #8]
    1d74:	3301      	adds	r3, #1
    1d76:	60a3      	str	r3, [r4, #8]
    1d78:	2000      	movs	r0, #0
    1d7a:	bd38      	pop	{r3, r4, r5, pc}
    1d7c:	2000      	movs	r0, #0
    1d7e:	e7eb      	b.n	1d58 <ringbuffer_get+0xc>
    1d80:	2000      	movs	r0, #0
    1d82:	e7e9      	b.n	1d58 <ringbuffer_get+0xc>
    1d84:	f06f 0009 	mvn.w	r0, #9
    1d88:	bd38      	pop	{r3, r4, r5, pc}
    1d8a:	bf00      	nop
    1d8c:	0000638c 	.word	0x0000638c
    1d90:	00001c69 	.word	0x00001c69

00001d94 <ringbuffer_put>:
    1d94:	b538      	push	{r3, r4, r5, lr}
    1d96:	460d      	mov	r5, r1
    1d98:	4604      	mov	r4, r0
    1d9a:	2251      	movs	r2, #81	; 0x51
    1d9c:	490b      	ldr	r1, [pc, #44]	; (1dcc <ringbuffer_put+0x38>)
    1d9e:	3000      	adds	r0, #0
    1da0:	bf18      	it	ne
    1da2:	2001      	movne	r0, #1
    1da4:	4b0a      	ldr	r3, [pc, #40]	; (1dd0 <ringbuffer_put+0x3c>)
    1da6:	4798      	blx	r3
    1da8:	6822      	ldr	r2, [r4, #0]
    1daa:	68e3      	ldr	r3, [r4, #12]
    1dac:	6861      	ldr	r1, [r4, #4]
    1dae:	400b      	ands	r3, r1
    1db0:	54d5      	strb	r5, [r2, r3]
    1db2:	68e3      	ldr	r3, [r4, #12]
    1db4:	68a2      	ldr	r2, [r4, #8]
    1db6:	1a9a      	subs	r2, r3, r2
    1db8:	6861      	ldr	r1, [r4, #4]
    1dba:	428a      	cmp	r2, r1
    1dbc:	d901      	bls.n	1dc2 <ringbuffer_put+0x2e>
    1dbe:	1a59      	subs	r1, r3, r1
    1dc0:	60a1      	str	r1, [r4, #8]
    1dc2:	3301      	adds	r3, #1
    1dc4:	60e3      	str	r3, [r4, #12]
    1dc6:	2000      	movs	r0, #0
    1dc8:	bd38      	pop	{r3, r4, r5, pc}
    1dca:	bf00      	nop
    1dcc:	0000638c 	.word	0x0000638c
    1dd0:	00001c69 	.word	0x00001c69

00001dd4 <ringbuffer_num>:
    1dd4:	b510      	push	{r4, lr}
    1dd6:	4604      	mov	r4, r0
    1dd8:	2267      	movs	r2, #103	; 0x67
    1dda:	4905      	ldr	r1, [pc, #20]	; (1df0 <ringbuffer_num+0x1c>)
    1ddc:	3000      	adds	r0, #0
    1dde:	bf18      	it	ne
    1de0:	2001      	movne	r0, #1
    1de2:	4b04      	ldr	r3, [pc, #16]	; (1df4 <ringbuffer_num+0x20>)
    1de4:	4798      	blx	r3
    1de6:	68e0      	ldr	r0, [r4, #12]
    1de8:	68a3      	ldr	r3, [r4, #8]
    1dea:	1ac0      	subs	r0, r0, r3
    1dec:	bd10      	pop	{r4, pc}
    1dee:	bf00      	nop
    1df0:	0000638c 	.word	0x0000638c
    1df4:	00001c69 	.word	0x00001c69

00001df8 <_adc_get_hardware_index>:
    1df8:	f100 403d 	add.w	r0, r0, #3170893824	; 0xbd000000
    1dfc:	f5a0 50e0 	sub.w	r0, r0, #7168	; 0x1c00
    1e00:	f3c0 2087 	ubfx	r0, r0, #10, #8
    1e04:	4770      	bx	lr
	...

00001e08 <_adc_init>:
    1e08:	b410      	push	{r4}
    1e0a:	4b60      	ldr	r3, [pc, #384]	; (1f8c <_adc_init+0x184>)
    1e0c:	4298      	cmp	r0, r3
    1e0e:	f000 809c 	beq.w	1f4a <_adc_init+0x142>
    1e12:	4b5f      	ldr	r3, [pc, #380]	; (1f90 <_adc_init+0x188>)
    1e14:	4298      	cmp	r0, r3
    1e16:	f000 80a8 	beq.w	1f6a <_adc_init+0x162>
    1e1a:	2200      	movs	r2, #0
    1e1c:	6b03      	ldr	r3, [r0, #48]	; 0x30
    1e1e:	f013 0f01 	tst.w	r3, #1
    1e22:	d11b      	bne.n	1e5c <_adc_init+0x54>
    1e24:	6b03      	ldr	r3, [r0, #48]	; 0x30
    1e26:	f013 0f03 	tst.w	r3, #3
    1e2a:	d1fb      	bne.n	1e24 <_adc_init+0x1c>
    1e2c:	8803      	ldrh	r3, [r0, #0]
    1e2e:	f013 0f02 	tst.w	r3, #2
    1e32:	d00d      	beq.n	1e50 <_adc_init+0x48>
    1e34:	8803      	ldrh	r3, [r0, #0]
    1e36:	b29b      	uxth	r3, r3
    1e38:	f023 0302 	bic.w	r3, r3, #2
    1e3c:	b29b      	uxth	r3, r3
    1e3e:	8003      	strh	r3, [r0, #0]
    1e40:	6b03      	ldr	r3, [r0, #48]	; 0x30
    1e42:	f013 0f03 	tst.w	r3, #3
    1e46:	d1fb      	bne.n	1e40 <_adc_init+0x38>
    1e48:	6b03      	ldr	r3, [r0, #48]	; 0x30
    1e4a:	f013 0f02 	tst.w	r3, #2
    1e4e:	d1fb      	bne.n	1e48 <_adc_init+0x40>
    1e50:	2301      	movs	r3, #1
    1e52:	8003      	strh	r3, [r0, #0]
    1e54:	6b03      	ldr	r3, [r0, #48]	; 0x30
    1e56:	f013 0f03 	tst.w	r3, #3
    1e5a:	d1fb      	bne.n	1e54 <_adc_init+0x4c>
    1e5c:	6b03      	ldr	r3, [r0, #48]	; 0x30
    1e5e:	f013 0f01 	tst.w	r3, #1
    1e62:	d1fb      	bne.n	1e5c <_adc_init+0x54>
    1e64:	f8a0 2048 	strh.w	r2, [r0, #72]	; 0x48
    1e68:	2316      	movs	r3, #22
    1e6a:	4a4a      	ldr	r2, [pc, #296]	; (1f94 <_adc_init+0x18c>)
    1e6c:	fb03 2301 	mla	r3, r3, r1, r2
    1e70:	889b      	ldrh	r3, [r3, #4]
    1e72:	80c3      	strh	r3, [r0, #6]
    1e74:	6b03      	ldr	r3, [r0, #48]	; 0x30
    1e76:	f3c3 030b 	ubfx	r3, r3, #0, #12
    1e7a:	2b00      	cmp	r3, #0
    1e7c:	d1fa      	bne.n	1e74 <_adc_init+0x6c>
    1e7e:	2316      	movs	r3, #22
    1e80:	4a44      	ldr	r2, [pc, #272]	; (1f94 <_adc_init+0x18c>)
    1e82:	fb03 2301 	mla	r3, r3, r1, r2
    1e86:	799b      	ldrb	r3, [r3, #6]
    1e88:	7203      	strb	r3, [r0, #8]
    1e8a:	6b03      	ldr	r3, [r0, #48]	; 0x30
    1e8c:	f3c3 030b 	ubfx	r3, r3, #0, #12
    1e90:	2b00      	cmp	r3, #0
    1e92:	d1fa      	bne.n	1e8a <_adc_init+0x82>
    1e94:	2316      	movs	r3, #22
    1e96:	4a3f      	ldr	r2, [pc, #252]	; (1f94 <_adc_init+0x18c>)
    1e98:	fb03 2301 	mla	r3, r3, r1, r2
    1e9c:	79da      	ldrb	r2, [r3, #7]
    1e9e:	7082      	strb	r2, [r0, #2]
    1ea0:	891b      	ldrh	r3, [r3, #8]
    1ea2:	8083      	strh	r3, [r0, #4]
    1ea4:	6b03      	ldr	r3, [r0, #48]	; 0x30
    1ea6:	f3c3 030b 	ubfx	r3, r3, #0, #12
    1eaa:	2b00      	cmp	r3, #0
    1eac:	d1fa      	bne.n	1ea4 <_adc_init+0x9c>
    1eae:	2316      	movs	r3, #22
    1eb0:	4a38      	ldr	r2, [pc, #224]	; (1f94 <_adc_init+0x18c>)
    1eb2:	fb03 2301 	mla	r3, r3, r1, r2
    1eb6:	7a9b      	ldrb	r3, [r3, #10]
    1eb8:	7283      	strb	r3, [r0, #10]
    1eba:	6b03      	ldr	r3, [r0, #48]	; 0x30
    1ebc:	f3c3 030b 	ubfx	r3, r3, #0, #12
    1ec0:	2b00      	cmp	r3, #0
    1ec2:	d1fa      	bne.n	1eba <_adc_init+0xb2>
    1ec4:	2316      	movs	r3, #22
    1ec6:	4a33      	ldr	r2, [pc, #204]	; (1f94 <_adc_init+0x18c>)
    1ec8:	fb03 2301 	mla	r3, r3, r1, r2
    1ecc:	7adb      	ldrb	r3, [r3, #11]
    1ece:	72c3      	strb	r3, [r0, #11]
    1ed0:	6b03      	ldr	r3, [r0, #48]	; 0x30
    1ed2:	f3c3 030b 	ubfx	r3, r3, #0, #12
    1ed6:	2b00      	cmp	r3, #0
    1ed8:	d1fa      	bne.n	1ed0 <_adc_init+0xc8>
    1eda:	2316      	movs	r3, #22
    1edc:	4a2d      	ldr	r2, [pc, #180]	; (1f94 <_adc_init+0x18c>)
    1ede:	fb03 2301 	mla	r3, r3, r1, r2
    1ee2:	899b      	ldrh	r3, [r3, #12]
    1ee4:	8183      	strh	r3, [r0, #12]
    1ee6:	6b03      	ldr	r3, [r0, #48]	; 0x30
    1ee8:	f013 0f80 	tst.w	r3, #128	; 0x80
    1eec:	d1fb      	bne.n	1ee6 <_adc_init+0xde>
    1eee:	2316      	movs	r3, #22
    1ef0:	4a28      	ldr	r2, [pc, #160]	; (1f94 <_adc_init+0x18c>)
    1ef2:	fb03 2301 	mla	r3, r3, r1, r2
    1ef6:	89db      	ldrh	r3, [r3, #14]
    1ef8:	81c3      	strh	r3, [r0, #14]
    1efa:	6b03      	ldr	r3, [r0, #48]	; 0x30
    1efc:	f413 7f80 	tst.w	r3, #256	; 0x100
    1f00:	d1fb      	bne.n	1efa <_adc_init+0xf2>
    1f02:	2316      	movs	r3, #22
    1f04:	4a23      	ldr	r2, [pc, #140]	; (1f94 <_adc_init+0x18c>)
    1f06:	fb03 2301 	mla	r3, r3, r1, r2
    1f0a:	8a1b      	ldrh	r3, [r3, #16]
    1f0c:	8203      	strh	r3, [r0, #16]
    1f0e:	6b03      	ldr	r3, [r0, #48]	; 0x30
    1f10:	f413 7f00 	tst.w	r3, #512	; 0x200
    1f14:	d1fb      	bne.n	1f0e <_adc_init+0x106>
    1f16:	2316      	movs	r3, #22
    1f18:	4a1e      	ldr	r2, [pc, #120]	; (1f94 <_adc_init+0x18c>)
    1f1a:	fb03 2301 	mla	r3, r3, r1, r2
    1f1e:	8a5b      	ldrh	r3, [r3, #18]
    1f20:	8243      	strh	r3, [r0, #18]
    1f22:	6b03      	ldr	r3, [r0, #48]	; 0x30
    1f24:	f413 6f80 	tst.w	r3, #1024	; 0x400
    1f28:	d1fb      	bne.n	1f22 <_adc_init+0x11a>
    1f2a:	2216      	movs	r2, #22
    1f2c:	4b19      	ldr	r3, [pc, #100]	; (1f94 <_adc_init+0x18c>)
    1f2e:	fb02 3101 	mla	r1, r2, r1, r3
    1f32:	7d0b      	ldrb	r3, [r1, #20]
    1f34:	70c3      	strb	r3, [r0, #3]
    1f36:	884b      	ldrh	r3, [r1, #2]
    1f38:	8003      	strh	r3, [r0, #0]
    1f3a:	6b03      	ldr	r3, [r0, #48]	; 0x30
    1f3c:	f013 0f03 	tst.w	r3, #3
    1f40:	d1fb      	bne.n	1f3a <_adc_init+0x132>
    1f42:	2000      	movs	r0, #0
    1f44:	f85d 4b04 	ldr.w	r4, [sp], #4
    1f48:	4770      	bx	lr
    1f4a:	f04f 1380 	mov.w	r3, #8388736	; 0x800080
    1f4e:	681b      	ldr	r3, [r3, #0]
    1f50:	095a      	lsrs	r2, r3, #5
    1f52:	0212      	lsls	r2, r2, #8
    1f54:	f402 62e0 	and.w	r2, r2, #1792	; 0x700
    1f58:	0a1c      	lsrs	r4, r3, #8
    1f5a:	0124      	lsls	r4, r4, #4
    1f5c:	f004 0470 	and.w	r4, r4, #112	; 0x70
    1f60:	4322      	orrs	r2, r4
    1f62:	f3c3 0382 	ubfx	r3, r3, #2, #3
    1f66:	431a      	orrs	r2, r3
    1f68:	e758      	b.n	1e1c <_adc_init+0x14>
    1f6a:	f04f 1380 	mov.w	r3, #8388736	; 0x800080
    1f6e:	681b      	ldr	r3, [r3, #0]
    1f70:	0cda      	lsrs	r2, r3, #19
    1f72:	0212      	lsls	r2, r2, #8
    1f74:	f402 62e0 	and.w	r2, r2, #1792	; 0x700
    1f78:	0d9c      	lsrs	r4, r3, #22
    1f7a:	0124      	lsls	r4, r4, #4
    1f7c:	f004 0470 	and.w	r4, r4, #112	; 0x70
    1f80:	4322      	orrs	r2, r4
    1f82:	f3c3 4302 	ubfx	r3, r3, #16, #3
    1f86:	431a      	orrs	r2, r3
    1f88:	e748      	b.n	1e1c <_adc_init+0x14>
    1f8a:	bf00      	nop
    1f8c:	43001c00 	.word	0x43001c00
    1f90:	43002000 	.word	0x43002000
    1f94:	000063b0 	.word	0x000063b0

00001f98 <_adc_get_regs>:
    1f98:	b508      	push	{r3, lr}
    1f9a:	4b0b      	ldr	r3, [pc, #44]	; (1fc8 <_adc_get_regs+0x30>)
    1f9c:	4798      	blx	r3
    1f9e:	2300      	movs	r3, #0
    1fa0:	b13b      	cbz	r3, 1fb2 <_adc_get_regs+0x1a>
    1fa2:	2288      	movs	r2, #136	; 0x88
    1fa4:	4909      	ldr	r1, [pc, #36]	; (1fcc <_adc_get_regs+0x34>)
    1fa6:	2000      	movs	r0, #0
    1fa8:	4b09      	ldr	r3, [pc, #36]	; (1fd0 <_adc_get_regs+0x38>)
    1faa:	4798      	blx	r3
    1fac:	2300      	movs	r3, #0
    1fae:	4618      	mov	r0, r3
    1fb0:	bd08      	pop	{r3, pc}
    1fb2:	2216      	movs	r2, #22
    1fb4:	fb02 f203 	mul.w	r2, r2, r3
    1fb8:	4906      	ldr	r1, [pc, #24]	; (1fd4 <_adc_get_regs+0x3c>)
    1fba:	5c8a      	ldrb	r2, [r1, r2]
    1fbc:	4290      	cmp	r0, r2
    1fbe:	d0f6      	beq.n	1fae <_adc_get_regs+0x16>
    1fc0:	3301      	adds	r3, #1
    1fc2:	b2db      	uxtb	r3, r3
    1fc4:	e7ec      	b.n	1fa0 <_adc_get_regs+0x8>
    1fc6:	bf00      	nop
    1fc8:	00001df9 	.word	0x00001df9
    1fcc:	000063c8 	.word	0x000063c8
    1fd0:	00001c69 	.word	0x00001c69
    1fd4:	000063b0 	.word	0x000063b0

00001fd8 <_adc_sync_init>:
    1fd8:	b538      	push	{r3, r4, r5, lr}
    1fda:	460c      	mov	r4, r1
    1fdc:	4605      	mov	r5, r0
    1fde:	22d9      	movs	r2, #217	; 0xd9
    1fe0:	4907      	ldr	r1, [pc, #28]	; (2000 <_adc_sync_init+0x28>)
    1fe2:	3000      	adds	r0, #0
    1fe4:	bf18      	it	ne
    1fe6:	2001      	movne	r0, #1
    1fe8:	4b06      	ldr	r3, [pc, #24]	; (2004 <_adc_sync_init+0x2c>)
    1fea:	4798      	blx	r3
    1fec:	602c      	str	r4, [r5, #0]
    1fee:	4620      	mov	r0, r4
    1ff0:	4b05      	ldr	r3, [pc, #20]	; (2008 <_adc_sync_init+0x30>)
    1ff2:	4798      	blx	r3
    1ff4:	4601      	mov	r1, r0
    1ff6:	4620      	mov	r0, r4
    1ff8:	4b04      	ldr	r3, [pc, #16]	; (200c <_adc_sync_init+0x34>)
    1ffa:	4798      	blx	r3
    1ffc:	bd38      	pop	{r3, r4, r5, pc}
    1ffe:	bf00      	nop
    2000:	000063c8 	.word	0x000063c8
    2004:	00001c69 	.word	0x00001c69
    2008:	00001f99 	.word	0x00001f99
    200c:	00001e09 	.word	0x00001e09

00002010 <_can_async_init>:
    2010:	b430      	push	{r4, r5}
    2012:	6001      	str	r1, [r0, #0]
    2014:	698b      	ldr	r3, [r1, #24]
    2016:	f043 0301 	orr.w	r3, r3, #1
    201a:	618b      	str	r3, [r1, #24]
    201c:	6803      	ldr	r3, [r0, #0]
    201e:	699a      	ldr	r2, [r3, #24]
    2020:	f012 0f01 	tst.w	r2, #1
    2024:	d0fa      	beq.n	201c <_can_async_init+0xc>
    2026:	699a      	ldr	r2, [r3, #24]
    2028:	f042 0202 	orr.w	r2, r2, #2
    202c:	619a      	str	r2, [r3, #24]
    202e:	4b34      	ldr	r3, [pc, #208]	; (2100 <_can_async_init+0xf0>)
    2030:	4299      	cmp	r1, r3
    2032:	d011      	beq.n	2058 <_can_async_init+0x48>
    2034:	6802      	ldr	r2, [r0, #0]
    2036:	6993      	ldr	r3, [r2, #24]
    2038:	f023 0302 	bic.w	r3, r3, #2
    203c:	6193      	str	r3, [r2, #24]
    203e:	6802      	ldr	r2, [r0, #0]
    2040:	6993      	ldr	r3, [r2, #24]
    2042:	f023 0301 	bic.w	r3, r3, #1
    2046:	6193      	str	r3, [r2, #24]
    2048:	6803      	ldr	r3, [r0, #0]
    204a:	699b      	ldr	r3, [r3, #24]
    204c:	f013 0f01 	tst.w	r3, #1
    2050:	d1fa      	bne.n	2048 <_can_async_init+0x38>
    2052:	2000      	movs	r0, #0
    2054:	bc30      	pop	{r4, r5}
    2056:	4770      	bx	lr
    2058:	4b2a      	ldr	r3, [pc, #168]	; (2104 <_can_async_init+0xf4>)
    205a:	461a      	mov	r2, r3
    205c:	f842 0b04 	str.w	r0, [r2], #4
    2060:	4929      	ldr	r1, [pc, #164]	; (2108 <_can_async_init+0xf8>)
    2062:	6181      	str	r1, [r0, #24]
    2064:	6801      	ldr	r1, [r0, #0]
    2066:	698c      	ldr	r4, [r1, #24]
    2068:	618c      	str	r4, [r1, #24]
    206a:	6801      	ldr	r1, [r0, #0]
    206c:	2400      	movs	r4, #0
    206e:	608c      	str	r4, [r1, #8]
    2070:	6801      	ldr	r1, [r0, #0]
    2072:	4d26      	ldr	r5, [pc, #152]	; (210c <_can_async_init+0xfc>)
    2074:	61cd      	str	r5, [r1, #28]
    2076:	6801      	ldr	r1, [r0, #0]
    2078:	f640 2533 	movw	r5, #2611	; 0xa33
    207c:	60cd      	str	r5, [r1, #12]
    207e:	6805      	ldr	r5, [r0, #0]
    2080:	4923      	ldr	r1, [pc, #140]	; (2110 <_can_async_init+0x100>)
    2082:	b289      	uxth	r1, r1
    2084:	f441 3100 	orr.w	r1, r1, #131072	; 0x20000
    2088:	f8c5 10a0 	str.w	r1, [r5, #160]	; 0xa0
    208c:	6801      	ldr	r1, [r0, #0]
    208e:	f8c1 40bc 	str.w	r4, [r1, #188]	; 0xbc
    2092:	6801      	ldr	r1, [r0, #0]
    2094:	f8c1 40c8 	str.w	r4, [r1, #200]	; 0xc8
    2098:	6805      	ldr	r5, [r0, #0]
    209a:	491e      	ldr	r1, [pc, #120]	; (2114 <_can_async_init+0x104>)
    209c:	b289      	uxth	r1, r1
    209e:	f041 7100 	orr.w	r1, r1, #33554432	; 0x2000000
    20a2:	f8c5 10c0 	str.w	r1, [r5, #192]	; 0xc0
    20a6:	6801      	ldr	r1, [r0, #0]
    20a8:	b292      	uxth	r2, r2
    20aa:	f442 3200 	orr.w	r2, r2, #131072	; 0x20000
    20ae:	f8c1 20f0 	str.w	r2, [r1, #240]	; 0xf0
    20b2:	6802      	ldr	r2, [r0, #0]
    20b4:	2128      	movs	r1, #40	; 0x28
    20b6:	f8c2 1080 	str.w	r1, [r2, #128]	; 0x80
    20ba:	6801      	ldr	r1, [r0, #0]
    20bc:	f103 0214 	add.w	r2, r3, #20
    20c0:	b292      	uxth	r2, r2
    20c2:	f442 3200 	orr.w	r2, r2, #131072	; 0x20000
    20c6:	f8c1 2084 	str.w	r2, [r1, #132]	; 0x84
    20ca:	6802      	ldr	r2, [r0, #0]
    20cc:	331c      	adds	r3, #28
    20ce:	b29b      	uxth	r3, r3
    20d0:	f443 3300 	orr.w	r3, r3, #131072	; 0x20000
    20d4:	f8c2 3088 	str.w	r3, [r2, #136]	; 0x88
    20d8:	6803      	ldr	r3, [r0, #0]
    20da:	f8c3 4090 	str.w	r4, [r3, #144]	; 0x90
 */
__STATIC_INLINE void __NVIC_DisableIRQ(IRQn_Type IRQn)
{
  if ((int32_t)(IRQn) >= 0)
  {
    NVIC->ICER[(((uint32_t)IRQn) >> 5UL)] = (uint32_t)(1UL << (((uint32_t)IRQn) & 0x1FUL));
    20de:	4b0e      	ldr	r3, [pc, #56]	; (2118 <_can_async_init+0x108>)
    20e0:	f44f 4200 	mov.w	r2, #32768	; 0x8000
    20e4:	f8c3 2088 	str.w	r2, [r3, #136]	; 0x88
  __ASM volatile ("dsb 0xF":::"memory");
    20e8:	f3bf 8f4f 	dsb	sy
  __ASM volatile ("isb 0xF":::"memory");
    20ec:	f3bf 8f6f 	isb	sy
 */
__STATIC_INLINE void __NVIC_ClearPendingIRQ(IRQn_Type IRQn)
{
  if ((int32_t)(IRQn) >= 0)
  {
    NVIC->ICPR[(((uint32_t)IRQn) >> 5UL)] = (uint32_t)(1UL << (((uint32_t)IRQn) & 0x1FUL));
    20f0:	f8c3 2188 	str.w	r2, [r3, #392]	; 0x188
    NVIC->ISER[(((uint32_t)IRQn) >> 5UL)] = (uint32_t)(1UL << (((uint32_t)IRQn) & 0x1FUL));
    20f4:	609a      	str	r2, [r3, #8]
    20f6:	6803      	ldr	r3, [r0, #0]
    20f8:	2201      	movs	r2, #1
    20fa:	65da      	str	r2, [r3, #92]	; 0x5c
    20fc:	e79a      	b.n	2034 <_can_async_init+0x24>
    20fe:	bf00      	nop
    2100:	42000400 	.word	0x42000400
    2104:	200001b8 	.word	0x200001b8
    2108:	20000000 	.word	0x20000000
    210c:	06020a07 	.word	0x06020a07
    2110:	2000065c 	.word	0x2000065c
    2114:	2000063c 	.word	0x2000063c
    2118:	e000e100 	.word	0xe000e100

0000211c <CAN1_Handler>:
    211c:	b538      	push	{r3, r4, r5, lr}
    211e:	4b1d      	ldr	r3, [pc, #116]	; (2194 <CAN1_Handler+0x78>)
    2120:	681d      	ldr	r5, [r3, #0]
    2122:	682b      	ldr	r3, [r5, #0]
    2124:	6d1c      	ldr	r4, [r3, #80]	; 0x50
    2126:	f014 0f01 	tst.w	r4, #1
    212a:	d11a      	bne.n	2162 <CAN1_Handler+0x46>
    212c:	f414 7f00 	tst.w	r4, #512	; 0x200
    2130:	d11b      	bne.n	216a <CAN1_Handler+0x4e>
    2132:	f014 7f00 	tst.w	r4, #33554432	; 0x2000000
    2136:	d11c      	bne.n	2172 <CAN1_Handler+0x56>
    2138:	f014 7f80 	tst.w	r4, #16777216	; 0x1000000
    213c:	d11e      	bne.n	217c <CAN1_Handler+0x60>
    213e:	f414 0f00 	tst.w	r4, #8388608	; 0x800000
    2142:	d008      	beq.n	2156 <CAN1_Handler+0x3a>
    2144:	68eb      	ldr	r3, [r5, #12]
    2146:	682a      	ldr	r2, [r5, #0]
    2148:	6c52      	ldr	r2, [r2, #68]	; 0x44
    214a:	f012 0f20 	tst.w	r2, #32
    214e:	d01a      	beq.n	2186 <CAN1_Handler+0x6a>
    2150:	2102      	movs	r1, #2
    2152:	4628      	mov	r0, r5
    2154:	4798      	blx	r3
    2156:	f014 0f08 	tst.w	r4, #8
    215a:	d116      	bne.n	218a <CAN1_Handler+0x6e>
    215c:	682b      	ldr	r3, [r5, #0]
    215e:	651c      	str	r4, [r3, #80]	; 0x50
    2160:	bd38      	pop	{r3, r4, r5, pc}
    2162:	68ab      	ldr	r3, [r5, #8]
    2164:	4628      	mov	r0, r5
    2166:	4798      	blx	r3
    2168:	e7e0      	b.n	212c <CAN1_Handler+0x10>
    216a:	686b      	ldr	r3, [r5, #4]
    216c:	4628      	mov	r0, r5
    216e:	4798      	blx	r3
    2170:	e7df      	b.n	2132 <CAN1_Handler+0x16>
    2172:	68eb      	ldr	r3, [r5, #12]
    2174:	2103      	movs	r1, #3
    2176:	4628      	mov	r0, r5
    2178:	4798      	blx	r3
    217a:	e7dd      	b.n	2138 <CAN1_Handler+0x1c>
    217c:	68eb      	ldr	r3, [r5, #12]
    217e:	2100      	movs	r1, #0
    2180:	4628      	mov	r0, r5
    2182:	4798      	blx	r3
    2184:	e7db      	b.n	213e <CAN1_Handler+0x22>
    2186:	2101      	movs	r1, #1
    2188:	e7e3      	b.n	2152 <CAN1_Handler+0x36>
    218a:	68eb      	ldr	r3, [r5, #12]
    218c:	2104      	movs	r1, #4
    218e:	4628      	mov	r0, r5
    2190:	4798      	blx	r3
    2192:	e7e3      	b.n	215c <CAN1_Handler+0x40>
    2194:	200001b8 	.word	0x200001b8

00002198 <_go_to_sleep>:
  __ASM volatile ("dsb 0xF":::"memory");
    2198:	f3bf 8f4f 	dsb	sy
    219c:	bf30      	wfi
    219e:	4770      	bx	lr

000021a0 <_get_cycles_for_ms>:
    21a0:	ebc0 1000 	rsb	r0, r0, r0, lsl #4
    21a4:	0143      	lsls	r3, r0, #5
    21a6:	2064      	movs	r0, #100	; 0x64
    21a8:	fb00 f003 	mul.w	r0, r0, r3
    21ac:	4770      	bx	lr
	...

000021b0 <_init_chip>:
    21b0:	b510      	push	{r4, lr}
    21b2:	4a09      	ldr	r2, [pc, #36]	; (21d8 <_init_chip+0x28>)
    21b4:	8813      	ldrh	r3, [r2, #0]
    21b6:	b29b      	uxth	r3, r3
    21b8:	8013      	strh	r3, [r2, #0]
    21ba:	4b08      	ldr	r3, [pc, #32]	; (21dc <_init_chip+0x2c>)
    21bc:	4798      	blx	r3
    21be:	4b08      	ldr	r3, [pc, #32]	; (21e0 <_init_chip+0x30>)
    21c0:	4798      	blx	r3
    21c2:	4b08      	ldr	r3, [pc, #32]	; (21e4 <_init_chip+0x34>)
    21c4:	4798      	blx	r3
    21c6:	2002      	movs	r0, #2
    21c8:	4c07      	ldr	r4, [pc, #28]	; (21e8 <_init_chip+0x38>)
    21ca:	47a0      	blx	r4
    21cc:	4b07      	ldr	r3, [pc, #28]	; (21ec <_init_chip+0x3c>)
    21ce:	4798      	blx	r3
    21d0:	f640 70fd 	movw	r0, #4093	; 0xffd
    21d4:	47a0      	blx	r4
    21d6:	bd10      	pop	{r4, pc}
    21d8:	41004000 	.word	0x41004000
    21dc:	000024cd 	.word	0x000024cd
    21e0:	000024ed 	.word	0x000024ed
    21e4:	000023f1 	.word	0x000023f1
    21e8:	000023b1 	.word	0x000023b1
    21ec:	00002509 	.word	0x00002509

000021f0 <_crc_sync_init>:
    21f0:	6001      	str	r1, [r0, #0]
    21f2:	2000      	movs	r0, #0
    21f4:	4770      	bx	lr
	...

000021f8 <_ext_irq_handler>:
    21f8:	b570      	push	{r4, r5, r6, lr}
    21fa:	b082      	sub	sp, #8
    21fc:	4b2a      	ldr	r3, [pc, #168]	; (22a8 <_ext_irq_handler+0xb0>)
    21fe:	695a      	ldr	r2, [r3, #20]
    2200:	9201      	str	r2, [sp, #4]
    2202:	9a01      	ldr	r2, [sp, #4]
    2204:	615a      	str	r2, [r3, #20]
    2206:	4b29      	ldr	r3, [pc, #164]	; (22ac <_ext_irq_handler+0xb4>)
    2208:	6818      	ldr	r0, [r3, #0]
    220a:	22ec      	movs	r2, #236	; 0xec
    220c:	4928      	ldr	r1, [pc, #160]	; (22b0 <_ext_irq_handler+0xb8>)
    220e:	3000      	adds	r0, #0
    2210:	bf18      	it	ne
    2212:	2001      	movne	r0, #1
    2214:	4b27      	ldr	r3, [pc, #156]	; (22b4 <_ext_irq_handler+0xbc>)
    2216:	4798      	blx	r3
    2218:	f04f 35ff 	mov.w	r5, #4294967295
    221c:	e035      	b.n	228a <_ext_irq_handler+0x92>
    221e:	4b26      	ldr	r3, [pc, #152]	; (22b8 <_ext_irq_handler+0xc0>)
    2220:	eb03 06c6 	add.w	r6, r3, r6, lsl #3
    2224:	6875      	ldr	r5, [r6, #4]
    2226:	f1b5 3fff 	cmp.w	r5, #4294967295
    222a:	d003      	beq.n	2234 <_ext_irq_handler+0x3c>
    222c:	4b1f      	ldr	r3, [pc, #124]	; (22ac <_ext_irq_handler+0xb4>)
    222e:	681b      	ldr	r3, [r3, #0]
    2230:	4628      	mov	r0, r5
    2232:	4798      	blx	r3
    2234:	2301      	movs	r3, #1
    2236:	40a3      	lsls	r3, r4
    2238:	9c01      	ldr	r4, [sp, #4]
    223a:	ea24 0403 	bic.w	r4, r4, r3
    223e:	9401      	str	r4, [sp, #4]
    2240:	9b01      	ldr	r3, [sp, #4]
    2242:	fa93 f4a3 	rbit	r4, r3
    2246:	fab4 f484 	clz	r4, r4
    224a:	b90b      	cbnz	r3, 2250 <_ext_irq_handler+0x58>
    224c:	f04f 34ff 	mov.w	r4, #4294967295
    2250:	f1b4 3fff 	cmp.w	r4, #4294967295
    2254:	d014      	beq.n	2280 <_ext_irq_handler+0x88>
    2256:	2002      	movs	r0, #2
    2258:	2100      	movs	r1, #0
    225a:	e001      	b.n	2260 <_ext_irq_handler+0x68>
    225c:	3b01      	subs	r3, #1
    225e:	b2d8      	uxtb	r0, r3
    2260:	4281      	cmp	r1, r0
    2262:	d8e0      	bhi.n	2226 <_ext_irq_handler+0x2e>
    2264:	1843      	adds	r3, r0, r1
    2266:	f3c3 0347 	ubfx	r3, r3, #1, #8
    226a:	461e      	mov	r6, r3
    226c:	4a12      	ldr	r2, [pc, #72]	; (22b8 <_ext_irq_handler+0xc0>)
    226e:	f812 2033 	ldrb.w	r2, [r2, r3, lsl #3]
    2272:	42a2      	cmp	r2, r4
    2274:	d0d3      	beq.n	221e <_ext_irq_handler+0x26>
    2276:	42a2      	cmp	r2, r4
    2278:	daf0      	bge.n	225c <_ext_irq_handler+0x64>
    227a:	3301      	adds	r3, #1
    227c:	b2d9      	uxtb	r1, r3
    227e:	e7ef      	b.n	2260 <_ext_irq_handler+0x68>
    2280:	4b09      	ldr	r3, [pc, #36]	; (22a8 <_ext_irq_handler+0xb0>)
    2282:	695a      	ldr	r2, [r3, #20]
    2284:	9201      	str	r2, [sp, #4]
    2286:	9a01      	ldr	r2, [sp, #4]
    2288:	615a      	str	r2, [r3, #20]
    228a:	9b01      	ldr	r3, [sp, #4]
    228c:	b14b      	cbz	r3, 22a2 <_ext_irq_handler+0xaa>
    228e:	9b01      	ldr	r3, [sp, #4]
    2290:	fa93 f4a3 	rbit	r4, r3
    2294:	fab4 f484 	clz	r4, r4
    2298:	2b00      	cmp	r3, #0
    229a:	d1d9      	bne.n	2250 <_ext_irq_handler+0x58>
    229c:	f04f 34ff 	mov.w	r4, #4294967295
    22a0:	e7d6      	b.n	2250 <_ext_irq_handler+0x58>
    22a2:	b002      	add	sp, #8
    22a4:	bd70      	pop	{r4, r5, r6, pc}
    22a6:	bf00      	nop
    22a8:	40002800 	.word	0x40002800
    22ac:	200001e4 	.word	0x200001e4
    22b0:	000063f0 	.word	0x000063f0
    22b4:	00001c69 	.word	0x00001c69
    22b8:	000063e0 	.word	0x000063e0

000022bc <_ext_irq_init>:
    22bc:	4b33      	ldr	r3, [pc, #204]	; (238c <_ext_irq_init+0xd0>)
    22be:	685b      	ldr	r3, [r3, #4]
    22c0:	f013 0f01 	tst.w	r3, #1
    22c4:	d120      	bne.n	2308 <_ext_irq_init+0x4c>
    22c6:	4b31      	ldr	r3, [pc, #196]	; (238c <_ext_irq_init+0xd0>)
    22c8:	685b      	ldr	r3, [r3, #4]
    22ca:	f013 0f03 	tst.w	r3, #3
    22ce:	d1fa      	bne.n	22c6 <_ext_irq_init+0xa>
    22d0:	4b2e      	ldr	r3, [pc, #184]	; (238c <_ext_irq_init+0xd0>)
    22d2:	781b      	ldrb	r3, [r3, #0]
    22d4:	f013 0f02 	tst.w	r3, #2
    22d8:	d00e      	beq.n	22f8 <_ext_irq_init+0x3c>
    22da:	4a2c      	ldr	r2, [pc, #176]	; (238c <_ext_irq_init+0xd0>)
    22dc:	7813      	ldrb	r3, [r2, #0]
    22de:	f003 03fd 	and.w	r3, r3, #253	; 0xfd
    22e2:	7013      	strb	r3, [r2, #0]
    22e4:	4b29      	ldr	r3, [pc, #164]	; (238c <_ext_irq_init+0xd0>)
    22e6:	685b      	ldr	r3, [r3, #4]
    22e8:	f013 0f03 	tst.w	r3, #3
    22ec:	d1fa      	bne.n	22e4 <_ext_irq_init+0x28>
    22ee:	4b27      	ldr	r3, [pc, #156]	; (238c <_ext_irq_init+0xd0>)
    22f0:	685b      	ldr	r3, [r3, #4]
    22f2:	f013 0f02 	tst.w	r3, #2
    22f6:	d1fa      	bne.n	22ee <_ext_irq_init+0x32>
    22f8:	2201      	movs	r2, #1
    22fa:	4b24      	ldr	r3, [pc, #144]	; (238c <_ext_irq_init+0xd0>)
    22fc:	701a      	strb	r2, [r3, #0]
    22fe:	4b23      	ldr	r3, [pc, #140]	; (238c <_ext_irq_init+0xd0>)
    2300:	685b      	ldr	r3, [r3, #4]
    2302:	f013 0f03 	tst.w	r3, #3
    2306:	d1fa      	bne.n	22fe <_ext_irq_init+0x42>
    2308:	4b20      	ldr	r3, [pc, #128]	; (238c <_ext_irq_init+0xd0>)
    230a:	685b      	ldr	r3, [r3, #4]
    230c:	f013 0f01 	tst.w	r3, #1
    2310:	d1fa      	bne.n	2308 <_ext_irq_init+0x4c>
    2312:	4a1e      	ldr	r2, [pc, #120]	; (238c <_ext_irq_init+0xd0>)
    2314:	7813      	ldrb	r3, [r2, #0]
    2316:	f003 03ef 	and.w	r3, r3, #239	; 0xef
    231a:	7013      	strb	r3, [r2, #0]
    231c:	4b1b      	ldr	r3, [pc, #108]	; (238c <_ext_irq_init+0xd0>)
    231e:	685b      	ldr	r3, [r3, #4]
    2320:	f013 0f03 	tst.w	r3, #3
    2324:	d1fa      	bne.n	231c <_ext_irq_init+0x60>
    2326:	4b19      	ldr	r3, [pc, #100]	; (238c <_ext_irq_init+0xd0>)
    2328:	2200      	movs	r2, #0
    232a:	705a      	strb	r2, [r3, #1]
    232c:	609a      	str	r2, [r3, #8]
    232e:	f242 0104 	movw	r1, #8196	; 0x2004
    2332:	6199      	str	r1, [r3, #24]
    2334:	631a      	str	r2, [r3, #48]	; 0x30
    2336:	635a      	str	r2, [r3, #52]	; 0x34
    2338:	f44f 7280 	mov.w	r2, #256	; 0x100
    233c:	61da      	str	r2, [r3, #28]
    233e:	f44f 1280 	mov.w	r2, #1048576	; 0x100000
    2342:	621a      	str	r2, [r3, #32]
    2344:	781a      	ldrb	r2, [r3, #0]
    2346:	f042 0202 	orr.w	r2, r2, #2
    234a:	701a      	strb	r2, [r3, #0]
    234c:	4b0f      	ldr	r3, [pc, #60]	; (238c <_ext_irq_init+0xd0>)
    234e:	685b      	ldr	r3, [r3, #4]
    2350:	f013 0f03 	tst.w	r3, #3
    2354:	d1fa      	bne.n	234c <_ext_irq_init+0x90>
    NVIC->ICER[(((uint32_t)IRQn) >> 5UL)] = (uint32_t)(1UL << (((uint32_t)IRQn) & 0x1FUL));
    2356:	4b0e      	ldr	r3, [pc, #56]	; (2390 <_ext_irq_init+0xd4>)
    2358:	f44f 4280 	mov.w	r2, #16384	; 0x4000
    235c:	f8c3 2080 	str.w	r2, [r3, #128]	; 0x80
    2360:	f3bf 8f4f 	dsb	sy
  __ASM volatile ("isb 0xF":::"memory");
    2364:	f3bf 8f6f 	isb	sy
    NVIC->ICPR[(((uint32_t)IRQn) >> 5UL)] = (uint32_t)(1UL << (((uint32_t)IRQn) & 0x1FUL));
    2368:	f8c3 2180 	str.w	r2, [r3, #384]	; 0x180
    NVIC->ISER[(((uint32_t)IRQn) >> 5UL)] = (uint32_t)(1UL << (((uint32_t)IRQn) & 0x1FUL));
    236c:	601a      	str	r2, [r3, #0]
    NVIC->ICER[(((uint32_t)IRQn) >> 5UL)] = (uint32_t)(1UL << (((uint32_t)IRQn) & 0x1FUL));
    236e:	f04f 7200 	mov.w	r2, #33554432	; 0x2000000
    2372:	f8c3 2080 	str.w	r2, [r3, #128]	; 0x80
  __ASM volatile ("dsb 0xF":::"memory");
    2376:	f3bf 8f4f 	dsb	sy
  __ASM volatile ("isb 0xF":::"memory");
    237a:	f3bf 8f6f 	isb	sy
    NVIC->ICPR[(((uint32_t)IRQn) >> 5UL)] = (uint32_t)(1UL << (((uint32_t)IRQn) & 0x1FUL));
    237e:	f8c3 2180 	str.w	r2, [r3, #384]	; 0x180
    NVIC->ISER[(((uint32_t)IRQn) >> 5UL)] = (uint32_t)(1UL << (((uint32_t)IRQn) & 0x1FUL));
    2382:	601a      	str	r2, [r3, #0]
    2384:	4b03      	ldr	r3, [pc, #12]	; (2394 <_ext_irq_init+0xd8>)
    2386:	6018      	str	r0, [r3, #0]
    2388:	2000      	movs	r0, #0
    238a:	4770      	bx	lr
    238c:	40002800 	.word	0x40002800
    2390:	e000e100 	.word	0xe000e100
    2394:	200001e4 	.word	0x200001e4

00002398 <EIC_2_Handler>:
    2398:	b508      	push	{r3, lr}
    239a:	4b01      	ldr	r3, [pc, #4]	; (23a0 <EIC_2_Handler+0x8>)
    239c:	4798      	blx	r3
    239e:	bd08      	pop	{r3, pc}
    23a0:	000021f9 	.word	0x000021f9

000023a4 <EIC_13_Handler>:
    23a4:	b508      	push	{r3, lr}
    23a6:	4b01      	ldr	r3, [pc, #4]	; (23ac <EIC_13_Handler+0x8>)
    23a8:	4798      	blx	r3
    23aa:	bd08      	pop	{r3, pc}
    23ac:	000021f9 	.word	0x000021f9

000023b0 <_gclk_init_generators_by_fref>:
    23b0:	f010 0f01 	tst.w	r0, #1
    23b4:	d008      	beq.n	23c8 <_gclk_init_generators_by_fref+0x18>
    23b6:	4a0b      	ldr	r2, [pc, #44]	; (23e4 <_gclk_init_generators_by_fref+0x34>)
    23b8:	4b0b      	ldr	r3, [pc, #44]	; (23e8 <_gclk_init_generators_by_fref+0x38>)
    23ba:	621a      	str	r2, [r3, #32]
    23bc:	4b0a      	ldr	r3, [pc, #40]	; (23e8 <_gclk_init_generators_by_fref+0x38>)
    23be:	685a      	ldr	r2, [r3, #4]
    23c0:	f643 73fd 	movw	r3, #16381	; 0x3ffd
    23c4:	421a      	tst	r2, r3
    23c6:	d1f9      	bne.n	23bc <_gclk_init_generators_by_fref+0xc>
    23c8:	f010 0f02 	tst.w	r0, #2
    23cc:	d008      	beq.n	23e0 <_gclk_init_generators_by_fref+0x30>
    23ce:	4a07      	ldr	r2, [pc, #28]	; (23ec <_gclk_init_generators_by_fref+0x3c>)
    23d0:	4b05      	ldr	r3, [pc, #20]	; (23e8 <_gclk_init_generators_by_fref+0x38>)
    23d2:	625a      	str	r2, [r3, #36]	; 0x24
    23d4:	4b04      	ldr	r3, [pc, #16]	; (23e8 <_gclk_init_generators_by_fref+0x38>)
    23d6:	685a      	ldr	r2, [r3, #4]
    23d8:	f643 73fd 	movw	r3, #16381	; 0x3ffd
    23dc:	421a      	tst	r2, r3
    23de:	d1f9      	bne.n	23d4 <_gclk_init_generators_by_fref+0x24>
    23e0:	4770      	bx	lr
    23e2:	bf00      	nop
    23e4:	00012906 	.word	0x00012906
    23e8:	40001c00 	.word	0x40001c00
    23ec:	00010904 	.word	0x00010904

000023f0 <_mclk_init>:
    23f0:	2201      	movs	r2, #1
    23f2:	4b01      	ldr	r3, [pc, #4]	; (23f8 <_mclk_init+0x8>)
    23f4:	715a      	strb	r2, [r3, #5]
    23f6:	4770      	bx	lr
    23f8:	40000800 	.word	0x40000800

000023fc <_nvm_interrupt_handler>:
    23fc:	b508      	push	{r3, lr}
    23fe:	6903      	ldr	r3, [r0, #16]
    2400:	8a1a      	ldrh	r2, [r3, #16]
    2402:	f012 0f01 	tst.w	r2, #1
    2406:	d005      	beq.n	2414 <_nvm_interrupt_handler+0x18>
    2408:	2201      	movs	r2, #1
    240a:	821a      	strh	r2, [r3, #16]
    240c:	6803      	ldr	r3, [r0, #0]
    240e:	b153      	cbz	r3, 2426 <_nvm_interrupt_handler+0x2a>
    2410:	4798      	blx	r3
    2412:	bd08      	pop	{r3, pc}
    2414:	8a1a      	ldrh	r2, [r3, #16]
    2416:	b292      	uxth	r2, r2
    2418:	b12a      	cbz	r2, 2426 <_nvm_interrupt_handler+0x2a>
    241a:	f240 225e 	movw	r2, #606	; 0x25e
    241e:	821a      	strh	r2, [r3, #16]
    2420:	6843      	ldr	r3, [r0, #4]
    2422:	b103      	cbz	r3, 2426 <_nvm_interrupt_handler+0x2a>
    2424:	4798      	blx	r3
    2426:	bd08      	pop	{r3, pc}

00002428 <_flash_init>:
    2428:	b538      	push	{r3, r4, r5, lr}
    242a:	460c      	mov	r4, r1
    242c:	4605      	mov	r5, r0
    242e:	b350      	cbz	r0, 2486 <_flash_init+0x5e>
    2430:	4b17      	ldr	r3, [pc, #92]	; (2490 <_flash_init+0x68>)
    2432:	4299      	cmp	r1, r3
    2434:	d029      	beq.n	248a <_flash_init+0x62>
    2436:	2000      	movs	r0, #0
    2438:	224b      	movs	r2, #75	; 0x4b
    243a:	4916      	ldr	r1, [pc, #88]	; (2494 <_flash_init+0x6c>)
    243c:	4b16      	ldr	r3, [pc, #88]	; (2498 <_flash_init+0x70>)
    243e:	4798      	blx	r3
    2440:	612c      	str	r4, [r5, #16]
    2442:	8823      	ldrh	r3, [r4, #0]
    2444:	f3c3 030d 	ubfx	r3, r3, #0, #14
    2448:	f023 03c0 	bic.w	r3, r3, #192	; 0xc0
    244c:	b29b      	uxth	r3, r3
    244e:	8023      	strh	r3, [r4, #0]
    2450:	4b12      	ldr	r3, [pc, #72]	; (249c <_flash_init+0x74>)
    2452:	601d      	str	r5, [r3, #0]
    NVIC->ICER[(((uint32_t)IRQn) >> 5UL)] = (uint32_t)(1UL << (((uint32_t)IRQn) & 0x1FUL));
    2454:	4b12      	ldr	r3, [pc, #72]	; (24a0 <_flash_init+0x78>)
    2456:	f04f 5100 	mov.w	r1, #536870912	; 0x20000000
    245a:	f8c3 1080 	str.w	r1, [r3, #128]	; 0x80
  __ASM volatile ("dsb 0xF":::"memory");
    245e:	f3bf 8f4f 	dsb	sy
  __ASM volatile ("isb 0xF":::"memory");
    2462:	f3bf 8f6f 	isb	sy
    2466:	f04f 4280 	mov.w	r2, #1073741824	; 0x40000000
    246a:	f8c3 2080 	str.w	r2, [r3, #128]	; 0x80
  __ASM volatile ("dsb 0xF":::"memory");
    246e:	f3bf 8f4f 	dsb	sy
  __ASM volatile ("isb 0xF":::"memory");
    2472:	f3bf 8f6f 	isb	sy
    NVIC->ICPR[(((uint32_t)IRQn) >> 5UL)] = (uint32_t)(1UL << (((uint32_t)IRQn) & 0x1FUL));
    2476:	f8c3 1180 	str.w	r1, [r3, #384]	; 0x180
    247a:	f8c3 2180 	str.w	r2, [r3, #384]	; 0x180
    NVIC->ISER[(((uint32_t)IRQn) >> 5UL)] = (uint32_t)(1UL << (((uint32_t)IRQn) & 0x1FUL));
    247e:	6019      	str	r1, [r3, #0]
    2480:	601a      	str	r2, [r3, #0]
    2482:	2000      	movs	r0, #0
    2484:	bd38      	pop	{r3, r4, r5, pc}
    2486:	2000      	movs	r0, #0
    2488:	e7d6      	b.n	2438 <_flash_init+0x10>
    248a:	2001      	movs	r0, #1
    248c:	e7d4      	b.n	2438 <_flash_init+0x10>
    248e:	bf00      	nop
    2490:	41004000 	.word	0x41004000
    2494:	00006408 	.word	0x00006408
    2498:	00001c69 	.word	0x00001c69
    249c:	200001e8 	.word	0x200001e8
    24a0:	e000e100 	.word	0xe000e100

000024a4 <NVMCTRL_0_Handler>:
    24a4:	b508      	push	{r3, lr}
    24a6:	4b02      	ldr	r3, [pc, #8]	; (24b0 <NVMCTRL_0_Handler+0xc>)
    24a8:	6818      	ldr	r0, [r3, #0]
    24aa:	4b02      	ldr	r3, [pc, #8]	; (24b4 <NVMCTRL_0_Handler+0x10>)
    24ac:	4798      	blx	r3
    24ae:	bd08      	pop	{r3, pc}
    24b0:	200001e8 	.word	0x200001e8
    24b4:	000023fd 	.word	0x000023fd

000024b8 <NVMCTRL_1_Handler>:
    24b8:	b508      	push	{r3, lr}
    24ba:	4b02      	ldr	r3, [pc, #8]	; (24c4 <NVMCTRL_1_Handler+0xc>)
    24bc:	6818      	ldr	r0, [r3, #0]
    24be:	4b02      	ldr	r3, [pc, #8]	; (24c8 <NVMCTRL_1_Handler+0x10>)
    24c0:	4798      	blx	r3
    24c2:	bd08      	pop	{r3, pc}
    24c4:	200001e8 	.word	0x200001e8
    24c8:	000023fd 	.word	0x000023fd

000024cc <_osc32kctrl_init_sources>:
    24cc:	4b06      	ldr	r3, [pc, #24]	; (24e8 <_osc32kctrl_init_sources+0x1c>)
    24ce:	f242 0286 	movw	r2, #8326	; 0x2086
    24d2:	829a      	strh	r2, [r3, #20]
    24d4:	2200      	movs	r2, #0
    24d6:	759a      	strb	r2, [r3, #22]
    24d8:	75da      	strb	r2, [r3, #23]
    24da:	69da      	ldr	r2, [r3, #28]
    24dc:	f402 527c 	and.w	r2, r2, #16128	; 0x3f00
    24e0:	61da      	str	r2, [r3, #28]
    24e2:	2201      	movs	r2, #1
    24e4:	741a      	strb	r2, [r3, #16]
    24e6:	4770      	bx	lr
    24e8:	40001400 	.word	0x40001400

000024ec <_oscctrl_init_sources>:
    24ec:	4a04      	ldr	r2, [pc, #16]	; (2500 <_oscctrl_init_sources+0x14>)
    24ee:	4b05      	ldr	r3, [pc, #20]	; (2504 <_oscctrl_init_sources+0x18>)
    24f0:	619a      	str	r2, [r3, #24]
    24f2:	4b04      	ldr	r3, [pc, #16]	; (2504 <_oscctrl_init_sources+0x18>)
    24f4:	691b      	ldr	r3, [r3, #16]
    24f6:	f013 0f02 	tst.w	r3, #2
    24fa:	d0fa      	beq.n	24f2 <_oscctrl_init_sources+0x6>
    24fc:	4770      	bx	lr
    24fe:	bf00      	nop
    2500:	03002606 	.word	0x03002606
    2504:	40001000 	.word	0x40001000

00002508 <_oscctrl_init_referenced_generators>:
    2508:	4a36      	ldr	r2, [pc, #216]	; (25e4 <_oscctrl_init_referenced_generators+0xdc>)
    250a:	6a13      	ldr	r3, [r2, #32]
    250c:	f023 030f 	bic.w	r3, r3, #15
    2510:	f043 0304 	orr.w	r3, r3, #4
    2514:	6213      	str	r3, [r2, #32]
    2516:	4b33      	ldr	r3, [pc, #204]	; (25e4 <_oscctrl_init_referenced_generators+0xdc>)
    2518:	685a      	ldr	r2, [r3, #4]
    251a:	f643 73fd 	movw	r3, #16381	; 0x3ffd
    251e:	421a      	tst	r2, r3
    2520:	d1f9      	bne.n	2516 <_oscctrl_init_referenced_generators+0xe>
    2522:	4b30      	ldr	r3, [pc, #192]	; (25e4 <_oscctrl_init_referenced_generators+0xdc>)
    2524:	685b      	ldr	r3, [r3, #4]
    2526:	f013 0f04 	tst.w	r3, #4
    252a:	d1fa      	bne.n	2522 <_oscctrl_init_referenced_generators+0x1a>
    252c:	4b2e      	ldr	r3, [pc, #184]	; (25e8 <_oscctrl_init_referenced_generators+0xe0>)
    252e:	2200      	movs	r2, #0
    2530:	771a      	strb	r2, [r3, #28]
    2532:	4a2e      	ldr	r2, [pc, #184]	; (25ec <_oscctrl_init_referenced_generators+0xe4>)
    2534:	629a      	str	r2, [r3, #40]	; 0x28
    2536:	4b2c      	ldr	r3, [pc, #176]	; (25e8 <_oscctrl_init_referenced_generators+0xe0>)
    2538:	f893 302c 	ldrb.w	r3, [r3, #44]	; 0x2c
    253c:	f013 0f10 	tst.w	r3, #16
    2540:	d1f9      	bne.n	2536 <_oscctrl_init_referenced_generators+0x2e>
    2542:	2200      	movs	r2, #0
    2544:	4b28      	ldr	r3, [pc, #160]	; (25e8 <_oscctrl_init_referenced_generators+0xe0>)
    2546:	f883 2020 	strb.w	r2, [r3, #32]
    254a:	4b27      	ldr	r3, [pc, #156]	; (25e8 <_oscctrl_init_referenced_generators+0xe0>)
    254c:	f893 302c 	ldrb.w	r3, [r3, #44]	; 0x2c
    2550:	f013 0f04 	tst.w	r3, #4
    2554:	d1f9      	bne.n	254a <_oscctrl_init_referenced_generators+0x42>
    2556:	2202      	movs	r2, #2
    2558:	4b23      	ldr	r3, [pc, #140]	; (25e8 <_oscctrl_init_referenced_generators+0xe0>)
    255a:	771a      	strb	r2, [r3, #28]
    255c:	4b22      	ldr	r3, [pc, #136]	; (25e8 <_oscctrl_init_referenced_generators+0xe0>)
    255e:	f893 302c 	ldrb.w	r3, [r3, #44]	; 0x2c
    2562:	f013 0f02 	tst.w	r3, #2
    2566:	d1f9      	bne.n	255c <_oscctrl_init_referenced_generators+0x54>
    2568:	4b1f      	ldr	r3, [pc, #124]	; (25e8 <_oscctrl_init_referenced_generators+0xe0>)
    256a:	6a5a      	ldr	r2, [r3, #36]	; 0x24
    256c:	625a      	str	r2, [r3, #36]	; 0x24
    256e:	4b1e      	ldr	r3, [pc, #120]	; (25e8 <_oscctrl_init_referenced_generators+0xe0>)
    2570:	f893 302c 	ldrb.w	r3, [r3, #44]	; 0x2c
    2574:	f013 0f08 	tst.w	r3, #8
    2578:	d1f9      	bne.n	256e <_oscctrl_init_referenced_generators+0x66>
    257a:	2280      	movs	r2, #128	; 0x80
    257c:	4b1a      	ldr	r3, [pc, #104]	; (25e8 <_oscctrl_init_referenced_generators+0xe0>)
    257e:	f883 2020 	strb.w	r2, [r3, #32]
    2582:	4b19      	ldr	r3, [pc, #100]	; (25e8 <_oscctrl_init_referenced_generators+0xe0>)
    2584:	f893 302c 	ldrb.w	r3, [r3, #44]	; 0x2c
    2588:	f013 0f04 	tst.w	r3, #4
    258c:	d1f9      	bne.n	2582 <_oscctrl_init_referenced_generators+0x7a>
    258e:	4b16      	ldr	r3, [pc, #88]	; (25e8 <_oscctrl_init_referenced_generators+0xe0>)
    2590:	f893 3020 	ldrb.w	r3, [r3, #32]
    2594:	f013 0f01 	tst.w	r3, #1
    2598:	d01d      	beq.n	25d6 <_oscctrl_init_referenced_generators+0xce>
    259a:	4b13      	ldr	r3, [pc, #76]	; (25e8 <_oscctrl_init_referenced_generators+0xe0>)
    259c:	691b      	ldr	r3, [r3, #16]
    259e:	f403 6310 	and.w	r3, r3, #2304	; 0x900
    25a2:	f5b3 6f10 	cmp.w	r3, #2304	; 0x900
    25a6:	d1f8      	bne.n	259a <_oscctrl_init_referenced_generators+0x92>
    25a8:	4b0e      	ldr	r3, [pc, #56]	; (25e4 <_oscctrl_init_referenced_generators+0xdc>)
    25aa:	685b      	ldr	r3, [r3, #4]
    25ac:	2b00      	cmp	r3, #0
    25ae:	d1fb      	bne.n	25a8 <_oscctrl_init_referenced_generators+0xa0>
    25b0:	4a0c      	ldr	r2, [pc, #48]	; (25e4 <_oscctrl_init_referenced_generators+0xdc>)
    25b2:	6a13      	ldr	r3, [r2, #32]
    25b4:	f023 030f 	bic.w	r3, r3, #15
    25b8:	f043 0306 	orr.w	r3, r3, #6
    25bc:	6213      	str	r3, [r2, #32]
    25be:	4b09      	ldr	r3, [pc, #36]	; (25e4 <_oscctrl_init_referenced_generators+0xdc>)
    25c0:	685a      	ldr	r2, [r3, #4]
    25c2:	f643 73fd 	movw	r3, #16381	; 0x3ffd
    25c6:	421a      	tst	r2, r3
    25c8:	d1f9      	bne.n	25be <_oscctrl_init_referenced_generators+0xb6>
    25ca:	4b06      	ldr	r3, [pc, #24]	; (25e4 <_oscctrl_init_referenced_generators+0xdc>)
    25cc:	685b      	ldr	r3, [r3, #4]
    25ce:	f013 0f04 	tst.w	r3, #4
    25d2:	d1fa      	bne.n	25ca <_oscctrl_init_referenced_generators+0xc2>
    25d4:	4770      	bx	lr
    25d6:	4b04      	ldr	r3, [pc, #16]	; (25e8 <_oscctrl_init_referenced_generators+0xe0>)
    25d8:	691b      	ldr	r3, [r3, #16]
    25da:	f413 7f80 	tst.w	r3, #256	; 0x100
    25de:	d0fa      	beq.n	25d6 <_oscctrl_init_referenced_generators+0xce>
    25e0:	e7e2      	b.n	25a8 <_oscctrl_init_referenced_generators+0xa0>
    25e2:	bf00      	nop
    25e4:	40001c00 	.word	0x40001c00
    25e8:	40001000 	.word	0x40001000
    25ec:	04010000 	.word	0x04010000

000025f0 <_set_sleep_mode>:
    25f0:	2802      	cmp	r0, #2
    25f2:	d003      	beq.n	25fc <_set_sleep_mode+0xc>
    25f4:	d310      	bcc.n	2618 <_set_sleep_mode+0x28>
    25f6:	1f03      	subs	r3, r0, #4
    25f8:	2b03      	cmp	r3, #3
    25fa:	d80d      	bhi.n	2618 <_set_sleep_mode+0x28>
    25fc:	4b09      	ldr	r3, [pc, #36]	; (2624 <_set_sleep_mode+0x34>)
    25fe:	7058      	strb	r0, [r3, #1]
    2600:	230a      	movs	r3, #10
    2602:	4a08      	ldr	r2, [pc, #32]	; (2624 <_set_sleep_mode+0x34>)
    2604:	7852      	ldrb	r2, [r2, #1]
    2606:	b2d2      	uxtb	r2, r2
    2608:	4290      	cmp	r0, r2
    260a:	d008      	beq.n	261e <_set_sleep_mode+0x2e>
    260c:	3b01      	subs	r3, #1
    260e:	f013 03ff 	ands.w	r3, r3, #255	; 0xff
    2612:	d1f6      	bne.n	2602 <_set_sleep_mode+0x12>
    2614:	2000      	movs	r0, #0
    2616:	4770      	bx	lr
    2618:	f06f 000c 	mvn.w	r0, #12
    261c:	4770      	bx	lr
    261e:	2000      	movs	r0, #0
    2620:	4770      	bx	lr
    2622:	bf00      	nop
    2624:	40000400 	.word	0x40000400

00002628 <RAMECC_Handler>:
    2628:	b500      	push	{lr}
    262a:	b083      	sub	sp, #12
    262c:	4b0d      	ldr	r3, [pc, #52]	; (2664 <RAMECC_Handler+0x3c>)
    262e:	789b      	ldrb	r3, [r3, #2]
    2630:	b2db      	uxtb	r3, r3
    2632:	9301      	str	r3, [sp, #4]
    2634:	9b01      	ldr	r3, [sp, #4]
    2636:	f013 0f02 	tst.w	r3, #2
    263a:	d006      	beq.n	264a <RAMECC_Handler+0x22>
    263c:	4b0a      	ldr	r3, [pc, #40]	; (2668 <RAMECC_Handler+0x40>)
    263e:	681b      	ldr	r3, [r3, #0]
    2640:	b11b      	cbz	r3, 264a <RAMECC_Handler+0x22>
    2642:	4a08      	ldr	r2, [pc, #32]	; (2664 <RAMECC_Handler+0x3c>)
    2644:	6850      	ldr	r0, [r2, #4]
    2646:	4798      	blx	r3
    2648:	e009      	b.n	265e <RAMECC_Handler+0x36>
    264a:	9b01      	ldr	r3, [sp, #4]
    264c:	f013 0f01 	tst.w	r3, #1
    2650:	d005      	beq.n	265e <RAMECC_Handler+0x36>
    2652:	4b05      	ldr	r3, [pc, #20]	; (2668 <RAMECC_Handler+0x40>)
    2654:	685b      	ldr	r3, [r3, #4]
    2656:	b113      	cbz	r3, 265e <RAMECC_Handler+0x36>
    2658:	4a02      	ldr	r2, [pc, #8]	; (2664 <RAMECC_Handler+0x3c>)
    265a:	6850      	ldr	r0, [r2, #4]
    265c:	4798      	blx	r3
    265e:	b003      	add	sp, #12
    2660:	f85d fb04 	ldr.w	pc, [sp], #4
    2664:	41020000 	.word	0x41020000
    2668:	2000067c 	.word	0x2000067c

0000266c <_rtc_timer_interrupt_handler>:
    266c:	68c3      	ldr	r3, [r0, #12]
    266e:	899b      	ldrh	r3, [r3, #12]
    2670:	f413 7f80 	tst.w	r3, #256	; 0x100
    2674:	d009      	beq.n	268a <_rtc_timer_interrupt_handler+0x1e>
    2676:	b510      	push	{r4, lr}
    2678:	4604      	mov	r4, r0
    267a:	6803      	ldr	r3, [r0, #0]
    267c:	b103      	cbz	r3, 2680 <_rtc_timer_interrupt_handler+0x14>
    267e:	4798      	blx	r3
    2680:	68e3      	ldr	r3, [r4, #12]
    2682:	f44f 7280 	mov.w	r2, #256	; 0x100
    2686:	819a      	strh	r2, [r3, #12]
    2688:	bd10      	pop	{r4, pc}
    268a:	4770      	bx	lr

0000268c <_timer_init>:
    268c:	b538      	push	{r3, r4, r5, lr}
    268e:	460d      	mov	r5, r1
    2690:	4604      	mov	r4, r0
    2692:	2230      	movs	r2, #48	; 0x30
    2694:	4914      	ldr	r1, [pc, #80]	; (26e8 <_timer_init+0x5c>)
    2696:	3000      	adds	r0, #0
    2698:	bf18      	it	ne
    269a:	2001      	movne	r0, #1
    269c:	4b13      	ldr	r3, [pc, #76]	; (26ec <_timer_init+0x60>)
    269e:	4798      	blx	r3
    26a0:	60e5      	str	r5, [r4, #12]
    26a2:	2301      	movs	r3, #1
    26a4:	802b      	strh	r3, [r5, #0]
    26a6:	692a      	ldr	r2, [r5, #16]
    26a8:	f248 0303 	movw	r3, #32771	; 0x8003
    26ac:	421a      	tst	r2, r3
    26ae:	d1fa      	bne.n	26a6 <_timer_init+0x1a>
    26b0:	68e3      	ldr	r3, [r4, #12]
    26b2:	691a      	ldr	r2, [r3, #16]
    26b4:	f012 0f01 	tst.w	r2, #1
    26b8:	d1fb      	bne.n	26b2 <_timer_init+0x26>
    26ba:	f248 0280 	movw	r2, #32896	; 0x8080
    26be:	801a      	strh	r2, [r3, #0]
    26c0:	6919      	ldr	r1, [r3, #16]
    26c2:	f248 0203 	movw	r2, #32771	; 0x8003
    26c6:	4211      	tst	r1, r2
    26c8:	d1fa      	bne.n	26c0 <_timer_init+0x34>
    26ca:	68e2      	ldr	r2, [r4, #12]
    26cc:	2320      	movs	r3, #32
    26ce:	6213      	str	r3, [r2, #32]
    26d0:	6913      	ldr	r3, [r2, #16]
    26d2:	f013 0f60 	tst.w	r3, #96	; 0x60
    26d6:	d1fb      	bne.n	26d0 <_timer_init+0x44>
    26d8:	68e3      	ldr	r3, [r4, #12]
    26da:	f44f 7280 	mov.w	r2, #256	; 0x100
    26de:	815a      	strh	r2, [r3, #10]
    26e0:	4b03      	ldr	r3, [pc, #12]	; (26f0 <_timer_init+0x64>)
    26e2:	601c      	str	r4, [r3, #0]
    26e4:	2000      	movs	r0, #0
    26e6:	bd38      	pop	{r3, r4, r5, pc}
    26e8:	00006428 	.word	0x00006428
    26ec:	00001c69 	.word	0x00001c69
    26f0:	200001ec 	.word	0x200001ec

000026f4 <_rtc_get_timer>:
    26f4:	2000      	movs	r0, #0
    26f6:	4770      	bx	lr

000026f8 <RTC_Handler>:
    26f8:	b508      	push	{r3, lr}
    26fa:	4b02      	ldr	r3, [pc, #8]	; (2704 <RTC_Handler+0xc>)
    26fc:	6818      	ldr	r0, [r3, #0]
    26fe:	4b02      	ldr	r3, [pc, #8]	; (2708 <RTC_Handler+0x10>)
    2700:	4798      	blx	r3
    2702:	bd08      	pop	{r3, pc}
    2704:	200001ec 	.word	0x200001ec
    2708:	0000266d 	.word	0x0000266d

0000270c <_sercom_get_hardware_index>:
    270c:	b470      	push	{r4, r5, r6}
    270e:	b087      	sub	sp, #28
    2710:	4606      	mov	r6, r0
    2712:	466c      	mov	r4, sp
    2714:	4d0c      	ldr	r5, [pc, #48]	; (2748 <_sercom_get_hardware_index+0x3c>)
    2716:	cd0f      	ldmia	r5!, {r0, r1, r2, r3}
    2718:	c40f      	stmia	r4!, {r0, r1, r2, r3}
    271a:	e895 0003 	ldmia.w	r5, {r0, r1}
    271e:	e884 0003 	stmia.w	r4, {r0, r1}
    2722:	2000      	movs	r0, #0
    2724:	2805      	cmp	r0, #5
    2726:	d80a      	bhi.n	273e <_sercom_get_hardware_index+0x32>
    2728:	ab06      	add	r3, sp, #24
    272a:	eb03 0380 	add.w	r3, r3, r0, lsl #2
    272e:	f853 3c18 	ldr.w	r3, [r3, #-24]
    2732:	42b3      	cmp	r3, r6
    2734:	d001      	beq.n	273a <_sercom_get_hardware_index+0x2e>
    2736:	3001      	adds	r0, #1
    2738:	e7f4      	b.n	2724 <_sercom_get_hardware_index+0x18>
    273a:	b2c0      	uxtb	r0, r0
    273c:	e000      	b.n	2740 <_sercom_get_hardware_index+0x34>
    273e:	2000      	movs	r0, #0
    2740:	b007      	add	sp, #28
    2742:	bc70      	pop	{r4, r5, r6}
    2744:	4770      	bx	lr
    2746:	bf00      	nop
    2748:	00006440 	.word	0x00006440

0000274c <_sercom_usart_interrupt_handler>:
    274c:	b510      	push	{r4, lr}
    274e:	6984      	ldr	r4, [r0, #24]
    2750:	7e23      	ldrb	r3, [r4, #24]
    2752:	f013 0f01 	tst.w	r3, #1
    2756:	d003      	beq.n	2760 <_sercom_usart_interrupt_handler+0x14>
    2758:	7da3      	ldrb	r3, [r4, #22]
    275a:	f013 0f01 	tst.w	r3, #1
    275e:	d112      	bne.n	2786 <_sercom_usart_interrupt_handler+0x3a>
    2760:	7e23      	ldrb	r3, [r4, #24]
    2762:	f013 0f02 	tst.w	r3, #2
    2766:	d003      	beq.n	2770 <_sercom_usart_interrupt_handler+0x24>
    2768:	7da3      	ldrb	r3, [r4, #22]
    276a:	f013 0f02 	tst.w	r3, #2
    276e:	d10f      	bne.n	2790 <_sercom_usart_interrupt_handler+0x44>
    2770:	7e23      	ldrb	r3, [r4, #24]
    2772:	f013 0f04 	tst.w	r3, #4
    2776:	d015      	beq.n	27a4 <_sercom_usart_interrupt_handler+0x58>
    2778:	8b63      	ldrh	r3, [r4, #26]
    277a:	f003 0337 	and.w	r3, r3, #55	; 0x37
    277e:	b163      	cbz	r3, 279a <_sercom_usart_interrupt_handler+0x4e>
    2780:	23ff      	movs	r3, #255	; 0xff
    2782:	8363      	strh	r3, [r4, #26]
    2784:	bd10      	pop	{r4, pc}
    2786:	2301      	movs	r3, #1
    2788:	7523      	strb	r3, [r4, #20]
    278a:	6803      	ldr	r3, [r0, #0]
    278c:	4798      	blx	r3
    278e:	bd10      	pop	{r4, pc}
    2790:	2302      	movs	r3, #2
    2792:	7523      	strb	r3, [r4, #20]
    2794:	6883      	ldr	r3, [r0, #8]
    2796:	4798      	blx	r3
    2798:	bd10      	pop	{r4, pc}
    279a:	6843      	ldr	r3, [r0, #4]
    279c:	6aa1      	ldr	r1, [r4, #40]	; 0x28
    279e:	b2c9      	uxtb	r1, r1
    27a0:	4798      	blx	r3
    27a2:	bd10      	pop	{r4, pc}
    27a4:	7e23      	ldrb	r3, [r4, #24]
    27a6:	09db      	lsrs	r3, r3, #7
    27a8:	d100      	bne.n	27ac <_sercom_usart_interrupt_handler+0x60>
    27aa:	bd10      	pop	{r4, pc}
    27ac:	2380      	movs	r3, #128	; 0x80
    27ae:	7623      	strb	r3, [r4, #24]
    27b0:	68c3      	ldr	r3, [r0, #12]
    27b2:	4798      	blx	r3
    27b4:	8b63      	ldrh	r3, [r4, #26]
    27b6:	b29b      	uxth	r3, r3
    27b8:	8363      	strh	r3, [r4, #26]
    27ba:	e7f6      	b.n	27aa <_sercom_usart_interrupt_handler+0x5e>

000027bc <_sercom_init_irq_param>:
    27bc:	4b06      	ldr	r3, [pc, #24]	; (27d8 <_sercom_init_irq_param+0x1c>)
    27be:	4298      	cmp	r0, r3
    27c0:	d003      	beq.n	27ca <_sercom_init_irq_param+0xe>
    27c2:	4b06      	ldr	r3, [pc, #24]	; (27dc <_sercom_init_irq_param+0x20>)
    27c4:	4298      	cmp	r0, r3
    27c6:	d003      	beq.n	27d0 <_sercom_init_irq_param+0x14>
    27c8:	4770      	bx	lr
    27ca:	4b05      	ldr	r3, [pc, #20]	; (27e0 <_sercom_init_irq_param+0x24>)
    27cc:	6019      	str	r1, [r3, #0]
    27ce:	e7f8      	b.n	27c2 <_sercom_init_irq_param+0x6>
    27d0:	4b03      	ldr	r3, [pc, #12]	; (27e0 <_sercom_init_irq_param+0x24>)
    27d2:	6059      	str	r1, [r3, #4]
    27d4:	e7f8      	b.n	27c8 <_sercom_init_irq_param+0xc>
    27d6:	bf00      	nop
    27d8:	40003000 	.word	0x40003000
    27dc:	41012000 	.word	0x41012000
    27e0:	200001f0 	.word	0x200001f0

000027e4 <_sercom_get_irq_num>:
    27e4:	b508      	push	{r3, lr}
    27e6:	4b04      	ldr	r3, [pc, #16]	; (27f8 <_sercom_get_irq_num+0x14>)
    27e8:	4798      	blx	r3
    27ea:	0080      	lsls	r0, r0, #2
    27ec:	b2c0      	uxtb	r0, r0
    27ee:	302e      	adds	r0, #46	; 0x2e
    27f0:	f000 00fe 	and.w	r0, r0, #254	; 0xfe
    27f4:	bd08      	pop	{r3, pc}
    27f6:	bf00      	nop
    27f8:	0000270d 	.word	0x0000270d

000027fc <_spi_sync_enable>:
    27fc:	69c3      	ldr	r3, [r0, #28]
    27fe:	f013 0f01 	tst.w	r3, #1
    2802:	d109      	bne.n	2818 <_spi_sync_enable+0x1c>
    2804:	6803      	ldr	r3, [r0, #0]
    2806:	f043 0302 	orr.w	r3, r3, #2
    280a:	6003      	str	r3, [r0, #0]
    280c:	69c3      	ldr	r3, [r0, #28]
    280e:	f013 0f03 	tst.w	r3, #3
    2812:	d1fb      	bne.n	280c <_spi_sync_enable+0x10>
    2814:	2000      	movs	r0, #0
    2816:	4770      	bx	lr
    2818:	f06f 0003 	mvn.w	r0, #3
    281c:	4770      	bx	lr
	...

00002820 <_get_sercom_index>:
    2820:	b508      	push	{r3, lr}
    2822:	4b0c      	ldr	r3, [pc, #48]	; (2854 <_get_sercom_index+0x34>)
    2824:	4798      	blx	r3
    2826:	2300      	movs	r3, #0
    2828:	2b01      	cmp	r3, #1
    282a:	d80a      	bhi.n	2842 <_get_sercom_index+0x22>
    282c:	eb03 0243 	add.w	r2, r3, r3, lsl #1
    2830:	00d1      	lsls	r1, r2, #3
    2832:	4a09      	ldr	r2, [pc, #36]	; (2858 <_get_sercom_index+0x38>)
    2834:	440a      	add	r2, r1
    2836:	7e12      	ldrb	r2, [r2, #24]
    2838:	4290      	cmp	r0, r2
    283a:	d009      	beq.n	2850 <_get_sercom_index+0x30>
    283c:	3301      	adds	r3, #1
    283e:	b2db      	uxtb	r3, r3
    2840:	e7f2      	b.n	2828 <_get_sercom_index+0x8>
    2842:	f240 226d 	movw	r2, #621	; 0x26d
    2846:	4905      	ldr	r1, [pc, #20]	; (285c <_get_sercom_index+0x3c>)
    2848:	2000      	movs	r0, #0
    284a:	4b05      	ldr	r3, [pc, #20]	; (2860 <_get_sercom_index+0x40>)
    284c:	4798      	blx	r3
    284e:	2300      	movs	r3, #0
    2850:	4618      	mov	r0, r3
    2852:	bd08      	pop	{r3, pc}
    2854:	0000270d 	.word	0x0000270d
    2858:	00006440 	.word	0x00006440
    285c:	000064c4 	.word	0x000064c4
    2860:	00001c69 	.word	0x00001c69

00002864 <_usart_init>:
    2864:	b538      	push	{r3, r4, r5, lr}
    2866:	4604      	mov	r4, r0
    2868:	4b3c      	ldr	r3, [pc, #240]	; (295c <_usart_init+0xf8>)
    286a:	4798      	blx	r3
    286c:	69e3      	ldr	r3, [r4, #28]
    286e:	f013 0f01 	tst.w	r3, #1
    2872:	d122      	bne.n	28ba <_usart_init+0x56>
    2874:	eb00 0340 	add.w	r3, r0, r0, lsl #1
    2878:	00da      	lsls	r2, r3, #3
    287a:	4b39      	ldr	r3, [pc, #228]	; (2960 <_usart_init+0xfc>)
    287c:	4413      	add	r3, r2
    287e:	69da      	ldr	r2, [r3, #28]
    2880:	f002 021c 	and.w	r2, r2, #28
    2884:	69e3      	ldr	r3, [r4, #28]
    2886:	f013 0f03 	tst.w	r3, #3
    288a:	d1fb      	bne.n	2884 <_usart_init+0x20>
    288c:	6823      	ldr	r3, [r4, #0]
    288e:	f013 0f02 	tst.w	r3, #2
    2892:	d00b      	beq.n	28ac <_usart_init+0x48>
    2894:	6823      	ldr	r3, [r4, #0]
    2896:	f023 0302 	bic.w	r3, r3, #2
    289a:	6023      	str	r3, [r4, #0]
    289c:	69e3      	ldr	r3, [r4, #28]
    289e:	f013 0f03 	tst.w	r3, #3
    28a2:	d1fb      	bne.n	289c <_usart_init+0x38>
    28a4:	69e3      	ldr	r3, [r4, #28]
    28a6:	f013 0f02 	tst.w	r3, #2
    28aa:	d1fb      	bne.n	28a4 <_usart_init+0x40>
    28ac:	f042 0201 	orr.w	r2, r2, #1
    28b0:	6022      	str	r2, [r4, #0]
    28b2:	69e3      	ldr	r3, [r4, #28]
    28b4:	f013 0f03 	tst.w	r3, #3
    28b8:	d1fb      	bne.n	28b2 <_usart_init+0x4e>
    28ba:	69e3      	ldr	r3, [r4, #28]
    28bc:	f013 0f01 	tst.w	r3, #1
    28c0:	d1fb      	bne.n	28ba <_usart_init+0x56>
    28c2:	eb00 0340 	add.w	r3, r0, r0, lsl #1
    28c6:	00da      	lsls	r2, r3, #3
    28c8:	4b25      	ldr	r3, [pc, #148]	; (2960 <_usart_init+0xfc>)
    28ca:	4413      	add	r3, r2
    28cc:	69db      	ldr	r3, [r3, #28]
    28ce:	6023      	str	r3, [r4, #0]
    28d0:	69e3      	ldr	r3, [r4, #28]
    28d2:	f013 0f03 	tst.w	r3, #3
    28d6:	d1fb      	bne.n	28d0 <_usart_init+0x6c>
    28d8:	eb00 0340 	add.w	r3, r0, r0, lsl #1
    28dc:	00da      	lsls	r2, r3, #3
    28de:	4b20      	ldr	r3, [pc, #128]	; (2960 <_usart_init+0xfc>)
    28e0:	4413      	add	r3, r2
    28e2:	6a1b      	ldr	r3, [r3, #32]
    28e4:	6063      	str	r3, [r4, #4]
    28e6:	69e3      	ldr	r3, [r4, #28]
    28e8:	f013 0f1f 	tst.w	r3, #31
    28ec:	d1fb      	bne.n	28e6 <_usart_init+0x82>
    28ee:	0042      	lsls	r2, r0, #1
    28f0:	4402      	add	r2, r0
    28f2:	00d1      	lsls	r1, r2, #3
    28f4:	4b1a      	ldr	r3, [pc, #104]	; (2960 <_usart_init+0xfc>)
    28f6:	440b      	add	r3, r1
    28f8:	6a5a      	ldr	r2, [r3, #36]	; 0x24
    28fa:	60a2      	str	r2, [r4, #8]
    28fc:	69db      	ldr	r3, [r3, #28]
    28fe:	f413 5f00 	tst.w	r3, #8192	; 0x2000
    2902:	d10a      	bne.n	291a <_usart_init+0xb6>
    2904:	f413 4fc0 	tst.w	r3, #24576	; 0x6000
    2908:	d107      	bne.n	291a <_usart_init+0xb6>
    290a:	eb00 0340 	add.w	r3, r0, r0, lsl #1
    290e:	00da      	lsls	r2, r3, #3
    2910:	4b13      	ldr	r3, [pc, #76]	; (2960 <_usart_init+0xfc>)
    2912:	4413      	add	r3, r2
    2914:	8d1b      	ldrh	r3, [r3, #40]	; 0x28
    2916:	81a3      	strh	r3, [r4, #12]
    2918:	e00f      	b.n	293a <_usart_init+0xd6>
    291a:	0042      	lsls	r2, r0, #1
    291c:	4402      	add	r2, r0
    291e:	00d1      	lsls	r1, r2, #3
    2920:	4b0f      	ldr	r3, [pc, #60]	; (2960 <_usart_init+0xfc>)
    2922:	440b      	add	r3, r1
    2924:	8d19      	ldrh	r1, [r3, #40]	; 0x28
    2926:	89a2      	ldrh	r2, [r4, #12]
    2928:	f361 020c 	bfi	r2, r1, #0, #13
    292c:	81a2      	strh	r2, [r4, #12]
    292e:	f893 202a 	ldrb.w	r2, [r3, #42]	; 0x2a
    2932:	89a3      	ldrh	r3, [r4, #12]
    2934:	f362 334f 	bfi	r3, r2, #13, #3
    2938:	81a3      	strh	r3, [r4, #12]
    293a:	4a09      	ldr	r2, [pc, #36]	; (2960 <_usart_init+0xfc>)
    293c:	0043      	lsls	r3, r0, #1
    293e:	181d      	adds	r5, r3, r0
    2940:	00e9      	lsls	r1, r5, #3
    2942:	460d      	mov	r5, r1
    2944:	4411      	add	r1, r2
    2946:	f891 102b 	ldrb.w	r1, [r1, #43]	; 0x2b
    294a:	73a1      	strb	r1, [r4, #14]
    294c:	442a      	add	r2, r5
    294e:	f892 302c 	ldrb.w	r3, [r2, #44]	; 0x2c
    2952:	f884 3030 	strb.w	r3, [r4, #48]	; 0x30
    2956:	2000      	movs	r0, #0
    2958:	bd38      	pop	{r3, r4, r5, pc}
    295a:	bf00      	nop
    295c:	00002821 	.word	0x00002821
    2960:	00006440 	.word	0x00006440

00002964 <_get_i2cm_index>:
    2964:	b508      	push	{r3, lr}
    2966:	4b0d      	ldr	r3, [pc, #52]	; (299c <_get_i2cm_index+0x38>)
    2968:	4798      	blx	r3
    296a:	2300      	movs	r3, #0
    296c:	b143      	cbz	r3, 2980 <_get_i2cm_index+0x1c>
    296e:	f44f 7275 	mov.w	r2, #980	; 0x3d4
    2972:	490b      	ldr	r1, [pc, #44]	; (29a0 <_get_i2cm_index+0x3c>)
    2974:	2000      	movs	r0, #0
    2976:	4b0b      	ldr	r3, [pc, #44]	; (29a4 <_get_i2cm_index+0x40>)
    2978:	4798      	blx	r3
    297a:	f04f 30ff 	mov.w	r0, #4294967295
    297e:	bd08      	pop	{r3, pc}
    2980:	eb03 0243 	add.w	r2, r3, r3, lsl #1
    2984:	00d1      	lsls	r1, r2, #3
    2986:	4a08      	ldr	r2, [pc, #32]	; (29a8 <_get_i2cm_index+0x44>)
    2988:	440a      	add	r2, r1
    298a:	f892 2048 	ldrb.w	r2, [r2, #72]	; 0x48
    298e:	4290      	cmp	r0, r2
    2990:	d002      	beq.n	2998 <_get_i2cm_index+0x34>
    2992:	3301      	adds	r3, #1
    2994:	b2db      	uxtb	r3, r3
    2996:	e7e9      	b.n	296c <_get_i2cm_index+0x8>
    2998:	b258      	sxtb	r0, r3
    299a:	bd08      	pop	{r3, pc}
    299c:	0000270d 	.word	0x0000270d
    29a0:	000064c4 	.word	0x000064c4
    29a4:	00001c69 	.word	0x00001c69
    29a8:	00006440 	.word	0x00006440

000029ac <_i2c_m_sync_init_impl>:
    29ac:	b538      	push	{r3, r4, r5, lr}
    29ae:	4605      	mov	r5, r0
    29b0:	460c      	mov	r4, r1
    29b2:	4608      	mov	r0, r1
    29b4:	4b33      	ldr	r3, [pc, #204]	; (2a84 <_i2c_m_sync_init_impl+0xd8>)
    29b6:	4798      	blx	r3
    29b8:	b2c0      	uxtb	r0, r0
    29ba:	69e3      	ldr	r3, [r4, #28]
    29bc:	f013 0f01 	tst.w	r3, #1
    29c0:	d122      	bne.n	2a08 <_i2c_m_sync_init_impl+0x5c>
    29c2:	eb00 0340 	add.w	r3, r0, r0, lsl #1
    29c6:	00da      	lsls	r2, r3, #3
    29c8:	4b2f      	ldr	r3, [pc, #188]	; (2a88 <_i2c_m_sync_init_impl+0xdc>)
    29ca:	4413      	add	r3, r2
    29cc:	6cda      	ldr	r2, [r3, #76]	; 0x4c
    29ce:	f002 021c 	and.w	r2, r2, #28
    29d2:	69e3      	ldr	r3, [r4, #28]
    29d4:	f013 0f03 	tst.w	r3, #3
    29d8:	d1fb      	bne.n	29d2 <_i2c_m_sync_init_impl+0x26>
    29da:	6823      	ldr	r3, [r4, #0]
    29dc:	f013 0f02 	tst.w	r3, #2
    29e0:	d00b      	beq.n	29fa <_i2c_m_sync_init_impl+0x4e>
    29e2:	6823      	ldr	r3, [r4, #0]
    29e4:	f023 0302 	bic.w	r3, r3, #2
    29e8:	6023      	str	r3, [r4, #0]
    29ea:	69e3      	ldr	r3, [r4, #28]
    29ec:	f013 0f03 	tst.w	r3, #3
    29f0:	d1fb      	bne.n	29ea <_i2c_m_sync_init_impl+0x3e>
    29f2:	69e3      	ldr	r3, [r4, #28]
    29f4:	f013 0f02 	tst.w	r3, #2
    29f8:	d1fb      	bne.n	29f2 <_i2c_m_sync_init_impl+0x46>
    29fa:	f042 0201 	orr.w	r2, r2, #1
    29fe:	6022      	str	r2, [r4, #0]
    2a00:	69e3      	ldr	r3, [r4, #28]
    2a02:	f013 0f03 	tst.w	r3, #3
    2a06:	d1fb      	bne.n	2a00 <_i2c_m_sync_init_impl+0x54>
    2a08:	69e3      	ldr	r3, [r4, #28]
    2a0a:	f013 0f01 	tst.w	r3, #1
    2a0e:	d1fb      	bne.n	2a08 <_i2c_m_sync_init_impl+0x5c>
    2a10:	eb00 0340 	add.w	r3, r0, r0, lsl #1
    2a14:	00da      	lsls	r2, r3, #3
    2a16:	4b1c      	ldr	r3, [pc, #112]	; (2a88 <_i2c_m_sync_init_impl+0xdc>)
    2a18:	4413      	add	r3, r2
    2a1a:	6cdb      	ldr	r3, [r3, #76]	; 0x4c
    2a1c:	6023      	str	r3, [r4, #0]
    2a1e:	69e3      	ldr	r3, [r4, #28]
    2a20:	f013 0f03 	tst.w	r3, #3
    2a24:	d1fb      	bne.n	2a1e <_i2c_m_sync_init_impl+0x72>
    2a26:	eb00 0340 	add.w	r3, r0, r0, lsl #1
    2a2a:	00da      	lsls	r2, r3, #3
    2a2c:	4b16      	ldr	r3, [pc, #88]	; (2a88 <_i2c_m_sync_init_impl+0xdc>)
    2a2e:	4413      	add	r3, r2
    2a30:	6d1b      	ldr	r3, [r3, #80]	; 0x50
    2a32:	6063      	str	r3, [r4, #4]
    2a34:	69e3      	ldr	r3, [r4, #28]
    2a36:	f013 0f04 	tst.w	r3, #4
    2a3a:	d1fb      	bne.n	2a34 <_i2c_m_sync_init_impl+0x88>
    2a3c:	0042      	lsls	r2, r0, #1
    2a3e:	4402      	add	r2, r0
    2a40:	00d1      	lsls	r1, r2, #3
    2a42:	4b11      	ldr	r3, [pc, #68]	; (2a88 <_i2c_m_sync_init_impl+0xdc>)
    2a44:	440b      	add	r3, r1
    2a46:	6d5a      	ldr	r2, [r3, #84]	; 0x54
    2a48:	60e2      	str	r2, [r4, #12]
    2a4a:	f893 304f 	ldrb.w	r3, [r3, #79]	; 0x4f
    2a4e:	f003 0303 	and.w	r3, r3, #3
    2a52:	81ab      	strh	r3, [r5, #12]
    2a54:	2b01      	cmp	r3, #1
    2a56:	bf94      	ite	ls
    2a58:	2300      	movls	r3, #0
    2a5a:	2301      	movhi	r3, #1
    2a5c:	6a62      	ldr	r2, [r4, #36]	; 0x24
    2a5e:	f422 4280 	bic.w	r2, r2, #16384	; 0x4000
    2a62:	ea42 3383 	orr.w	r3, r2, r3, lsl #14
    2a66:	6263      	str	r3, [r4, #36]	; 0x24
    2a68:	69e3      	ldr	r3, [r4, #28]
    2a6a:	f013 0f04 	tst.w	r3, #4
    2a6e:	d1fb      	bne.n	2a68 <_i2c_m_sync_init_impl+0xbc>
    2a70:	eb00 0040 	add.w	r0, r0, r0, lsl #1
    2a74:	00c2      	lsls	r2, r0, #3
    2a76:	4b04      	ldr	r3, [pc, #16]	; (2a88 <_i2c_m_sync_init_impl+0xdc>)
    2a78:	4413      	add	r3, r2
    2a7a:	f8b3 305a 	ldrh.w	r3, [r3, #90]	; 0x5a
    2a7e:	81eb      	strh	r3, [r5, #14]
    2a80:	2000      	movs	r0, #0
    2a82:	bd38      	pop	{r3, r4, r5, pc}
    2a84:	00002965 	.word	0x00002965
    2a88:	00006440 	.word	0x00006440

00002a8c <_sercom_i2c_sync_send_address>:
    2a8c:	b570      	push	{r4, r5, r6, lr}
    2a8e:	4605      	mov	r5, r0
    2a90:	6904      	ldr	r4, [r0, #16]
    2a92:	6826      	ldr	r6, [r4, #0]
    2a94:	f3c6 66c0 	ubfx	r6, r6, #27, #1
    2a98:	f240 52d3 	movw	r2, #1491	; 0x5d3
    2a9c:	4999      	ldr	r1, [pc, #612]	; (2d04 <_sercom_i2c_sync_send_address+0x278>)
    2a9e:	3000      	adds	r0, #0
    2aa0:	bf18      	it	ne
    2aa2:	2001      	movne	r0, #1
    2aa4:	4b98      	ldr	r3, [pc, #608]	; (2d08 <_sercom_i2c_sync_send_address+0x27c>)
    2aa6:	4798      	blx	r3
    2aa8:	686b      	ldr	r3, [r5, #4]
    2aaa:	2b01      	cmp	r3, #1
    2aac:	d057      	beq.n	2b5e <_sercom_i2c_sync_send_address+0xd2>
    2aae:	6863      	ldr	r3, [r4, #4]
    2ab0:	f423 2380 	bic.w	r3, r3, #262144	; 0x40000
    2ab4:	6063      	str	r3, [r4, #4]
    2ab6:	69e3      	ldr	r3, [r4, #28]
    2ab8:	f013 0f04 	tst.w	r3, #4
    2abc:	d1fb      	bne.n	2ab6 <_sercom_i2c_sync_send_address+0x2a>
    2abe:	882b      	ldrh	r3, [r5, #0]
    2ac0:	f413 6f80 	tst.w	r3, #1024	; 0x400
    2ac4:	d056      	beq.n	2b74 <_sercom_i2c_sync_send_address+0xe8>
    2ac6:	886a      	ldrh	r2, [r5, #2]
    2ac8:	f012 0f01 	tst.w	r2, #1
    2acc:	d004      	beq.n	2ad8 <_sercom_i2c_sync_send_address+0x4c>
    2ace:	886a      	ldrh	r2, [r5, #2]
    2ad0:	b292      	uxth	r2, r2
    2ad2:	f442 6280 	orr.w	r2, r2, #1024	; 0x400
    2ad6:	806a      	strh	r2, [r5, #2]
    2ad8:	f240 72fe 	movw	r2, #2046	; 0x7fe
    2adc:	ea02 0243 	and.w	r2, r2, r3, lsl #1
    2ae0:	69e3      	ldr	r3, [r4, #28]
    2ae2:	f013 0f04 	tst.w	r3, #4
    2ae6:	d1fb      	bne.n	2ae0 <_sercom_i2c_sync_send_address+0x54>
    2ae8:	6a63      	ldr	r3, [r4, #36]	; 0x24
    2aea:	f403 4380 	and.w	r3, r3, #16384	; 0x4000
    2aee:	4313      	orrs	r3, r2
    2af0:	f443 4300 	orr.w	r3, r3, #32768	; 0x8000
    2af4:	6263      	str	r3, [r4, #36]	; 0x24
    2af6:	69e3      	ldr	r3, [r4, #28]
    2af8:	f013 0f04 	tst.w	r3, #4
    2afc:	d1fb      	bne.n	2af6 <_sercom_i2c_sync_send_address+0x6a>
    2afe:	692e      	ldr	r6, [r5, #16]
    2b00:	f64f 72ff 	movw	r2, #65535	; 0xffff
    2b04:	7e33      	ldrb	r3, [r6, #24]
    2b06:	b2db      	uxtb	r3, r3
    2b08:	4618      	mov	r0, r3
    2b0a:	1e51      	subs	r1, r2, #1
    2b0c:	b11a      	cbz	r2, 2b16 <_sercom_i2c_sync_send_address+0x8a>
    2b0e:	460a      	mov	r2, r1
    2b10:	f013 0f03 	tst.w	r3, #3
    2b14:	d0f6      	beq.n	2b04 <_sercom_i2c_sync_send_address+0x78>
    2b16:	6822      	ldr	r2, [r4, #0]
    2b18:	f3c2 62c0 	ubfx	r2, r2, #27, #1
    2b1c:	69e3      	ldr	r3, [r4, #28]
    2b1e:	f013 0f04 	tst.w	r3, #4
    2b22:	d1fb      	bne.n	2b1c <_sercom_i2c_sync_send_address+0x90>
    2b24:	8b63      	ldrh	r3, [r4, #26]
    2b26:	b29b      	uxth	r3, r3
    2b28:	f010 0f01 	tst.w	r0, #1
    2b2c:	f000 809c 	beq.w	2c68 <_sercom_i2c_sync_send_address+0x1dc>
    2b30:	f013 0f02 	tst.w	r3, #2
    2b34:	d032      	beq.n	2b9c <_sercom_i2c_sync_send_address+0x110>
    2b36:	2201      	movs	r2, #1
    2b38:	7622      	strb	r2, [r4, #24]
    2b3a:	886a      	ldrh	r2, [r5, #2]
    2b3c:	b292      	uxth	r2, r2
    2b3e:	f442 5280 	orr.w	r2, r2, #4096	; 0x1000
    2b42:	806a      	strh	r2, [r5, #2]
    2b44:	886a      	ldrh	r2, [r5, #2]
    2b46:	b292      	uxth	r2, r2
    2b48:	f422 7280 	bic.w	r2, r2, #256	; 0x100
    2b4c:	b292      	uxth	r2, r2
    2b4e:	806a      	strh	r2, [r5, #2]
    2b50:	f013 0f01 	tst.w	r3, #1
    2b54:	f000 80d1 	beq.w	2cfa <_sercom_i2c_sync_send_address+0x26e>
    2b58:	f06f 0004 	mvn.w	r0, #4
    2b5c:	bd70      	pop	{r4, r5, r6, pc}
    2b5e:	2e00      	cmp	r6, #0
    2b60:	d0a5      	beq.n	2aae <_sercom_i2c_sync_send_address+0x22>
    2b62:	6863      	ldr	r3, [r4, #4]
    2b64:	f443 2380 	orr.w	r3, r3, #262144	; 0x40000
    2b68:	6063      	str	r3, [r4, #4]
    2b6a:	69e3      	ldr	r3, [r4, #28]
    2b6c:	f013 0f04 	tst.w	r3, #4
    2b70:	d1fb      	bne.n	2b6a <_sercom_i2c_sync_send_address+0xde>
    2b72:	e7a4      	b.n	2abe <_sercom_i2c_sync_send_address+0x32>
    2b74:	005b      	lsls	r3, r3, #1
    2b76:	b2db      	uxtb	r3, r3
    2b78:	886a      	ldrh	r2, [r5, #2]
    2b7a:	f002 0201 	and.w	r2, r2, #1
    2b7e:	431a      	orrs	r2, r3
    2b80:	69e3      	ldr	r3, [r4, #28]
    2b82:	f013 0f04 	tst.w	r3, #4
    2b86:	d1fb      	bne.n	2b80 <_sercom_i2c_sync_send_address+0xf4>
    2b88:	6a63      	ldr	r3, [r4, #36]	; 0x24
    2b8a:	f403 4380 	and.w	r3, r3, #16384	; 0x4000
    2b8e:	4313      	orrs	r3, r2
    2b90:	6263      	str	r3, [r4, #36]	; 0x24
    2b92:	69e3      	ldr	r3, [r4, #28]
    2b94:	f013 0f04 	tst.w	r3, #4
    2b98:	d1fb      	bne.n	2b92 <_sercom_i2c_sync_send_address+0x106>
    2b9a:	e7b0      	b.n	2afe <_sercom_i2c_sync_send_address+0x72>
    2b9c:	f013 0f04 	tst.w	r3, #4
    2ba0:	d11f      	bne.n	2be2 <_sercom_i2c_sync_send_address+0x156>
    2ba2:	886b      	ldrh	r3, [r5, #2]
    2ba4:	f413 6f80 	tst.w	r3, #1024	; 0x400
    2ba8:	d039      	beq.n	2c1e <_sercom_i2c_sync_send_address+0x192>
    2baa:	882b      	ldrh	r3, [r5, #0]
    2bac:	121b      	asrs	r3, r3, #8
    2bae:	005b      	lsls	r3, r3, #1
    2bb0:	f003 0206 	and.w	r2, r3, #6
    2bb4:	69e3      	ldr	r3, [r4, #28]
    2bb6:	f013 0f04 	tst.w	r3, #4
    2bba:	d1fb      	bne.n	2bb4 <_sercom_i2c_sync_send_address+0x128>
    2bbc:	6a63      	ldr	r3, [r4, #36]	; 0x24
    2bbe:	f403 4380 	and.w	r3, r3, #16384	; 0x4000
    2bc2:	4313      	orrs	r3, r2
    2bc4:	f043 03f1 	orr.w	r3, r3, #241	; 0xf1
    2bc8:	6263      	str	r3, [r4, #36]	; 0x24
    2bca:	69e3      	ldr	r3, [r4, #28]
    2bcc:	f013 0f04 	tst.w	r3, #4
    2bd0:	d1fb      	bne.n	2bca <_sercom_i2c_sync_send_address+0x13e>
    2bd2:	886b      	ldrh	r3, [r5, #2]
    2bd4:	b29b      	uxth	r3, r3
    2bd6:	f423 6380 	bic.w	r3, r3, #1024	; 0x400
    2bda:	b29b      	uxth	r3, r3
    2bdc:	806b      	strh	r3, [r5, #2]
    2bde:	2000      	movs	r0, #0
    2be0:	bd70      	pop	{r4, r5, r6, pc}
    2be2:	686b      	ldr	r3, [r5, #4]
    2be4:	2b00      	cmp	r3, #0
    2be6:	dd04      	ble.n	2bf2 <_sercom_i2c_sync_send_address+0x166>
    2be8:	886b      	ldrh	r3, [r5, #2]
    2bea:	b29b      	uxth	r3, r3
    2bec:	f443 5380 	orr.w	r3, r3, #4096	; 0x1000
    2bf0:	806b      	strh	r3, [r5, #2]
    2bf2:	886b      	ldrh	r3, [r5, #2]
    2bf4:	f413 4f00 	tst.w	r3, #32768	; 0x8000
    2bf8:	d108      	bne.n	2c0c <_sercom_i2c_sync_send_address+0x180>
    2bfa:	886b      	ldrh	r3, [r5, #2]
    2bfc:	b29b      	uxth	r3, r3
    2bfe:	f423 7380 	bic.w	r3, r3, #256	; 0x100
    2c02:	b29b      	uxth	r3, r3
    2c04:	806b      	strh	r3, [r5, #2]
    2c06:	f06f 0001 	mvn.w	r0, #1
    2c0a:	bd70      	pop	{r4, r5, r6, pc}
    2c0c:	6863      	ldr	r3, [r4, #4]
    2c0e:	f443 3340 	orr.w	r3, r3, #196608	; 0x30000
    2c12:	6063      	str	r3, [r4, #4]
    2c14:	69e3      	ldr	r3, [r4, #28]
    2c16:	f013 0f04 	tst.w	r3, #4
    2c1a:	d1fb      	bne.n	2c14 <_sercom_i2c_sync_send_address+0x188>
    2c1c:	e7ed      	b.n	2bfa <_sercom_i2c_sync_send_address+0x16e>
    2c1e:	6868      	ldr	r0, [r5, #4]
    2c20:	b998      	cbnz	r0, 2c4a <_sercom_i2c_sync_send_address+0x1be>
    2c22:	886b      	ldrh	r3, [r5, #2]
    2c24:	f413 4f00 	tst.w	r3, #32768	; 0x8000
    2c28:	d106      	bne.n	2c38 <_sercom_i2c_sync_send_address+0x1ac>
    2c2a:	886b      	ldrh	r3, [r5, #2]
    2c2c:	b29b      	uxth	r3, r3
    2c2e:	f423 7380 	bic.w	r3, r3, #256	; 0x100
    2c32:	b29b      	uxth	r3, r3
    2c34:	806b      	strh	r3, [r5, #2]
    2c36:	bd70      	pop	{r4, r5, r6, pc}
    2c38:	6863      	ldr	r3, [r4, #4]
    2c3a:	f443 3340 	orr.w	r3, r3, #196608	; 0x30000
    2c3e:	6063      	str	r3, [r4, #4]
    2c40:	69e3      	ldr	r3, [r4, #28]
    2c42:	f013 0f04 	tst.w	r3, #4
    2c46:	d1fb      	bne.n	2c40 <_sercom_i2c_sync_send_address+0x1b4>
    2c48:	e7ef      	b.n	2c2a <_sercom_i2c_sync_send_address+0x19e>
    2c4a:	68ab      	ldr	r3, [r5, #8]
    2c4c:	781b      	ldrb	r3, [r3, #0]
    2c4e:	62a3      	str	r3, [r4, #40]	; 0x28
    2c50:	69e3      	ldr	r3, [r4, #28]
    2c52:	f013 0f04 	tst.w	r3, #4
    2c56:	d1fb      	bne.n	2c50 <_sercom_i2c_sync_send_address+0x1c4>
    2c58:	68ab      	ldr	r3, [r5, #8]
    2c5a:	3301      	adds	r3, #1
    2c5c:	60ab      	str	r3, [r5, #8]
    2c5e:	686b      	ldr	r3, [r5, #4]
    2c60:	3b01      	subs	r3, #1
    2c62:	606b      	str	r3, [r5, #4]
    2c64:	2000      	movs	r0, #0
    2c66:	bd70      	pop	{r4, r5, r6, pc}
    2c68:	f010 0f02 	tst.w	r0, #2
    2c6c:	d048      	beq.n	2d00 <_sercom_i2c_sync_send_address+0x274>
    2c6e:	6869      	ldr	r1, [r5, #4]
    2c70:	2900      	cmp	r1, #0
    2c72:	d03d      	beq.n	2cf0 <_sercom_i2c_sync_send_address+0x264>
    2c74:	f013 0f04 	tst.w	r3, #4
    2c78:	d13a      	bne.n	2cf0 <_sercom_i2c_sync_send_address+0x264>
    2c7a:	3901      	subs	r1, #1
    2c7c:	6069      	str	r1, [r5, #4]
    2c7e:	b901      	cbnz	r1, 2c82 <_sercom_i2c_sync_send_address+0x1f6>
    2c80:	b1e2      	cbz	r2, 2cbc <_sercom_i2c_sync_send_address+0x230>
    2c82:	2901      	cmp	r1, #1
    2c84:	d018      	beq.n	2cb8 <_sercom_i2c_sync_send_address+0x22c>
    2c86:	686b      	ldr	r3, [r5, #4]
    2c88:	b94b      	cbnz	r3, 2c9e <_sercom_i2c_sync_send_address+0x212>
    2c8a:	886b      	ldrh	r3, [r5, #2]
    2c8c:	f413 4f00 	tst.w	r3, #32768	; 0x8000
    2c90:	d11d      	bne.n	2cce <_sercom_i2c_sync_send_address+0x242>
    2c92:	886b      	ldrh	r3, [r5, #2]
    2c94:	b29b      	uxth	r3, r3
    2c96:	f423 7380 	bic.w	r3, r3, #256	; 0x100
    2c9a:	b29b      	uxth	r3, r3
    2c9c:	806b      	strh	r3, [r5, #2]
    2c9e:	68aa      	ldr	r2, [r5, #8]
    2ca0:	1c53      	adds	r3, r2, #1
    2ca2:	60ab      	str	r3, [r5, #8]
    2ca4:	69e3      	ldr	r3, [r4, #28]
    2ca6:	f013 0f04 	tst.w	r3, #4
    2caa:	d1fb      	bne.n	2ca4 <_sercom_i2c_sync_send_address+0x218>
    2cac:	6aa3      	ldr	r3, [r4, #40]	; 0x28
    2cae:	7013      	strb	r3, [r2, #0]
    2cb0:	2302      	movs	r3, #2
    2cb2:	7623      	strb	r3, [r4, #24]
    2cb4:	2000      	movs	r0, #0
    2cb6:	bd70      	pop	{r4, r5, r6, pc}
    2cb8:	2a00      	cmp	r2, #0
    2cba:	d0e4      	beq.n	2c86 <_sercom_i2c_sync_send_address+0x1fa>
    2cbc:	6863      	ldr	r3, [r4, #4]
    2cbe:	f443 2380 	orr.w	r3, r3, #262144	; 0x40000
    2cc2:	6063      	str	r3, [r4, #4]
    2cc4:	69e3      	ldr	r3, [r4, #28]
    2cc6:	f013 0f04 	tst.w	r3, #4
    2cca:	d1fb      	bne.n	2cc4 <_sercom_i2c_sync_send_address+0x238>
    2ccc:	e7db      	b.n	2c86 <_sercom_i2c_sync_send_address+0x1fa>
    2cce:	6863      	ldr	r3, [r4, #4]
    2cd0:	f423 7380 	bic.w	r3, r3, #256	; 0x100
    2cd4:	6063      	str	r3, [r4, #4]
    2cd6:	69e3      	ldr	r3, [r4, #28]
    2cd8:	f013 0f04 	tst.w	r3, #4
    2cdc:	d1fb      	bne.n	2cd6 <_sercom_i2c_sync_send_address+0x24a>
    2cde:	6863      	ldr	r3, [r4, #4]
    2ce0:	f443 3340 	orr.w	r3, r3, #196608	; 0x30000
    2ce4:	6063      	str	r3, [r4, #4]
    2ce6:	69e3      	ldr	r3, [r4, #28]
    2ce8:	f013 0f04 	tst.w	r3, #4
    2cec:	d1fb      	bne.n	2ce6 <_sercom_i2c_sync_send_address+0x25a>
    2cee:	e7d0      	b.n	2c92 <_sercom_i2c_sync_send_address+0x206>
    2cf0:	2302      	movs	r3, #2
    2cf2:	7623      	strb	r3, [r4, #24]
    2cf4:	f06f 0001 	mvn.w	r0, #1
    2cf8:	bd70      	pop	{r4, r5, r6, pc}
    2cfa:	f06f 0003 	mvn.w	r0, #3
    2cfe:	bd70      	pop	{r4, r5, r6, pc}
    2d00:	2000      	movs	r0, #0
    2d02:	bd70      	pop	{r4, r5, r6, pc}
    2d04:	000064c4 	.word	0x000064c4
    2d08:	00001c69 	.word	0x00001c69

00002d0c <_usart_async_init>:
    2d0c:	b570      	push	{r4, r5, r6, lr}
    2d0e:	460c      	mov	r4, r1
    2d10:	4606      	mov	r6, r0
    2d12:	22cd      	movs	r2, #205	; 0xcd
    2d14:	4918      	ldr	r1, [pc, #96]	; (2d78 <_usart_async_init+0x6c>)
    2d16:	3000      	adds	r0, #0
    2d18:	bf18      	it	ne
    2d1a:	2001      	movne	r0, #1
    2d1c:	4b17      	ldr	r3, [pc, #92]	; (2d7c <_usart_async_init+0x70>)
    2d1e:	4798      	blx	r3
    2d20:	4620      	mov	r0, r4
    2d22:	4b17      	ldr	r3, [pc, #92]	; (2d80 <_usart_async_init+0x74>)
    2d24:	4798      	blx	r3
    2d26:	4605      	mov	r5, r0
    2d28:	b108      	cbz	r0, 2d2e <_usart_async_init+0x22>
    2d2a:	4628      	mov	r0, r5
    2d2c:	bd70      	pop	{r4, r5, r6, pc}
    2d2e:	61b4      	str	r4, [r6, #24]
    2d30:	4631      	mov	r1, r6
    2d32:	4620      	mov	r0, r4
    2d34:	4b13      	ldr	r3, [pc, #76]	; (2d84 <_usart_async_init+0x78>)
    2d36:	4798      	blx	r3
    2d38:	4620      	mov	r0, r4
    2d3a:	4b13      	ldr	r3, [pc, #76]	; (2d88 <_usart_async_init+0x7c>)
    2d3c:	4798      	blx	r3
    2d3e:	2400      	movs	r4, #0
    2d40:	e016      	b.n	2d70 <_usart_async_init+0x64>
    NVIC->ICER[(((uint32_t)IRQn) >> 5UL)] = (uint32_t)(1UL << (((uint32_t)IRQn) & 0x1FUL));
    2d42:	0941      	lsrs	r1, r0, #5
    2d44:	f000 021f 	and.w	r2, r0, #31
    2d48:	2301      	movs	r3, #1
    2d4a:	4093      	lsls	r3, r2
    2d4c:	4a0f      	ldr	r2, [pc, #60]	; (2d8c <_usart_async_init+0x80>)
    2d4e:	f101 0620 	add.w	r6, r1, #32
    2d52:	f842 3026 	str.w	r3, [r2, r6, lsl #2]
  __ASM volatile ("dsb 0xF":::"memory");
    2d56:	f3bf 8f4f 	dsb	sy
  __ASM volatile ("isb 0xF":::"memory");
    2d5a:	f3bf 8f6f 	isb	sy
    NVIC->ICPR[(((uint32_t)IRQn) >> 5UL)] = (uint32_t)(1UL << (((uint32_t)IRQn) & 0x1FUL));
    2d5e:	f101 0660 	add.w	r6, r1, #96	; 0x60
    2d62:	f842 3026 	str.w	r3, [r2, r6, lsl #2]
    NVIC->ISER[(((uint32_t)IRQn) >> 5UL)] = (uint32_t)(1UL << (((uint32_t)IRQn) & 0x1FUL));
    2d66:	f842 3021 	str.w	r3, [r2, r1, lsl #2]
    2d6a:	3001      	adds	r0, #1
    2d6c:	b2c0      	uxtb	r0, r0
    2d6e:	3401      	adds	r4, #1
    2d70:	2c03      	cmp	r4, #3
    2d72:	d9e6      	bls.n	2d42 <_usart_async_init+0x36>
    2d74:	e7d9      	b.n	2d2a <_usart_async_init+0x1e>
    2d76:	bf00      	nop
    2d78:	000064c4 	.word	0x000064c4
    2d7c:	00001c69 	.word	0x00001c69
    2d80:	00002865 	.word	0x00002865
    2d84:	000027bd 	.word	0x000027bd
    2d88:	000027e5 	.word	0x000027e5
    2d8c:	e000e100 	.word	0xe000e100

00002d90 <_usart_async_enable>:
    2d90:	6982      	ldr	r2, [r0, #24]
    2d92:	6813      	ldr	r3, [r2, #0]
    2d94:	f043 0302 	orr.w	r3, r3, #2
    2d98:	6013      	str	r3, [r2, #0]
    2d9a:	69d3      	ldr	r3, [r2, #28]
    2d9c:	f013 0f03 	tst.w	r3, #3
    2da0:	d1fb      	bne.n	2d9a <_usart_async_enable+0xa>
    2da2:	4770      	bx	lr

00002da4 <_usart_async_write_byte>:
    2da4:	6983      	ldr	r3, [r0, #24]
    2da6:	6299      	str	r1, [r3, #40]	; 0x28
    2da8:	4770      	bx	lr

00002daa <_usart_async_enable_byte_sent_irq>:
    2daa:	6983      	ldr	r3, [r0, #24]
    2dac:	2201      	movs	r2, #1
    2dae:	759a      	strb	r2, [r3, #22]
    2db0:	4770      	bx	lr

00002db2 <_usart_async_enable_tx_done_irq>:
    2db2:	6983      	ldr	r3, [r0, #24]
    2db4:	2202      	movs	r2, #2
    2db6:	759a      	strb	r2, [r3, #22]
    2db8:	4770      	bx	lr
	...

00002dbc <_usart_async_set_irq_state>:
    2dbc:	b570      	push	{r4, r5, r6, lr}
    2dbe:	460c      	mov	r4, r1
    2dc0:	4615      	mov	r5, r2
    2dc2:	4606      	mov	r6, r0
    2dc4:	f240 222d 	movw	r2, #557	; 0x22d
    2dc8:	4916      	ldr	r1, [pc, #88]	; (2e24 <_usart_async_set_irq_state+0x68>)
    2dca:	3000      	adds	r0, #0
    2dcc:	bf18      	it	ne
    2dce:	2001      	movne	r0, #1
    2dd0:	4b15      	ldr	r3, [pc, #84]	; (2e28 <_usart_async_set_irq_state+0x6c>)
    2dd2:	4798      	blx	r3
    2dd4:	b134      	cbz	r4, 2de4 <_usart_async_set_irq_state+0x28>
    2dd6:	2c02      	cmp	r4, #2
    2dd8:	d004      	beq.n	2de4 <_usart_async_set_irq_state+0x28>
    2dda:	2c01      	cmp	r4, #1
    2ddc:	d011      	beq.n	2e02 <_usart_async_set_irq_state+0x46>
    2dde:	2c03      	cmp	r4, #3
    2de0:	d017      	beq.n	2e12 <_usart_async_set_irq_state+0x56>
    2de2:	bd70      	pop	{r4, r5, r6, pc}
    2de4:	69b3      	ldr	r3, [r6, #24]
    2de6:	b935      	cbnz	r5, 2df6 <_usart_async_set_irq_state+0x3a>
    2de8:	2201      	movs	r2, #1
    2dea:	751a      	strb	r2, [r3, #20]
    2dec:	69b3      	ldr	r3, [r6, #24]
    2dee:	b92d      	cbnz	r5, 2dfc <_usart_async_set_irq_state+0x40>
    2df0:	2202      	movs	r2, #2
    2df2:	751a      	strb	r2, [r3, #20]
    2df4:	bd70      	pop	{r4, r5, r6, pc}
    2df6:	2201      	movs	r2, #1
    2df8:	759a      	strb	r2, [r3, #22]
    2dfa:	e7f7      	b.n	2dec <_usart_async_set_irq_state+0x30>
    2dfc:	2202      	movs	r2, #2
    2dfe:	759a      	strb	r2, [r3, #22]
    2e00:	bd70      	pop	{r4, r5, r6, pc}
    2e02:	69b3      	ldr	r3, [r6, #24]
    2e04:	b915      	cbnz	r5, 2e0c <_usart_async_set_irq_state+0x50>
    2e06:	2204      	movs	r2, #4
    2e08:	751a      	strb	r2, [r3, #20]
    2e0a:	bd70      	pop	{r4, r5, r6, pc}
    2e0c:	2204      	movs	r2, #4
    2e0e:	759a      	strb	r2, [r3, #22]
    2e10:	bd70      	pop	{r4, r5, r6, pc}
    2e12:	69b3      	ldr	r3, [r6, #24]
    2e14:	b115      	cbz	r5, 2e1c <_usart_async_set_irq_state+0x60>
    2e16:	2280      	movs	r2, #128	; 0x80
    2e18:	759a      	strb	r2, [r3, #22]
    2e1a:	e7e2      	b.n	2de2 <_usart_async_set_irq_state+0x26>
    2e1c:	2280      	movs	r2, #128	; 0x80
    2e1e:	751a      	strb	r2, [r3, #20]
    2e20:	bd70      	pop	{r4, r5, r6, pc}
    2e22:	bf00      	nop
    2e24:	000064c4 	.word	0x000064c4
    2e28:	00001c69 	.word	0x00001c69

00002e2c <_i2c_m_sync_init>:
    2e2c:	b538      	push	{r3, r4, r5, lr}
    2e2e:	460d      	mov	r5, r1
    2e30:	4604      	mov	r4, r0
    2e32:	f240 5246 	movw	r2, #1350	; 0x546
    2e36:	4906      	ldr	r1, [pc, #24]	; (2e50 <_i2c_m_sync_init+0x24>)
    2e38:	3000      	adds	r0, #0
    2e3a:	bf18      	it	ne
    2e3c:	2001      	movne	r0, #1
    2e3e:	4b05      	ldr	r3, [pc, #20]	; (2e54 <_i2c_m_sync_init+0x28>)
    2e40:	4798      	blx	r3
    2e42:	6125      	str	r5, [r4, #16]
    2e44:	4629      	mov	r1, r5
    2e46:	4620      	mov	r0, r4
    2e48:	4b03      	ldr	r3, [pc, #12]	; (2e58 <_i2c_m_sync_init+0x2c>)
    2e4a:	4798      	blx	r3
    2e4c:	bd38      	pop	{r3, r4, r5, pc}
    2e4e:	bf00      	nop
    2e50:	000064c4 	.word	0x000064c4
    2e54:	00001c69 	.word	0x00001c69
    2e58:	000029ad 	.word	0x000029ad

00002e5c <_i2c_m_sync_enable>:
    2e5c:	b570      	push	{r4, r5, r6, lr}
    2e5e:	4e1b      	ldr	r6, [pc, #108]	; (2ecc <_i2c_m_sync_enable+0x70>)
    2e60:	4604      	mov	r4, r0
    2e62:	f240 5263 	movw	r2, #1379	; 0x563
    2e66:	4631      	mov	r1, r6
    2e68:	3000      	adds	r0, #0
    2e6a:	bf18      	it	ne
    2e6c:	2001      	movne	r0, #1
    2e6e:	4d18      	ldr	r5, [pc, #96]	; (2ed0 <_i2c_m_sync_enable+0x74>)
    2e70:	47a8      	blx	r5
    2e72:	6924      	ldr	r4, [r4, #16]
    2e74:	f240 6233 	movw	r2, #1587	; 0x633
    2e78:	4631      	mov	r1, r6
    2e7a:	1c20      	adds	r0, r4, #0
    2e7c:	bf18      	it	ne
    2e7e:	2001      	movne	r0, #1
    2e80:	47a8      	blx	r5
    2e82:	6823      	ldr	r3, [r4, #0]
    2e84:	f043 0302 	orr.w	r3, r3, #2
    2e88:	6023      	str	r3, [r4, #0]
    2e8a:	69e3      	ldr	r3, [r4, #28]
    2e8c:	f013 0f03 	tst.w	r3, #3
    2e90:	d1fb      	bne.n	2e8a <_i2c_m_sync_enable+0x2e>
    2e92:	2104      	movs	r1, #4
    2e94:	f64f 72ff 	movw	r2, #65535	; 0xffff
    2e98:	69e3      	ldr	r3, [r4, #28]
    2e9a:	f013 0f04 	tst.w	r3, #4
    2e9e:	d1fb      	bne.n	2e98 <_i2c_m_sync_enable+0x3c>
    2ea0:	8b63      	ldrh	r3, [r4, #26]
    2ea2:	f3c3 1301 	ubfx	r3, r3, #4, #2
    2ea6:	2b01      	cmp	r3, #1
    2ea8:	d00b      	beq.n	2ec2 <_i2c_m_sync_enable+0x66>
    2eaa:	3a01      	subs	r2, #1
    2eac:	2a00      	cmp	r2, #0
    2eae:	dcf3      	bgt.n	2e98 <_i2c_m_sync_enable+0x3c>
    2eb0:	3901      	subs	r1, #1
    2eb2:	d008      	beq.n	2ec6 <_i2c_m_sync_enable+0x6a>
    2eb4:	2310      	movs	r3, #16
    2eb6:	8363      	strh	r3, [r4, #26]
    2eb8:	69e3      	ldr	r3, [r4, #28]
    2eba:	f013 0f04 	tst.w	r3, #4
    2ebe:	d1fb      	bne.n	2eb8 <_i2c_m_sync_enable+0x5c>
    2ec0:	e7e8      	b.n	2e94 <_i2c_m_sync_enable+0x38>
    2ec2:	2000      	movs	r0, #0
    2ec4:	bd70      	pop	{r4, r5, r6, pc}
    2ec6:	f06f 0005 	mvn.w	r0, #5
    2eca:	bd70      	pop	{r4, r5, r6, pc}
    2ecc:	000064c4 	.word	0x000064c4
    2ed0:	00001c69 	.word	0x00001c69

00002ed4 <_i2c_m_sync_transfer>:
    2ed4:	e92d 41f0 	stmdb	sp!, {r4, r5, r6, r7, r8, lr}
    2ed8:	4605      	mov	r5, r0
    2eda:	460e      	mov	r6, r1
    2edc:	6904      	ldr	r4, [r0, #16]
    2ede:	f8df 82a0 	ldr.w	r8, [pc, #672]	; 3180 <_i2c_m_sync_transfer+0x2ac>
    2ee2:	f240 52fe 	movw	r2, #1534	; 0x5fe
    2ee6:	4641      	mov	r1, r8
    2ee8:	3000      	adds	r0, #0
    2eea:	bf18      	it	ne
    2eec:	2001      	movne	r0, #1
    2eee:	4fa2      	ldr	r7, [pc, #648]	; (3178 <_i2c_m_sync_transfer+0x2a4>)
    2ef0:	47b8      	blx	r7
    2ef2:	6928      	ldr	r0, [r5, #16]
    2ef4:	f240 52ff 	movw	r2, #1535	; 0x5ff
    2ef8:	4641      	mov	r1, r8
    2efa:	3000      	adds	r0, #0
    2efc:	bf18      	it	ne
    2efe:	2001      	movne	r0, #1
    2f00:	47b8      	blx	r7
    2f02:	f44f 62c0 	mov.w	r2, #1536	; 0x600
    2f06:	4641      	mov	r1, r8
    2f08:	1c30      	adds	r0, r6, #0
    2f0a:	bf18      	it	ne
    2f0c:	2001      	movne	r0, #1
    2f0e:	47b8      	blx	r7
    2f10:	886b      	ldrh	r3, [r5, #2]
    2f12:	f413 7f80 	tst.w	r3, #256	; 0x100
    2f16:	f040 812a 	bne.w	316e <_i2c_m_sync_transfer+0x29a>
    2f1a:	8873      	ldrh	r3, [r6, #2]
    2f1c:	b29b      	uxth	r3, r3
    2f1e:	f443 7380 	orr.w	r3, r3, #256	; 0x100
    2f22:	8073      	strh	r3, [r6, #2]
    2f24:	e896 0007 	ldmia.w	r6, {r0, r1, r2}
    2f28:	e885 0007 	stmia.w	r5, {r0, r1, r2}
    2f2c:	6863      	ldr	r3, [r4, #4]
    2f2e:	f443 7380 	orr.w	r3, r3, #256	; 0x100
    2f32:	6063      	str	r3, [r4, #4]
    2f34:	69e3      	ldr	r3, [r4, #28]
    2f36:	f013 0f04 	tst.w	r3, #4
    2f3a:	d1fb      	bne.n	2f34 <_i2c_m_sync_transfer+0x60>
    2f3c:	4628      	mov	r0, r5
    2f3e:	4b8f      	ldr	r3, [pc, #572]	; (317c <_i2c_m_sync_transfer+0x2a8>)
    2f40:	4798      	blx	r3
    2f42:	4603      	mov	r3, r0
    2f44:	2800      	cmp	r0, #0
    2f46:	f000 80b0 	beq.w	30aa <_i2c_m_sync_transfer+0x1d6>
    2f4a:	886a      	ldrh	r2, [r5, #2]
    2f4c:	b292      	uxth	r2, r2
    2f4e:	f422 7280 	bic.w	r2, r2, #256	; 0x100
    2f52:	b292      	uxth	r2, r2
    2f54:	806a      	strh	r2, [r5, #2]
    2f56:	e8bd 81f0 	ldmia.w	sp!, {r4, r5, r6, r7, r8, pc}
    2f5a:	f06f 0004 	mvn.w	r0, #4
    2f5e:	e0b7      	b.n	30d0 <_i2c_m_sync_transfer+0x1fc>
    2f60:	8873      	ldrh	r3, [r6, #2]
    2f62:	f413 4f00 	tst.w	r3, #32768	; 0x8000
    2f66:	d107      	bne.n	2f78 <_i2c_m_sync_transfer+0xa4>
    2f68:	886b      	ldrh	r3, [r5, #2]
    2f6a:	b29b      	uxth	r3, r3
    2f6c:	f423 7380 	bic.w	r3, r3, #256	; 0x100
    2f70:	b29b      	uxth	r3, r3
    2f72:	806b      	strh	r3, [r5, #2]
    2f74:	e8bd 81f0 	ldmia.w	sp!, {r4, r5, r6, r7, r8, pc}
    2f78:	6863      	ldr	r3, [r4, #4]
    2f7a:	f443 3340 	orr.w	r3, r3, #196608	; 0x30000
    2f7e:	6063      	str	r3, [r4, #4]
    2f80:	69e3      	ldr	r3, [r4, #28]
    2f82:	f013 0f04 	tst.w	r3, #4
    2f86:	d1fb      	bne.n	2f80 <_i2c_m_sync_transfer+0xac>
    2f88:	e7ee      	b.n	2f68 <_i2c_m_sync_transfer+0x94>
    2f8a:	f013 0f04 	tst.w	r3, #4
    2f8e:	d11f      	bne.n	2fd0 <_i2c_m_sync_transfer+0xfc>
    2f90:	886b      	ldrh	r3, [r5, #2]
    2f92:	f413 6f80 	tst.w	r3, #1024	; 0x400
    2f96:	d039      	beq.n	300c <_i2c_m_sync_transfer+0x138>
    2f98:	882b      	ldrh	r3, [r5, #0]
    2f9a:	121b      	asrs	r3, r3, #8
    2f9c:	005b      	lsls	r3, r3, #1
    2f9e:	f003 0206 	and.w	r2, r3, #6
    2fa2:	69e3      	ldr	r3, [r4, #28]
    2fa4:	f013 0f04 	tst.w	r3, #4
    2fa8:	d1fb      	bne.n	2fa2 <_i2c_m_sync_transfer+0xce>
    2faa:	6a63      	ldr	r3, [r4, #36]	; 0x24
    2fac:	f403 4380 	and.w	r3, r3, #16384	; 0x4000
    2fb0:	4313      	orrs	r3, r2
    2fb2:	f043 03f1 	orr.w	r3, r3, #241	; 0xf1
    2fb6:	6263      	str	r3, [r4, #36]	; 0x24
    2fb8:	69e3      	ldr	r3, [r4, #28]
    2fba:	f013 0f04 	tst.w	r3, #4
    2fbe:	d1fb      	bne.n	2fb8 <_i2c_m_sync_transfer+0xe4>
    2fc0:	886b      	ldrh	r3, [r5, #2]
    2fc2:	b29b      	uxth	r3, r3
    2fc4:	f423 6380 	bic.w	r3, r3, #1024	; 0x400
    2fc8:	b29b      	uxth	r3, r3
    2fca:	806b      	strh	r3, [r5, #2]
    2fcc:	2000      	movs	r0, #0
    2fce:	e06b      	b.n	30a8 <_i2c_m_sync_transfer+0x1d4>
    2fd0:	686b      	ldr	r3, [r5, #4]
    2fd2:	2b00      	cmp	r3, #0
    2fd4:	dd04      	ble.n	2fe0 <_i2c_m_sync_transfer+0x10c>
    2fd6:	886b      	ldrh	r3, [r5, #2]
    2fd8:	b29b      	uxth	r3, r3
    2fda:	f443 5380 	orr.w	r3, r3, #4096	; 0x1000
    2fde:	806b      	strh	r3, [r5, #2]
    2fe0:	886b      	ldrh	r3, [r5, #2]
    2fe2:	f413 4f00 	tst.w	r3, #32768	; 0x8000
    2fe6:	d108      	bne.n	2ffa <_i2c_m_sync_transfer+0x126>
    2fe8:	886b      	ldrh	r3, [r5, #2]
    2fea:	b29b      	uxth	r3, r3
    2fec:	f423 7380 	bic.w	r3, r3, #256	; 0x100
    2ff0:	b29b      	uxth	r3, r3
    2ff2:	806b      	strh	r3, [r5, #2]
    2ff4:	f06f 0001 	mvn.w	r0, #1
    2ff8:	e056      	b.n	30a8 <_i2c_m_sync_transfer+0x1d4>
    2ffa:	6863      	ldr	r3, [r4, #4]
    2ffc:	f443 3340 	orr.w	r3, r3, #196608	; 0x30000
    3000:	6063      	str	r3, [r4, #4]
    3002:	69e3      	ldr	r3, [r4, #28]
    3004:	f013 0f04 	tst.w	r3, #4
    3008:	d1fb      	bne.n	3002 <_i2c_m_sync_transfer+0x12e>
    300a:	e7ed      	b.n	2fe8 <_i2c_m_sync_transfer+0x114>
    300c:	6868      	ldr	r0, [r5, #4]
    300e:	b998      	cbnz	r0, 3038 <_i2c_m_sync_transfer+0x164>
    3010:	886b      	ldrh	r3, [r5, #2]
    3012:	f413 4f00 	tst.w	r3, #32768	; 0x8000
    3016:	d106      	bne.n	3026 <_i2c_m_sync_transfer+0x152>
    3018:	886b      	ldrh	r3, [r5, #2]
    301a:	b29b      	uxth	r3, r3
    301c:	f423 7380 	bic.w	r3, r3, #256	; 0x100
    3020:	b29b      	uxth	r3, r3
    3022:	806b      	strh	r3, [r5, #2]
    3024:	e040      	b.n	30a8 <_i2c_m_sync_transfer+0x1d4>
    3026:	6863      	ldr	r3, [r4, #4]
    3028:	f443 3340 	orr.w	r3, r3, #196608	; 0x30000
    302c:	6063      	str	r3, [r4, #4]
    302e:	69e3      	ldr	r3, [r4, #28]
    3030:	f013 0f04 	tst.w	r3, #4
    3034:	d1fb      	bne.n	302e <_i2c_m_sync_transfer+0x15a>
    3036:	e7ef      	b.n	3018 <_i2c_m_sync_transfer+0x144>
    3038:	68ab      	ldr	r3, [r5, #8]
    303a:	781b      	ldrb	r3, [r3, #0]
    303c:	62a3      	str	r3, [r4, #40]	; 0x28
    303e:	69e3      	ldr	r3, [r4, #28]
    3040:	f013 0f04 	tst.w	r3, #4
    3044:	d1fb      	bne.n	303e <_i2c_m_sync_transfer+0x16a>
    3046:	68ab      	ldr	r3, [r5, #8]
    3048:	3301      	adds	r3, #1
    304a:	60ab      	str	r3, [r5, #8]
    304c:	686b      	ldr	r3, [r5, #4]
    304e:	3b01      	subs	r3, #1
    3050:	606b      	str	r3, [r5, #4]
    3052:	2000      	movs	r0, #0
    3054:	e028      	b.n	30a8 <_i2c_m_sync_transfer+0x1d4>
    3056:	f017 0f02 	tst.w	r7, #2
    305a:	f000 8083 	beq.w	3164 <_i2c_m_sync_transfer+0x290>
    305e:	6869      	ldr	r1, [r5, #4]
    3060:	2900      	cmp	r1, #0
    3062:	d077      	beq.n	3154 <_i2c_m_sync_transfer+0x280>
    3064:	f013 0f04 	tst.w	r3, #4
    3068:	d174      	bne.n	3154 <_i2c_m_sync_transfer+0x280>
    306a:	3901      	subs	r1, #1
    306c:	6069      	str	r1, [r5, #4]
    306e:	b909      	cbnz	r1, 3074 <_i2c_m_sync_transfer+0x1a0>
    3070:	2a00      	cmp	r2, #0
    3072:	d055      	beq.n	3120 <_i2c_m_sync_transfer+0x24c>
    3074:	2901      	cmp	r1, #1
    3076:	d051      	beq.n	311c <_i2c_m_sync_transfer+0x248>
    3078:	686b      	ldr	r3, [r5, #4]
    307a:	b94b      	cbnz	r3, 3090 <_i2c_m_sync_transfer+0x1bc>
    307c:	886b      	ldrh	r3, [r5, #2]
    307e:	f413 4f00 	tst.w	r3, #32768	; 0x8000
    3082:	d156      	bne.n	3132 <_i2c_m_sync_transfer+0x25e>
    3084:	886b      	ldrh	r3, [r5, #2]
    3086:	b29b      	uxth	r3, r3
    3088:	f423 7380 	bic.w	r3, r3, #256	; 0x100
    308c:	b29b      	uxth	r3, r3
    308e:	806b      	strh	r3, [r5, #2]
    3090:	68aa      	ldr	r2, [r5, #8]
    3092:	1c53      	adds	r3, r2, #1
    3094:	60ab      	str	r3, [r5, #8]
    3096:	69e3      	ldr	r3, [r4, #28]
    3098:	f013 0f04 	tst.w	r3, #4
    309c:	d1fb      	bne.n	3096 <_i2c_m_sync_transfer+0x1c2>
    309e:	6aa3      	ldr	r3, [r4, #40]	; 0x28
    30a0:	7013      	strb	r3, [r2, #0]
    30a2:	2302      	movs	r3, #2
    30a4:	7623      	strb	r3, [r4, #24]
    30a6:	2000      	movs	r0, #0
    30a8:	4603      	mov	r3, r0
    30aa:	886a      	ldrh	r2, [r5, #2]
    30ac:	f412 7f80 	tst.w	r2, #256	; 0x100
    30b0:	d05a      	beq.n	3168 <_i2c_m_sync_transfer+0x294>
    30b2:	6928      	ldr	r0, [r5, #16]
    30b4:	f64f 72ff 	movw	r2, #65535	; 0xffff
    30b8:	7e03      	ldrb	r3, [r0, #24]
    30ba:	b2db      	uxtb	r3, r3
    30bc:	461f      	mov	r7, r3
    30be:	1e51      	subs	r1, r2, #1
    30c0:	2a00      	cmp	r2, #0
    30c2:	f43f af4a 	beq.w	2f5a <_i2c_m_sync_transfer+0x86>
    30c6:	460a      	mov	r2, r1
    30c8:	f013 0f03 	tst.w	r3, #3
    30cc:	d0f4      	beq.n	30b8 <_i2c_m_sync_transfer+0x1e4>
    30ce:	2000      	movs	r0, #0
    30d0:	2800      	cmp	r0, #0
    30d2:	f47f af45 	bne.w	2f60 <_i2c_m_sync_transfer+0x8c>
    30d6:	6822      	ldr	r2, [r4, #0]
    30d8:	f3c2 62c0 	ubfx	r2, r2, #27, #1
    30dc:	69e3      	ldr	r3, [r4, #28]
    30de:	f013 0f04 	tst.w	r3, #4
    30e2:	d1fb      	bne.n	30dc <_i2c_m_sync_transfer+0x208>
    30e4:	8b63      	ldrh	r3, [r4, #26]
    30e6:	b29b      	uxth	r3, r3
    30e8:	f017 0f01 	tst.w	r7, #1
    30ec:	d0b3      	beq.n	3056 <_i2c_m_sync_transfer+0x182>
    30ee:	f013 0f02 	tst.w	r3, #2
    30f2:	f43f af4a 	beq.w	2f8a <_i2c_m_sync_transfer+0xb6>
    30f6:	2201      	movs	r2, #1
    30f8:	7622      	strb	r2, [r4, #24]
    30fa:	886a      	ldrh	r2, [r5, #2]
    30fc:	b292      	uxth	r2, r2
    30fe:	f442 5280 	orr.w	r2, r2, #4096	; 0x1000
    3102:	806a      	strh	r2, [r5, #2]
    3104:	886a      	ldrh	r2, [r5, #2]
    3106:	b292      	uxth	r2, r2
    3108:	f422 7280 	bic.w	r2, r2, #256	; 0x100
    310c:	b292      	uxth	r2, r2
    310e:	806a      	strh	r2, [r5, #2]
    3110:	f013 0f01 	tst.w	r3, #1
    3114:	d023      	beq.n	315e <_i2c_m_sync_transfer+0x28a>
    3116:	f06f 0004 	mvn.w	r0, #4
    311a:	e7c5      	b.n	30a8 <_i2c_m_sync_transfer+0x1d4>
    311c:	2a00      	cmp	r2, #0
    311e:	d0ab      	beq.n	3078 <_i2c_m_sync_transfer+0x1a4>
    3120:	6863      	ldr	r3, [r4, #4]
    3122:	f443 2380 	orr.w	r3, r3, #262144	; 0x40000
    3126:	6063      	str	r3, [r4, #4]
    3128:	69e3      	ldr	r3, [r4, #28]
    312a:	f013 0f04 	tst.w	r3, #4
    312e:	d1fb      	bne.n	3128 <_i2c_m_sync_transfer+0x254>
    3130:	e7a2      	b.n	3078 <_i2c_m_sync_transfer+0x1a4>
    3132:	6863      	ldr	r3, [r4, #4]
    3134:	f423 7380 	bic.w	r3, r3, #256	; 0x100
    3138:	6063      	str	r3, [r4, #4]
    313a:	69e3      	ldr	r3, [r4, #28]
    313c:	f013 0f04 	tst.w	r3, #4
    3140:	d1fb      	bne.n	313a <_i2c_m_sync_transfer+0x266>
    3142:	6863      	ldr	r3, [r4, #4]
    3144:	f443 3340 	orr.w	r3, r3, #196608	; 0x30000
    3148:	6063      	str	r3, [r4, #4]
    314a:	69e3      	ldr	r3, [r4, #28]
    314c:	f013 0f04 	tst.w	r3, #4
    3150:	d1fb      	bne.n	314a <_i2c_m_sync_transfer+0x276>
    3152:	e797      	b.n	3084 <_i2c_m_sync_transfer+0x1b0>
    3154:	2302      	movs	r3, #2
    3156:	7623      	strb	r3, [r4, #24]
    3158:	f06f 0001 	mvn.w	r0, #1
    315c:	e7a4      	b.n	30a8 <_i2c_m_sync_transfer+0x1d4>
    315e:	f06f 0003 	mvn.w	r0, #3
    3162:	e7a1      	b.n	30a8 <_i2c_m_sync_transfer+0x1d4>
    3164:	2000      	movs	r0, #0
    3166:	e79f      	b.n	30a8 <_i2c_m_sync_transfer+0x1d4>
    3168:	4618      	mov	r0, r3
    316a:	e8bd 81f0 	ldmia.w	sp!, {r4, r5, r6, r7, r8, pc}
    316e:	f06f 0005 	mvn.w	r0, #5
    3172:	e8bd 81f0 	ldmia.w	sp!, {r4, r5, r6, r7, r8, pc}
    3176:	bf00      	nop
    3178:	00001c69 	.word	0x00001c69
    317c:	00002a8d 	.word	0x00002a8d
    3180:	000064c4 	.word	0x000064c4

00003184 <SERCOM0_0_Handler>:
    3184:	b508      	push	{r3, lr}
    3186:	4b02      	ldr	r3, [pc, #8]	; (3190 <SERCOM0_0_Handler+0xc>)
    3188:	6818      	ldr	r0, [r3, #0]
    318a:	4b02      	ldr	r3, [pc, #8]	; (3194 <SERCOM0_0_Handler+0x10>)
    318c:	4798      	blx	r3
    318e:	bd08      	pop	{r3, pc}
    3190:	200001f0 	.word	0x200001f0
    3194:	0000274d 	.word	0x0000274d

00003198 <SERCOM0_1_Handler>:
    3198:	b508      	push	{r3, lr}
    319a:	4b02      	ldr	r3, [pc, #8]	; (31a4 <SERCOM0_1_Handler+0xc>)
    319c:	6818      	ldr	r0, [r3, #0]
    319e:	4b02      	ldr	r3, [pc, #8]	; (31a8 <SERCOM0_1_Handler+0x10>)
    31a0:	4798      	blx	r3
    31a2:	bd08      	pop	{r3, pc}
    31a4:	200001f0 	.word	0x200001f0
    31a8:	0000274d 	.word	0x0000274d

000031ac <SERCOM0_2_Handler>:
    31ac:	b508      	push	{r3, lr}
    31ae:	4b02      	ldr	r3, [pc, #8]	; (31b8 <SERCOM0_2_Handler+0xc>)
    31b0:	6818      	ldr	r0, [r3, #0]
    31b2:	4b02      	ldr	r3, [pc, #8]	; (31bc <SERCOM0_2_Handler+0x10>)
    31b4:	4798      	blx	r3
    31b6:	bd08      	pop	{r3, pc}
    31b8:	200001f0 	.word	0x200001f0
    31bc:	0000274d 	.word	0x0000274d

000031c0 <SERCOM0_3_Handler>:
    31c0:	b508      	push	{r3, lr}
    31c2:	4b02      	ldr	r3, [pc, #8]	; (31cc <SERCOM0_3_Handler+0xc>)
    31c4:	6818      	ldr	r0, [r3, #0]
    31c6:	4b02      	ldr	r3, [pc, #8]	; (31d0 <SERCOM0_3_Handler+0x10>)
    31c8:	4798      	blx	r3
    31ca:	bd08      	pop	{r3, pc}
    31cc:	200001f0 	.word	0x200001f0
    31d0:	0000274d 	.word	0x0000274d

000031d4 <SERCOM2_0_Handler>:
    31d4:	b508      	push	{r3, lr}
    31d6:	4b02      	ldr	r3, [pc, #8]	; (31e0 <SERCOM2_0_Handler+0xc>)
    31d8:	6858      	ldr	r0, [r3, #4]
    31da:	4b02      	ldr	r3, [pc, #8]	; (31e4 <SERCOM2_0_Handler+0x10>)
    31dc:	4798      	blx	r3
    31de:	bd08      	pop	{r3, pc}
    31e0:	200001f0 	.word	0x200001f0
    31e4:	0000274d 	.word	0x0000274d

000031e8 <SERCOM2_1_Handler>:
    31e8:	b508      	push	{r3, lr}
    31ea:	4b02      	ldr	r3, [pc, #8]	; (31f4 <SERCOM2_1_Handler+0xc>)
    31ec:	6858      	ldr	r0, [r3, #4]
    31ee:	4b02      	ldr	r3, [pc, #8]	; (31f8 <SERCOM2_1_Handler+0x10>)
    31f0:	4798      	blx	r3
    31f2:	bd08      	pop	{r3, pc}
    31f4:	200001f0 	.word	0x200001f0
    31f8:	0000274d 	.word	0x0000274d

000031fc <SERCOM2_2_Handler>:
    31fc:	b508      	push	{r3, lr}
    31fe:	4b02      	ldr	r3, [pc, #8]	; (3208 <SERCOM2_2_Handler+0xc>)
    3200:	6858      	ldr	r0, [r3, #4]
    3202:	4b02      	ldr	r3, [pc, #8]	; (320c <SERCOM2_2_Handler+0x10>)
    3204:	4798      	blx	r3
    3206:	bd08      	pop	{r3, pc}
    3208:	200001f0 	.word	0x200001f0
    320c:	0000274d 	.word	0x0000274d

00003210 <SERCOM2_3_Handler>:
    3210:	b508      	push	{r3, lr}
    3212:	4b02      	ldr	r3, [pc, #8]	; (321c <SERCOM2_3_Handler+0xc>)
    3214:	6858      	ldr	r0, [r3, #4]
    3216:	4b02      	ldr	r3, [pc, #8]	; (3220 <SERCOM2_3_Handler+0x10>)
    3218:	4798      	blx	r3
    321a:	bd08      	pop	{r3, pc}
    321c:	200001f0 	.word	0x200001f0
    3220:	0000274d 	.word	0x0000274d

00003224 <_spi_m_sync_init>:
    3224:	b570      	push	{r4, r5, r6, lr}
    3226:	4606      	mov	r6, r0
    3228:	460c      	mov	r4, r1
    322a:	4608      	mov	r0, r1
    322c:	4b58      	ldr	r3, [pc, #352]	; (3390 <_spi_m_sync_init+0x16c>)
    322e:	4798      	blx	r3
    3230:	2300      	movs	r3, #0
    3232:	2b00      	cmp	r3, #0
    3234:	d068      	beq.n	3308 <_spi_m_sync_init+0xe4>
    3236:	2500      	movs	r5, #0
    3238:	2e00      	cmp	r6, #0
    323a:	d071      	beq.n	3320 <_spi_m_sync_init+0xfc>
    323c:	2c00      	cmp	r4, #0
    323e:	d06d      	beq.n	331c <_spi_m_sync_init+0xf8>
    3240:	2001      	movs	r0, #1
    3242:	f640 12a7 	movw	r2, #2471	; 0x9a7
    3246:	4953      	ldr	r1, [pc, #332]	; (3394 <_spi_m_sync_init+0x170>)
    3248:	4b53      	ldr	r3, [pc, #332]	; (3398 <_spi_m_sync_init+0x174>)
    324a:	4798      	blx	r3
    324c:	2d00      	cmp	r5, #0
    324e:	f000 809c 	beq.w	338a <_spi_m_sync_init+0x166>
    3252:	69e3      	ldr	r3, [r4, #28]
    3254:	f013 0f01 	tst.w	r3, #1
    3258:	d11d      	bne.n	3296 <_spi_m_sync_init+0x72>
    325a:	682b      	ldr	r3, [r5, #0]
    325c:	f003 021c 	and.w	r2, r3, #28
    3260:	69e3      	ldr	r3, [r4, #28]
    3262:	f013 0f03 	tst.w	r3, #3
    3266:	d1fb      	bne.n	3260 <_spi_m_sync_init+0x3c>
    3268:	6823      	ldr	r3, [r4, #0]
    326a:	f013 0f02 	tst.w	r3, #2
    326e:	d00b      	beq.n	3288 <_spi_m_sync_init+0x64>
    3270:	6823      	ldr	r3, [r4, #0]
    3272:	f023 0302 	bic.w	r3, r3, #2
    3276:	6023      	str	r3, [r4, #0]
    3278:	69e3      	ldr	r3, [r4, #28]
    327a:	f013 0f03 	tst.w	r3, #3
    327e:	d1fb      	bne.n	3278 <_spi_m_sync_init+0x54>
    3280:	69e3      	ldr	r3, [r4, #28]
    3282:	f013 0f02 	tst.w	r3, #2
    3286:	d1fb      	bne.n	3280 <_spi_m_sync_init+0x5c>
    3288:	f042 0201 	orr.w	r2, r2, #1
    328c:	6022      	str	r2, [r4, #0]
    328e:	69e3      	ldr	r3, [r4, #28]
    3290:	f013 0f03 	tst.w	r3, #3
    3294:	d1fb      	bne.n	328e <_spi_m_sync_init+0x6a>
    3296:	69e3      	ldr	r3, [r4, #28]
    3298:	f013 0f01 	tst.w	r3, #1
    329c:	d1fb      	bne.n	3296 <_spi_m_sync_init+0x72>
    329e:	6034      	str	r4, [r6, #0]
    32a0:	682b      	ldr	r3, [r5, #0]
    32a2:	f003 031c 	and.w	r3, r3, #28
    32a6:	2b08      	cmp	r3, #8
    32a8:	d03c      	beq.n	3324 <_spi_m_sync_init+0x100>
    32aa:	2c00      	cmp	r4, #0
    32ac:	d069      	beq.n	3382 <_spi_m_sync_init+0x15e>
    32ae:	2d00      	cmp	r5, #0
    32b0:	d065      	beq.n	337e <_spi_m_sync_init+0x15a>
    32b2:	2001      	movs	r0, #1
    32b4:	f640 1237 	movw	r2, #2359	; 0x937
    32b8:	4936      	ldr	r1, [pc, #216]	; (3394 <_spi_m_sync_init+0x170>)
    32ba:	4b37      	ldr	r3, [pc, #220]	; (3398 <_spi_m_sync_init+0x174>)
    32bc:	4798      	blx	r3
    32be:	682b      	ldr	r3, [r5, #0]
    32c0:	f423 7381 	bic.w	r3, r3, #258	; 0x102
    32c4:	f023 0301 	bic.w	r3, r3, #1
    32c8:	6023      	str	r3, [r4, #0]
    32ca:	69e3      	ldr	r3, [r4, #28]
    32cc:	f013 0f03 	tst.w	r3, #3
    32d0:	d1fb      	bne.n	32ca <_spi_m_sync_init+0xa6>
    32d2:	686b      	ldr	r3, [r5, #4]
    32d4:	f423 3338 	bic.w	r3, r3, #188416	; 0x2e000
    32d8:	f423 7310 	bic.w	r3, r3, #576	; 0x240
    32dc:	f443 3300 	orr.w	r3, r3, #131072	; 0x20000
    32e0:	6063      	str	r3, [r4, #4]
    32e2:	69e3      	ldr	r3, [r4, #28]
    32e4:	f013 0f17 	tst.w	r3, #23
    32e8:	d1fb      	bne.n	32e2 <_spi_m_sync_init+0xbe>
    32ea:	7b2b      	ldrb	r3, [r5, #12]
    32ec:	7323      	strb	r3, [r4, #12]
    32ee:	7b6b      	ldrb	r3, [r5, #13]
    32f0:	f884 3030 	strb.w	r3, [r4, #48]	; 0x30
    32f4:	686b      	ldr	r3, [r5, #4]
    32f6:	f013 0f07 	tst.w	r3, #7
    32fa:	d144      	bne.n	3386 <_spi_m_sync_init+0x162>
    32fc:	2301      	movs	r3, #1
    32fe:	7133      	strb	r3, [r6, #4]
    3300:	89eb      	ldrh	r3, [r5, #14]
    3302:	80f3      	strh	r3, [r6, #6]
    3304:	2000      	movs	r0, #0
    3306:	bd70      	pop	{r4, r5, r6, pc}
    3308:	2804      	cmp	r0, #4
    330a:	d002      	beq.n	3312 <_spi_m_sync_init+0xee>
    330c:	3301      	adds	r3, #1
    330e:	b2db      	uxtb	r3, r3
    3310:	e78f      	b.n	3232 <_spi_m_sync_init+0xe>
    3312:	eb03 1503 	add.w	r5, r3, r3, lsl #4
    3316:	4b21      	ldr	r3, [pc, #132]	; (339c <_spi_m_sync_init+0x178>)
    3318:	441d      	add	r5, r3
    331a:	e78d      	b.n	3238 <_spi_m_sync_init+0x14>
    331c:	2000      	movs	r0, #0
    331e:	e790      	b.n	3242 <_spi_m_sync_init+0x1e>
    3320:	2000      	movs	r0, #0
    3322:	e78e      	b.n	3242 <_spi_m_sync_init+0x1e>
    3324:	b34c      	cbz	r4, 337a <_spi_m_sync_init+0x156>
    3326:	b335      	cbz	r5, 3376 <_spi_m_sync_init+0x152>
    3328:	2001      	movs	r0, #1
    332a:	f640 124b 	movw	r2, #2379	; 0x94b
    332e:	4919      	ldr	r1, [pc, #100]	; (3394 <_spi_m_sync_init+0x170>)
    3330:	4b19      	ldr	r3, [pc, #100]	; (3398 <_spi_m_sync_init+0x174>)
    3332:	4798      	blx	r3
    3334:	682b      	ldr	r3, [r5, #0]
    3336:	f423 7381 	bic.w	r3, r3, #258	; 0x102
    333a:	f023 0301 	bic.w	r3, r3, #1
    333e:	6023      	str	r3, [r4, #0]
    3340:	69e3      	ldr	r3, [r4, #28]
    3342:	f013 0f03 	tst.w	r3, #3
    3346:	d1fb      	bne.n	3340 <_spi_m_sync_init+0x11c>
    3348:	686b      	ldr	r3, [r5, #4]
    334a:	f423 3308 	bic.w	r3, r3, #139264	; 0x22000
    334e:	f423 7310 	bic.w	r3, r3, #576	; 0x240
    3352:	f443 3300 	orr.w	r3, r3, #131072	; 0x20000
    3356:	f443 7310 	orr.w	r3, r3, #576	; 0x240
    335a:	6063      	str	r3, [r4, #4]
    335c:	69e3      	ldr	r3, [r4, #28]
    335e:	f013 0f17 	tst.w	r3, #23
    3362:	d1fb      	bne.n	335c <_spi_m_sync_init+0x138>
    3364:	68ab      	ldr	r3, [r5, #8]
    3366:	6263      	str	r3, [r4, #36]	; 0x24
    3368:	7b6b      	ldrb	r3, [r5, #13]
    336a:	f884 3030 	strb.w	r3, [r4, #48]	; 0x30
    336e:	69e3      	ldr	r3, [r4, #28]
    3370:	2b00      	cmp	r3, #0
    3372:	d1fc      	bne.n	336e <_spi_m_sync_init+0x14a>
    3374:	e7be      	b.n	32f4 <_spi_m_sync_init+0xd0>
    3376:	2000      	movs	r0, #0
    3378:	e7d7      	b.n	332a <_spi_m_sync_init+0x106>
    337a:	2000      	movs	r0, #0
    337c:	e7d5      	b.n	332a <_spi_m_sync_init+0x106>
    337e:	2000      	movs	r0, #0
    3380:	e798      	b.n	32b4 <_spi_m_sync_init+0x90>
    3382:	2000      	movs	r0, #0
    3384:	e796      	b.n	32b4 <_spi_m_sync_init+0x90>
    3386:	2302      	movs	r3, #2
    3388:	e7b9      	b.n	32fe <_spi_m_sync_init+0xda>
    338a:	f06f 000c 	mvn.w	r0, #12
    338e:	bd70      	pop	{r4, r5, r6, pc}
    3390:	0000270d 	.word	0x0000270d
    3394:	000064c4 	.word	0x000064c4
    3398:	00001c69 	.word	0x00001c69
    339c:	000064b0 	.word	0x000064b0

000033a0 <_spi_m_sync_enable>:
    33a0:	b510      	push	{r4, lr}
    33a2:	4604      	mov	r4, r0
    33a4:	b168      	cbz	r0, 33c2 <_spi_m_sync_enable+0x22>
    33a6:	6803      	ldr	r3, [r0, #0]
    33a8:	b14b      	cbz	r3, 33be <_spi_m_sync_enable+0x1e>
    33aa:	2001      	movs	r0, #1
    33ac:	f640 2206 	movw	r2, #2566	; 0xa06
    33b0:	4905      	ldr	r1, [pc, #20]	; (33c8 <_spi_m_sync_enable+0x28>)
    33b2:	4b06      	ldr	r3, [pc, #24]	; (33cc <_spi_m_sync_enable+0x2c>)
    33b4:	4798      	blx	r3
    33b6:	6820      	ldr	r0, [r4, #0]
    33b8:	4b05      	ldr	r3, [pc, #20]	; (33d0 <_spi_m_sync_enable+0x30>)
    33ba:	4798      	blx	r3
    33bc:	bd10      	pop	{r4, pc}
    33be:	2000      	movs	r0, #0
    33c0:	e7f4      	b.n	33ac <_spi_m_sync_enable+0xc>
    33c2:	2000      	movs	r0, #0
    33c4:	e7f2      	b.n	33ac <_spi_m_sync_enable+0xc>
    33c6:	bf00      	nop
    33c8:	000064c4 	.word	0x000064c4
    33cc:	00001c69 	.word	0x00001c69
    33d0:	000027fd 	.word	0x000027fd

000033d4 <_spi_m_sync_trans>:
    33d4:	b5f0      	push	{r4, r5, r6, r7, lr}
    33d6:	b087      	sub	sp, #28
    33d8:	4607      	mov	r7, r0
    33da:	460d      	mov	r5, r1
    33dc:	6804      	ldr	r4, [r0, #0]
    33de:	680b      	ldr	r3, [r1, #0]
    33e0:	9301      	str	r3, [sp, #4]
    33e2:	684b      	ldr	r3, [r1, #4]
    33e4:	9302      	str	r3, [sp, #8]
    33e6:	2300      	movs	r3, #0
    33e8:	9303      	str	r3, [sp, #12]
    33ea:	9304      	str	r3, [sp, #16]
    33ec:	7906      	ldrb	r6, [r0, #4]
    33ee:	b1b8      	cbz	r0, 3420 <_spi_m_sync_trans+0x4c>
    33f0:	b1a4      	cbz	r4, 341c <_spi_m_sync_trans+0x48>
    33f2:	2001      	movs	r0, #1
    33f4:	f640 320b 	movw	r2, #2827	; 0xb0b
    33f8:	4934      	ldr	r1, [pc, #208]	; (34cc <_spi_m_sync_trans+0xf8>)
    33fa:	4b35      	ldr	r3, [pc, #212]	; (34d0 <_spi_m_sync_trans+0xfc>)
    33fc:	4798      	blx	r3
    33fe:	69e3      	ldr	r3, [r4, #28]
    3400:	f013 0f07 	tst.w	r3, #7
    3404:	d15f      	bne.n	34c6 <_spi_m_sync_trans+0xf2>
    3406:	69e3      	ldr	r3, [r4, #28]
    3408:	f013 0f03 	tst.w	r3, #3
    340c:	d1fb      	bne.n	3406 <_spi_m_sync_trans+0x32>
    340e:	6823      	ldr	r3, [r4, #0]
    3410:	f013 0f02 	tst.w	r3, #2
    3414:	d11e      	bne.n	3454 <_spi_m_sync_trans+0x80>
    3416:	f06f 0013 	mvn.w	r0, #19
    341a:	e052      	b.n	34c2 <_spi_m_sync_trans+0xee>
    341c:	4618      	mov	r0, r3
    341e:	e7e9      	b.n	33f4 <_spi_m_sync_trans+0x20>
    3420:	2000      	movs	r0, #0
    3422:	e7e7      	b.n	33f4 <_spi_m_sync_trans+0x20>
    3424:	2200      	movs	r2, #0
    3426:	e02b      	b.n	3480 <_spi_m_sync_trans+0xac>
    3428:	f891 e001 	ldrb.w	lr, [r1, #1]
    342c:	ea40 200e 	orr.w	r0, r0, lr, lsl #8
    3430:	3102      	adds	r1, #2
    3432:	9101      	str	r1, [sp, #4]
    3434:	3201      	adds	r2, #1
    3436:	9203      	str	r2, [sp, #12]
    3438:	62a0      	str	r0, [r4, #40]	; 0x28
    343a:	f013 0f80 	tst.w	r3, #128	; 0x80
    343e:	d132      	bne.n	34a6 <_spi_m_sync_trans+0xd2>
    3440:	2000      	movs	r0, #0
    3442:	2800      	cmp	r0, #0
    3444:	db37      	blt.n	34b6 <_spi_m_sync_trans+0xe2>
    3446:	9803      	ldr	r0, [sp, #12]
    3448:	68ab      	ldr	r3, [r5, #8]
    344a:	4298      	cmp	r0, r3
    344c:	d302      	bcc.n	3454 <_spi_m_sync_trans+0x80>
    344e:	9a04      	ldr	r2, [sp, #16]
    3450:	4293      	cmp	r3, r2
    3452:	d930      	bls.n	34b6 <_spi_m_sync_trans+0xe2>
    3454:	7e23      	ldrb	r3, [r4, #24]
    3456:	b2db      	uxtb	r3, r3
    3458:	f013 0f04 	tst.w	r3, #4
    345c:	d0e2      	beq.n	3424 <_spi_m_sync_trans+0x50>
    345e:	6aa1      	ldr	r1, [r4, #40]	; 0x28
    3460:	9a02      	ldr	r2, [sp, #8]
    3462:	b14a      	cbz	r2, 3478 <_spi_m_sync_trans+0xa4>
    3464:	1c50      	adds	r0, r2, #1
    3466:	9002      	str	r0, [sp, #8]
    3468:	7011      	strb	r1, [r2, #0]
    346a:	2e01      	cmp	r6, #1
    346c:	d904      	bls.n	3478 <_spi_m_sync_trans+0xa4>
    346e:	1c90      	adds	r0, r2, #2
    3470:	9002      	str	r0, [sp, #8]
    3472:	f3c1 2107 	ubfx	r1, r1, #8, #8
    3476:	7051      	strb	r1, [r2, #1]
    3478:	9a04      	ldr	r2, [sp, #16]
    347a:	3201      	adds	r2, #1
    347c:	9204      	str	r2, [sp, #16]
    347e:	2201      	movs	r2, #1
    3480:	2a00      	cmp	r2, #0
    3482:	d1da      	bne.n	343a <_spi_m_sync_trans+0x66>
    3484:	9a03      	ldr	r2, [sp, #12]
    3486:	9904      	ldr	r1, [sp, #16]
    3488:	4291      	cmp	r1, r2
    348a:	d3d6      	bcc.n	343a <_spi_m_sync_trans+0x66>
    348c:	88f8      	ldrh	r0, [r7, #6]
    348e:	f013 0f01 	tst.w	r3, #1
    3492:	d0d2      	beq.n	343a <_spi_m_sync_trans+0x66>
    3494:	9901      	ldr	r1, [sp, #4]
    3496:	2900      	cmp	r1, #0
    3498:	d0cc      	beq.n	3434 <_spi_m_sync_trans+0x60>
    349a:	1c48      	adds	r0, r1, #1
    349c:	9001      	str	r0, [sp, #4]
    349e:	7808      	ldrb	r0, [r1, #0]
    34a0:	2e01      	cmp	r6, #1
    34a2:	d8c1      	bhi.n	3428 <_spi_m_sync_trans+0x54>
    34a4:	e7c6      	b.n	3434 <_spi_m_sync_trans+0x60>
    34a6:	f64f 73ff 	movw	r3, #65535	; 0xffff
    34aa:	8363      	strh	r3, [r4, #26]
    34ac:	2380      	movs	r3, #128	; 0x80
    34ae:	7623      	strb	r3, [r4, #24]
    34b0:	f06f 0012 	mvn.w	r0, #18
    34b4:	e7c5      	b.n	3442 <_spi_m_sync_trans+0x6e>
    34b6:	7e23      	ldrb	r3, [r4, #24]
    34b8:	f013 0f03 	tst.w	r3, #3
    34bc:	d0fb      	beq.n	34b6 <_spi_m_sync_trans+0xe2>
    34be:	2303      	movs	r3, #3
    34c0:	7623      	strb	r3, [r4, #24]
    34c2:	b007      	add	sp, #28
    34c4:	bdf0      	pop	{r4, r5, r6, r7, pc}
    34c6:	f06f 0003 	mvn.w	r0, #3
    34ca:	e7fa      	b.n	34c2 <_spi_m_sync_trans+0xee>
    34cc:	000064c4 	.word	0x000064c4
    34d0:	00001c69 	.word	0x00001c69

000034d4 <_system_time_init>:
    34d4:	4b03      	ldr	r3, [pc, #12]	; (34e4 <_system_time_init+0x10>)
    34d6:	f06f 427f 	mvn.w	r2, #4278190080	; 0xff000000
    34da:	605a      	str	r2, [r3, #4]
    34dc:	2205      	movs	r2, #5
    34de:	601a      	str	r2, [r3, #0]
    34e0:	4770      	bx	lr
    34e2:	bf00      	nop
    34e4:	e000e010 	.word	0xe000e010

000034e8 <_delay_init>:
    34e8:	b508      	push	{r3, lr}
    34ea:	4b01      	ldr	r3, [pc, #4]	; (34f0 <_delay_init+0x8>)
    34ec:	4798      	blx	r3
    34ee:	bd08      	pop	{r3, pc}
    34f0:	000034d5 	.word	0x000034d5

000034f4 <_delay_cycles>:
    34f4:	0e08      	lsrs	r0, r1, #24
    34f6:	e00d      	b.n	3514 <_delay_cycles+0x20>
    34f8:	4b0d      	ldr	r3, [pc, #52]	; (3530 <_delay_cycles+0x3c>)
    34fa:	f06f 407f 	mvn.w	r0, #4278190080	; 0xff000000
    34fe:	6058      	str	r0, [r3, #4]
    3500:	6098      	str	r0, [r3, #8]
    3502:	4b0b      	ldr	r3, [pc, #44]	; (3530 <_delay_cycles+0x3c>)
    3504:	681b      	ldr	r3, [r3, #0]
    3506:	f413 3f80 	tst.w	r3, #65536	; 0x10000
    350a:	d0fa      	beq.n	3502 <_delay_cycles+0xe>
    350c:	f101 417f 	add.w	r1, r1, #4278190080	; 0xff000000
    3510:	3101      	adds	r1, #1
    3512:	4610      	mov	r0, r2
    3514:	1e43      	subs	r3, r0, #1
    3516:	b2da      	uxtb	r2, r3
    3518:	2800      	cmp	r0, #0
    351a:	d1ed      	bne.n	34f8 <_delay_cycles+0x4>
    351c:	4b04      	ldr	r3, [pc, #16]	; (3530 <_delay_cycles+0x3c>)
    351e:	6059      	str	r1, [r3, #4]
    3520:	6099      	str	r1, [r3, #8]
    3522:	4b03      	ldr	r3, [pc, #12]	; (3530 <_delay_cycles+0x3c>)
    3524:	681b      	ldr	r3, [r3, #0]
    3526:	f413 3f80 	tst.w	r3, #65536	; 0x10000
    352a:	d0fa      	beq.n	3522 <_delay_cycles+0x2e>
    352c:	4770      	bx	lr
    352e:	bf00      	nop
    3530:	e000e010 	.word	0xe000e010

00003534 <_dummy_func_no_return>:
    3534:	2000      	movs	r0, #0
    3536:	4770      	bx	lr

00003538 <_usb_load_calib>:
    3538:	4b14      	ldr	r3, [pc, #80]	; (358c <_usb_load_calib+0x54>)
    353a:	681a      	ldr	r2, [r3, #0]
    353c:	f3c2 1344 	ubfx	r3, r2, #5, #5
    3540:	f3c2 2182 	ubfx	r1, r2, #10, #3
    3544:	f012 021f 	ands.w	r2, r2, #31
    3548:	d003      	beq.n	3552 <_usb_load_calib+0x1a>
    354a:	2a1f      	cmp	r2, #31
    354c:	d102      	bne.n	3554 <_usb_load_calib+0x1c>
    354e:	2209      	movs	r2, #9
    3550:	e000      	b.n	3554 <_usb_load_calib+0x1c>
    3552:	2209      	movs	r2, #9
    3554:	b11b      	cbz	r3, 355e <_usb_load_calib+0x26>
    3556:	2b1f      	cmp	r3, #31
    3558:	d102      	bne.n	3560 <_usb_load_calib+0x28>
    355a:	2319      	movs	r3, #25
    355c:	e000      	b.n	3560 <_usb_load_calib+0x28>
    355e:	2319      	movs	r3, #25
    3560:	b119      	cbz	r1, 356a <_usb_load_calib+0x32>
    3562:	2907      	cmp	r1, #7
    3564:	d102      	bne.n	356c <_usb_load_calib+0x34>
    3566:	2106      	movs	r1, #6
    3568:	e000      	b.n	356c <_usb_load_calib+0x34>
    356a:	2106      	movs	r1, #6
    356c:	ea43 1382 	orr.w	r3, r3, r2, lsl #6
    3570:	ea43 3301 	orr.w	r3, r3, r1, lsl #12
    3574:	f04f 4282 	mov.w	r2, #1090519040	; 0x41000000
    3578:	8513      	strh	r3, [r2, #40]	; 0x28
    357a:	78d3      	ldrb	r3, [r2, #3]
    357c:	f043 0303 	orr.w	r3, r3, #3
    3580:	70d3      	strb	r3, [r2, #3]
    3582:	78d3      	ldrb	r3, [r2, #3]
    3584:	f043 030c 	orr.w	r3, r3, #12
    3588:	70d3      	strb	r3, [r2, #3]
    358a:	4770      	bx	lr
    358c:	00800084 	.word	0x00800084

00003590 <_usb_d_dev_handle_setup>:
    3590:	b538      	push	{r3, r4, r5, lr}
    3592:	7c83      	ldrb	r3, [r0, #18]
    3594:	f003 030f 	and.w	r3, r3, #15
    3598:	7cc2      	ldrb	r2, [r0, #19]
    359a:	f002 0107 	and.w	r1, r2, #7
    359e:	2901      	cmp	r1, #1
    35a0:	d00c      	beq.n	35bc <_usb_d_dev_handle_setup+0x2c>
    35a2:	f103 0208 	add.w	r2, r3, #8
    35a6:	0152      	lsls	r2, r2, #5
    35a8:	f102 4282 	add.w	r2, r2, #1090519040	; 0x41000000
    35ac:	2110      	movs	r1, #16
    35ae:	71d1      	strb	r1, [r2, #7]
    35b0:	015b      	lsls	r3, r3, #5
    35b2:	f103 4382 	add.w	r3, r3, #1090519040	; 0x41000000
    35b6:	f883 1108 	strb.w	r1, [r3, #264]	; 0x108
    35ba:	bd38      	pop	{r3, r4, r5, pc}
    35bc:	f012 0f40 	tst.w	r2, #64	; 0x40
    35c0:	d00c      	beq.n	35dc <_usb_d_dev_handle_setup+0x4c>
    35c2:	7cc2      	ldrb	r2, [r0, #19]
    35c4:	f36f 1286 	bfc	r2, #6, #1
    35c8:	74c2      	strb	r2, [r0, #19]
    35ca:	f103 0208 	add.w	r2, r3, #8
    35ce:	0152      	lsls	r2, r2, #5
    35d0:	f102 4282 	add.w	r2, r2, #1090519040	; 0x41000000
    35d4:	2180      	movs	r1, #128	; 0x80
    35d6:	7111      	strb	r1, [r2, #4]
    35d8:	2140      	movs	r1, #64	; 0x40
    35da:	7151      	strb	r1, [r2, #5]
    35dc:	7cc2      	ldrb	r2, [r0, #19]
    35de:	f36f 02c3 	bfc	r2, #3, #1
    35e2:	74c2      	strb	r2, [r0, #19]
    35e4:	4909      	ldr	r1, [pc, #36]	; (360c <_usb_d_dev_handle_setup+0x7c>)
    35e6:	015a      	lsls	r2, r3, #5
    35e8:	188c      	adds	r4, r1, r2
    35ea:	2500      	movs	r5, #0
    35ec:	72a5      	strb	r5, [r4, #10]
    35ee:	76a5      	strb	r5, [r4, #26]
    35f0:	3308      	adds	r3, #8
    35f2:	015b      	lsls	r3, r3, #5
    35f4:	f103 4382 	add.w	r3, r3, #1090519040	; 0x41000000
    35f8:	246f      	movs	r4, #111	; 0x6f
    35fa:	71dc      	strb	r4, [r3, #7]
    35fc:	f102 4282 	add.w	r2, r2, #1090519040	; 0x41000000
    3600:	f882 4108 	strb.w	r4, [r2, #264]	; 0x108
    3604:	6e8b      	ldr	r3, [r1, #104]	; 0x68
    3606:	7c80      	ldrb	r0, [r0, #18]
    3608:	4798      	blx	r3
    360a:	bd38      	pop	{r3, r4, r5, pc}
    360c:	200001f8 	.word	0x200001f8

00003610 <_usb_d_dev_handle_stall>:
    3610:	b508      	push	{r3, lr}
    3612:	7c83      	ldrb	r3, [r0, #18]
    3614:	f003 030f 	and.w	r3, r3, #15
    3618:	2220      	movs	r2, #32
    361a:	fa02 f101 	lsl.w	r1, r2, r1
    361e:	b2c9      	uxtb	r1, r1
    3620:	015b      	lsls	r3, r3, #5
    3622:	f103 4382 	add.w	r3, r3, #1090519040	; 0x41000000
    3626:	f883 1108 	strb.w	r1, [r3, #264]	; 0x108
    362a:	4b03      	ldr	r3, [pc, #12]	; (3638 <_usb_d_dev_handle_stall+0x28>)
    362c:	6f1b      	ldr	r3, [r3, #112]	; 0x70
    362e:	6882      	ldr	r2, [r0, #8]
    3630:	2101      	movs	r1, #1
    3632:	7c80      	ldrb	r0, [r0, #18]
    3634:	4798      	blx	r3
    3636:	bd08      	pop	{r3, pc}
    3638:	200001f8 	.word	0x200001f8

0000363c <_usb_d_dev_trans_done>:
    363c:	b538      	push	{r3, r4, r5, lr}
    363e:	7c84      	ldrb	r4, [r0, #18]
    3640:	2cff      	cmp	r4, #255	; 0xff
    3642:	d003      	beq.n	364c <_usb_d_dev_trans_done+0x10>
    3644:	7cc3      	ldrb	r3, [r0, #19]
    3646:	f013 0f40 	tst.w	r3, #64	; 0x40
    364a:	d100      	bne.n	364e <_usb_d_dev_trans_done+0x12>
    364c:	bd38      	pop	{r3, r4, r5, pc}
    364e:	7cc2      	ldrb	r2, [r0, #19]
    3650:	f36f 1286 	bfc	r2, #6, #1
    3654:	74c2      	strb	r2, [r0, #19]
    3656:	4a03      	ldr	r2, [pc, #12]	; (3664 <_usb_d_dev_trans_done+0x28>)
    3658:	6f15      	ldr	r5, [r2, #112]	; 0x70
    365a:	6882      	ldr	r2, [r0, #8]
    365c:	4620      	mov	r0, r4
    365e:	47a8      	blx	r5
    3660:	e7f4      	b.n	364c <_usb_d_dev_trans_done+0x10>
    3662:	bf00      	nop
    3664:	200001f8 	.word	0x200001f8

00003668 <_usb_d_dev_trans_stop>:
    3668:	b530      	push	{r4, r5, lr}
    366a:	b083      	sub	sp, #12
    366c:	7c84      	ldrb	r4, [r0, #18]
    366e:	4d19      	ldr	r5, [pc, #100]	; (36d4 <_usb_d_dev_trans_stop+0x6c>)
    3670:	882d      	ldrh	r5, [r5, #0]
    3672:	f8ad 5004 	strh.w	r5, [sp, #4]
    3676:	2cff      	cmp	r4, #255	; 0xff
    3678:	d022      	beq.n	36c0 <_usb_d_dev_trans_stop+0x58>
    367a:	f004 030f 	and.w	r3, r4, #15
    367e:	7cc4      	ldrb	r4, [r0, #19]
    3680:	f014 0f40 	tst.w	r4, #64	; 0x40
    3684:	d01c      	beq.n	36c0 <_usb_d_dev_trans_stop+0x58>
    3686:	b1e9      	cbz	r1, 36c4 <_usb_d_dev_trans_stop+0x5c>
    3688:	f103 0408 	add.w	r4, r3, #8
    368c:	0164      	lsls	r4, r4, #5
    368e:	f104 4482 	add.w	r4, r4, #1090519040	; 0x41000000
    3692:	2580      	movs	r5, #128	; 0x80
    3694:	7125      	strb	r5, [r4, #4]
    3696:	460c      	mov	r4, r1
    3698:	a902      	add	r1, sp, #8
    369a:	440c      	add	r4, r1
    369c:	f814 1c04 	ldrb.w	r1, [r4, #-4]
    36a0:	f103 0508 	add.w	r5, r3, #8
    36a4:	016d      	lsls	r5, r5, #5
    36a6:	f105 4582 	add.w	r5, r5, #1090519040	; 0x41000000
    36aa:	71e9      	strb	r1, [r5, #7]
    36ac:	f814 1c04 	ldrb.w	r1, [r4, #-4]
    36b0:	015b      	lsls	r3, r3, #5
    36b2:	f103 4382 	add.w	r3, r3, #1090519040	; 0x41000000
    36b6:	f883 1108 	strb.w	r1, [r3, #264]	; 0x108
    36ba:	4611      	mov	r1, r2
    36bc:	4b06      	ldr	r3, [pc, #24]	; (36d8 <_usb_d_dev_trans_stop+0x70>)
    36be:	4798      	blx	r3
    36c0:	b003      	add	sp, #12
    36c2:	bd30      	pop	{r4, r5, pc}
    36c4:	f103 0408 	add.w	r4, r3, #8
    36c8:	0164      	lsls	r4, r4, #5
    36ca:	f104 4482 	add.w	r4, r4, #1090519040	; 0x41000000
    36ce:	2540      	movs	r5, #64	; 0x40
    36d0:	7165      	strb	r5, [r4, #5]
    36d2:	e7e0      	b.n	3696 <_usb_d_dev_trans_stop+0x2e>
    36d4:	000064e0 	.word	0x000064e0
    36d8:	0000363d 	.word	0x0000363d

000036dc <_usb_d_dev_handle_trfail>:
    36dc:	b570      	push	{r4, r5, r6, lr}
    36de:	b082      	sub	sp, #8
    36e0:	7c83      	ldrb	r3, [r0, #18]
    36e2:	f003 030f 	and.w	r3, r3, #15
    36e6:	4a40      	ldr	r2, [pc, #256]	; (37e8 <_usb_d_dev_handle_trfail+0x10c>)
    36e8:	8892      	ldrh	r2, [r2, #4]
    36ea:	f8ad 2004 	strh.w	r2, [sp, #4]
    36ee:	4a3f      	ldr	r2, [pc, #252]	; (37ec <_usb_d_dev_handle_trfail+0x110>)
    36f0:	eb02 1243 	add.w	r2, r2, r3, lsl #5
    36f4:	460c      	mov	r4, r1
    36f6:	b3a9      	cbz	r1, 3764 <_usb_d_dev_handle_trfail+0x88>
    36f8:	f103 0108 	add.w	r1, r3, #8
    36fc:	0149      	lsls	r1, r1, #5
    36fe:	f101 4182 	add.w	r1, r1, #1090519040	; 0x41000000
    3702:	780d      	ldrb	r5, [r1, #0]
    3704:	f3c5 1502 	ubfx	r5, r5, #4, #3
    3708:	7cc1      	ldrb	r1, [r0, #19]
    370a:	f001 0607 	and.w	r6, r1, #7
    370e:	eb02 1204 	add.w	r2, r2, r4, lsl #4
    3712:	7a91      	ldrb	r1, [r2, #10]
    3714:	b2c9      	uxtb	r1, r1
    3716:	2d02      	cmp	r5, #2
    3718:	d02d      	beq.n	3776 <_usb_d_dev_handle_trfail+0x9a>
    371a:	f011 0f02 	tst.w	r1, #2
    371e:	d049      	beq.n	37b4 <_usb_d_dev_handle_trfail+0xd8>
    3720:	7a91      	ldrb	r1, [r2, #10]
    3722:	f36f 0141 	bfc	r1, #1, #1
    3726:	7291      	strb	r1, [r2, #10]
    3728:	aa02      	add	r2, sp, #8
    372a:	1911      	adds	r1, r2, r4
    372c:	f811 5c04 	ldrb.w	r5, [r1, #-4]
    3730:	f103 0208 	add.w	r2, r3, #8
    3734:	0152      	lsls	r2, r2, #5
    3736:	f102 4282 	add.w	r2, r2, #1090519040	; 0x41000000
    373a:	71d5      	strb	r5, [r2, #7]
    373c:	f811 2c04 	ldrb.w	r2, [r1, #-4]
    3740:	015b      	lsls	r3, r3, #5
    3742:	f103 4382 	add.w	r3, r3, #1090519040	; 0x41000000
    3746:	f883 2108 	strb.w	r2, [r3, #264]	; 0x108
    374a:	2e01      	cmp	r6, #1
    374c:	d14a      	bne.n	37e4 <_usb_d_dev_handle_trfail+0x108>
    374e:	7cc3      	ldrb	r3, [r0, #19]
    3750:	f013 0f40 	tst.w	r3, #64	; 0x40
    3754:	d046      	beq.n	37e4 <_usb_d_dev_handle_trfail+0x108>
    3756:	09d9      	lsrs	r1, r3, #7
    3758:	428c      	cmp	r4, r1
    375a:	d043      	beq.n	37e4 <_usb_d_dev_handle_trfail+0x108>
    375c:	2200      	movs	r2, #0
    375e:	4b24      	ldr	r3, [pc, #144]	; (37f0 <_usb_d_dev_handle_trfail+0x114>)
    3760:	4798      	blx	r3
    3762:	e03f      	b.n	37e4 <_usb_d_dev_handle_trfail+0x108>
    3764:	f103 0108 	add.w	r1, r3, #8
    3768:	0149      	lsls	r1, r1, #5
    376a:	f101 4182 	add.w	r1, r1, #1090519040	; 0x41000000
    376e:	780d      	ldrb	r5, [r1, #0]
    3770:	f005 0507 	and.w	r5, r5, #7
    3774:	e7c8      	b.n	3708 <_usb_d_dev_handle_trfail+0x2c>
    3776:	f011 0f01 	tst.w	r1, #1
    377a:	d0ce      	beq.n	371a <_usb_d_dev_handle_trfail+0x3e>
    377c:	7a91      	ldrb	r1, [r2, #10]
    377e:	f36f 0100 	bfc	r1, #0, #1
    3782:	7291      	strb	r1, [r2, #10]
    3784:	aa02      	add	r2, sp, #8
    3786:	1911      	adds	r1, r2, r4
    3788:	f811 5c04 	ldrb.w	r5, [r1, #-4]
    378c:	f103 0208 	add.w	r2, r3, #8
    3790:	0152      	lsls	r2, r2, #5
    3792:	f102 4282 	add.w	r2, r2, #1090519040	; 0x41000000
    3796:	71d5      	strb	r5, [r2, #7]
    3798:	f811 2c04 	ldrb.w	r2, [r1, #-4]
    379c:	015b      	lsls	r3, r3, #5
    379e:	f103 4382 	add.w	r3, r3, #1090519040	; 0x41000000
    37a2:	f883 2108 	strb.w	r2, [r3, #264]	; 0x108
    37a6:	2204      	movs	r2, #4
    37a8:	1c21      	adds	r1, r4, #0
    37aa:	bf18      	it	ne
    37ac:	2101      	movne	r1, #1
    37ae:	4b10      	ldr	r3, [pc, #64]	; (37f0 <_usb_d_dev_handle_trfail+0x114>)
    37b0:	4798      	blx	r3
    37b2:	e017      	b.n	37e4 <_usb_d_dev_handle_trfail+0x108>
    37b4:	eb04 0143 	add.w	r1, r4, r3, lsl #1
    37b8:	4a0c      	ldr	r2, [pc, #48]	; (37ec <_usb_d_dev_handle_trfail+0x110>)
    37ba:	eb02 1201 	add.w	r2, r2, r1, lsl #4
    37be:	2100      	movs	r1, #0
    37c0:	7291      	strb	r1, [r2, #10]
    37c2:	aa02      	add	r2, sp, #8
    37c4:	4414      	add	r4, r2
    37c6:	f814 1c04 	ldrb.w	r1, [r4, #-4]
    37ca:	f103 0208 	add.w	r2, r3, #8
    37ce:	0152      	lsls	r2, r2, #5
    37d0:	f102 4282 	add.w	r2, r2, #1090519040	; 0x41000000
    37d4:	71d1      	strb	r1, [r2, #7]
    37d6:	f814 2c04 	ldrb.w	r2, [r4, #-4]
    37da:	015b      	lsls	r3, r3, #5
    37dc:	f103 4382 	add.w	r3, r3, #1090519040	; 0x41000000
    37e0:	f883 2108 	strb.w	r2, [r3, #264]	; 0x108
    37e4:	b002      	add	sp, #8
    37e6:	bd70      	pop	{r4, r5, r6, pc}
    37e8:	000064e0 	.word	0x000064e0
    37ec:	200001f8 	.word	0x200001f8
    37f0:	00003669 	.word	0x00003669

000037f4 <_usb_d_dev_reset_epts>:
    37f4:	b570      	push	{r4, r5, r6, lr}
    37f6:	2400      	movs	r4, #0
    37f8:	e019      	b.n	382e <_usb_d_dev_reset_epts+0x3a>
    37fa:	4e11      	ldr	r6, [pc, #68]	; (3840 <_usb_d_dev_reset_epts+0x4c>)
    37fc:	f106 0060 	add.w	r0, r6, #96	; 0x60
    3800:	00a5      	lsls	r5, r4, #2
    3802:	192a      	adds	r2, r5, r4
    3804:	0093      	lsls	r3, r2, #2
    3806:	3310      	adds	r3, #16
    3808:	4418      	add	r0, r3
    380a:	2103      	movs	r1, #3
    380c:	3004      	adds	r0, #4
    380e:	4b0d      	ldr	r3, [pc, #52]	; (3844 <_usb_d_dev_reset_epts+0x50>)
    3810:	4798      	blx	r3
    3812:	192a      	adds	r2, r5, r4
    3814:	0093      	lsls	r3, r2, #2
    3816:	4433      	add	r3, r6
    3818:	22ff      	movs	r2, #255	; 0xff
    381a:	f883 2086 	strb.w	r2, [r3, #134]	; 0x86
    381e:	4425      	add	r5, r4
    3820:	00ab      	lsls	r3, r5, #2
    3822:	441e      	add	r6, r3
    3824:	2300      	movs	r3, #0
    3826:	f886 3087 	strb.w	r3, [r6, #135]	; 0x87
    382a:	3401      	adds	r4, #1
    382c:	b2e4      	uxtb	r4, r4
    382e:	2c08      	cmp	r4, #8
    3830:	d9e3      	bls.n	37fa <_usb_d_dev_reset_epts+0x6>
    3832:	2260      	movs	r2, #96	; 0x60
    3834:	2100      	movs	r1, #0
    3836:	4802      	ldr	r0, [pc, #8]	; (3840 <_usb_d_dev_reset_epts+0x4c>)
    3838:	4b03      	ldr	r3, [pc, #12]	; (3848 <_usb_d_dev_reset_epts+0x54>)
    383a:	4798      	blx	r3
    383c:	bd70      	pop	{r4, r5, r6, pc}
    383e:	bf00      	nop
    3840:	200001f8 	.word	0x200001f8
    3844:	0000363d 	.word	0x0000363d
    3848:	00006207 	.word	0x00006207

0000384c <_usb_d_dev_in_next>:
    384c:	e92d 41f0 	stmdb	sp!, {r4, r5, r6, r7, r8, lr}
    3850:	4605      	mov	r5, r0
    3852:	7c84      	ldrb	r4, [r0, #18]
    3854:	f004 040f 	and.w	r4, r4, #15
    3858:	4b52      	ldr	r3, [pc, #328]	; (39a4 <_usb_d_dev_in_next+0x158>)
    385a:	eb03 1344 	add.w	r3, r3, r4, lsl #5
    385e:	460e      	mov	r6, r1
    3860:	2900      	cmp	r1, #0
    3862:	d04f      	beq.n	3904 <_usb_d_dev_in_next+0xb8>
    3864:	6958      	ldr	r0, [r3, #20]
    3866:	f3c0 000d 	ubfx	r0, r0, #0, #14
    386a:	8a2b      	ldrh	r3, [r5, #16]
    386c:	f240 32ff 	movw	r2, #1023	; 0x3ff
    3870:	4293      	cmp	r3, r2
    3872:	d049      	beq.n	3908 <_usb_d_dev_in_next+0xbc>
    3874:	3b01      	subs	r3, #1
    3876:	b21b      	sxth	r3, r3
    3878:	4003      	ands	r3, r0
    387a:	7cef      	ldrb	r7, [r5, #19]
    387c:	f007 0707 	and.w	r7, r7, #7
    3880:	b136      	cbz	r6, 3890 <_usb_d_dev_in_next+0x44>
    3882:	f104 0208 	add.w	r2, r4, #8
    3886:	0152      	lsls	r2, r2, #5
    3888:	f102 4282 	add.w	r2, r2, #1090519040	; 0x41000000
    388c:	2102      	movs	r1, #2
    388e:	71d1      	strb	r1, [r2, #7]
    3890:	68a9      	ldr	r1, [r5, #8]
    3892:	4401      	add	r1, r0
    3894:	60a9      	str	r1, [r5, #8]
    3896:	686a      	ldr	r2, [r5, #4]
    3898:	4291      	cmp	r1, r2
    389a:	d245      	bcs.n	3928 <_usb_d_dev_in_next+0xdc>
    389c:	b292      	uxth	r2, r2
    389e:	b28b      	uxth	r3, r1
    38a0:	1ad2      	subs	r2, r2, r3
    38a2:	b292      	uxth	r2, r2
    38a4:	7ceb      	ldrb	r3, [r5, #19]
    38a6:	f013 0f20 	tst.w	r3, #32
    38aa:	d02f      	beq.n	390c <_usb_d_dev_in_next+0xc0>
    38ac:	f8b5 8010 	ldrh.w	r8, [r5, #16]
    38b0:	4542      	cmp	r2, r8
    38b2:	d800      	bhi.n	38b6 <_usb_d_dev_in_next+0x6a>
    38b4:	4690      	mov	r8, r2
    38b6:	682b      	ldr	r3, [r5, #0]
    38b8:	4642      	mov	r2, r8
    38ba:	4419      	add	r1, r3
    38bc:	68e8      	ldr	r0, [r5, #12]
    38be:	4b3a      	ldr	r3, [pc, #232]	; (39a8 <_usb_d_dev_in_next+0x15c>)
    38c0:	4798      	blx	r3
    38c2:	68ea      	ldr	r2, [r5, #12]
    38c4:	4b37      	ldr	r3, [pc, #220]	; (39a4 <_usb_d_dev_in_next+0x158>)
    38c6:	eb03 1344 	add.w	r3, r3, r4, lsl #5
    38ca:	611a      	str	r2, [r3, #16]
    38cc:	4b35      	ldr	r3, [pc, #212]	; (39a4 <_usb_d_dev_in_next+0x158>)
    38ce:	eb03 1344 	add.w	r3, r3, r4, lsl #5
    38d2:	695a      	ldr	r2, [r3, #20]
    38d4:	f368 020d 	bfi	r2, r8, #0, #14
    38d8:	615a      	str	r2, [r3, #20]
    38da:	695a      	ldr	r2, [r3, #20]
    38dc:	f36f 329b 	bfc	r2, #14, #14
    38e0:	615a      	str	r2, [r3, #20]
    38e2:	b93e      	cbnz	r6, 38f4 <_usb_d_dev_in_next+0xa8>
    38e4:	2f01      	cmp	r7, #1
    38e6:	d05b      	beq.n	39a0 <_usb_d_dev_in_next+0x154>
    38e8:	224a      	movs	r2, #74	; 0x4a
    38ea:	0163      	lsls	r3, r4, #5
    38ec:	f103 4382 	add.w	r3, r3, #1090519040	; 0x41000000
    38f0:	f883 2109 	strb.w	r2, [r3, #265]	; 0x109
    38f4:	3408      	adds	r4, #8
    38f6:	0164      	lsls	r4, r4, #5
    38f8:	f104 4482 	add.w	r4, r4, #1090519040	; 0x41000000
    38fc:	2380      	movs	r3, #128	; 0x80
    38fe:	7163      	strb	r3, [r4, #5]
    3900:	e8bd 81f0 	ldmia.w	sp!, {r4, r5, r6, r7, r8, pc}
    3904:	2000      	movs	r0, #0
    3906:	e7b0      	b.n	386a <_usb_d_dev_in_next+0x1e>
    3908:	b21b      	sxth	r3, r3
    390a:	e7b5      	b.n	3878 <_usb_d_dev_in_next+0x2c>
    390c:	f5b2 5f00 	cmp.w	r2, #8192	; 0x2000
    3910:	d807      	bhi.n	3922 <_usb_d_dev_in_next+0xd6>
    3912:	4690      	mov	r8, r2
    3914:	682b      	ldr	r3, [r5, #0]
    3916:	4419      	add	r1, r3
    3918:	4b22      	ldr	r3, [pc, #136]	; (39a4 <_usb_d_dev_in_next+0x158>)
    391a:	eb03 1344 	add.w	r3, r3, r4, lsl #5
    391e:	6119      	str	r1, [r3, #16]
    3920:	e7d4      	b.n	38cc <_usb_d_dev_in_next+0x80>
    3922:	f44f 5800 	mov.w	r8, #8192	; 0x2000
    3926:	e7f5      	b.n	3914 <_usb_d_dev_in_next+0xc8>
    3928:	7cea      	ldrb	r2, [r5, #19]
    392a:	f012 0f10 	tst.w	r2, #16
    392e:	d00f      	beq.n	3950 <_usb_d_dev_in_next+0x104>
    3930:	7ceb      	ldrb	r3, [r5, #19]
    3932:	f36f 1304 	bfc	r3, #4, #1
    3936:	74eb      	strb	r3, [r5, #19]
    3938:	4b1a      	ldr	r3, [pc, #104]	; (39a4 <_usb_d_dev_in_next+0x158>)
    393a:	eb03 1344 	add.w	r3, r3, r4, lsl #5
    393e:	695a      	ldr	r2, [r3, #20]
    3940:	f36f 020d 	bfc	r2, #0, #14
    3944:	615a      	str	r2, [r3, #20]
    3946:	695a      	ldr	r2, [r3, #20]
    3948:	f36f 329b 	bfc	r2, #14, #14
    394c:	615a      	str	r2, [r3, #20]
    394e:	e7c8      	b.n	38e2 <_usb_d_dev_in_next+0x96>
    3950:	2f01      	cmp	r7, #1
    3952:	d00e      	beq.n	3972 <_usb_d_dev_in_next+0x126>
    3954:	0164      	lsls	r4, r4, #5
    3956:	f104 4482 	add.w	r4, r4, #1090519040	; 0x41000000
    395a:	224a      	movs	r2, #74	; 0x4a
    395c:	f884 2108 	strb.w	r2, [r4, #264]	; 0x108
    3960:	8a2a      	ldrh	r2, [r5, #16]
    3962:	4293      	cmp	r3, r2
    3964:	d00c      	beq.n	3980 <_usb_d_dev_in_next+0x134>
    3966:	2100      	movs	r1, #0
    3968:	4628      	mov	r0, r5
    396a:	4b10      	ldr	r3, [pc, #64]	; (39ac <_usb_d_dev_in_next+0x160>)
    396c:	4798      	blx	r3
    396e:	e8bd 81f0 	ldmia.w	sp!, {r4, r5, r6, r7, r8, pc}
    3972:	0164      	lsls	r4, r4, #5
    3974:	f104 4482 	add.w	r4, r4, #1090519040	; 0x41000000
    3978:	224b      	movs	r2, #75	; 0x4b
    397a:	f884 2108 	strb.w	r2, [r4, #264]	; 0x108
    397e:	e7ef      	b.n	3960 <_usb_d_dev_in_next+0x114>
    3980:	7ceb      	ldrb	r3, [r5, #19]
    3982:	f36f 1386 	bfc	r3, #6, #1
    3986:	74eb      	strb	r3, [r5, #19]
    3988:	4b06      	ldr	r3, [pc, #24]	; (39a4 <_usb_d_dev_in_next+0x158>)
    398a:	6edb      	ldr	r3, [r3, #108]	; 0x6c
    398c:	68a9      	ldr	r1, [r5, #8]
    398e:	7ca8      	ldrb	r0, [r5, #18]
    3990:	4798      	blx	r3
    3992:	2800      	cmp	r0, #0
    3994:	d1b4      	bne.n	3900 <_usb_d_dev_in_next+0xb4>
    3996:	7ceb      	ldrb	r3, [r5, #19]
    3998:	f043 0340 	orr.w	r3, r3, #64	; 0x40
    399c:	74eb      	strb	r3, [r5, #19]
    399e:	e7e2      	b.n	3966 <_usb_d_dev_in_next+0x11a>
    39a0:	224e      	movs	r2, #78	; 0x4e
    39a2:	e7a2      	b.n	38ea <_usb_d_dev_in_next+0x9e>
    39a4:	200001f8 	.word	0x200001f8
    39a8:	000061f1 	.word	0x000061f1
    39ac:	0000363d 	.word	0x0000363d

000039b0 <_usb_d_dev_out_next>:
    39b0:	e92d 4ff8 	stmdb	sp!, {r3, r4, r5, r6, r7, r8, r9, sl, fp, lr}
    39b4:	4604      	mov	r4, r0
    39b6:	7c85      	ldrb	r5, [r0, #18]
    39b8:	f005 050f 	and.w	r5, r5, #15
    39bc:	460f      	mov	r7, r1
    39be:	2900      	cmp	r1, #0
    39c0:	d050      	beq.n	3a64 <_usb_d_dev_out_next+0xb4>
    39c2:	4b68      	ldr	r3, [pc, #416]	; (3b64 <_usb_d_dev_out_next+0x1b4>)
    39c4:	eb03 1345 	add.w	r3, r3, r5, lsl #5
    39c8:	685b      	ldr	r3, [r3, #4]
    39ca:	f3c3 3a8d 	ubfx	sl, r3, #14, #14
    39ce:	2f00      	cmp	r7, #0
    39d0:	d04b      	beq.n	3a6a <_usb_d_dev_out_next+0xba>
    39d2:	4b64      	ldr	r3, [pc, #400]	; (3b64 <_usb_d_dev_out_next+0x1b4>)
    39d4:	eb03 1345 	add.w	r3, r3, r5, lsl #5
    39d8:	685b      	ldr	r3, [r3, #4]
    39da:	f3c3 090d 	ubfx	r9, r3, #0, #14
    39de:	8a26      	ldrh	r6, [r4, #16]
    39e0:	f240 33ff 	movw	r3, #1023	; 0x3ff
    39e4:	429e      	cmp	r6, r3
    39e6:	d001      	beq.n	39ec <_usb_d_dev_out_next+0x3c>
    39e8:	3e01      	subs	r6, #1
    39ea:	b2b6      	uxth	r6, r6
    39ec:	ea09 0b06 	and.w	fp, r9, r6
    39f0:	f894 8013 	ldrb.w	r8, [r4, #19]
    39f4:	f008 0807 	and.w	r8, r8, #7
    39f8:	b137      	cbz	r7, 3a08 <_usb_d_dev_out_next+0x58>
    39fa:	f105 0308 	add.w	r3, r5, #8
    39fe:	015b      	lsls	r3, r3, #5
    3a00:	f103 4382 	add.w	r3, r3, #1090519040	; 0x41000000
    3a04:	2201      	movs	r2, #1
    3a06:	71da      	strb	r2, [r3, #7]
    3a08:	7ce3      	ldrb	r3, [r4, #19]
    3a0a:	f013 0f20 	tst.w	r3, #32
    3a0e:	d00e      	beq.n	3a2e <_usb_d_dev_out_next+0x7e>
    3a10:	6862      	ldr	r2, [r4, #4]
    3a12:	b162      	cbz	r2, 3a2e <_usb_d_dev_out_next+0x7e>
    3a14:	b292      	uxth	r2, r2
    3a16:	68a0      	ldr	r0, [r4, #8]
    3a18:	b283      	uxth	r3, r0
    3a1a:	1ad2      	subs	r2, r2, r3
    3a1c:	b292      	uxth	r2, r2
    3a1e:	6823      	ldr	r3, [r4, #0]
    3a20:	4418      	add	r0, r3
    3a22:	68e1      	ldr	r1, [r4, #12]
    3a24:	4593      	cmp	fp, r2
    3a26:	d200      	bcs.n	3a2a <_usb_d_dev_out_next+0x7a>
    3a28:	465a      	mov	r2, fp
    3a2a:	4b4f      	ldr	r3, [pc, #316]	; (3b68 <_usb_d_dev_out_next+0x1b8>)
    3a2c:	4798      	blx	r3
    3a2e:	6863      	ldr	r3, [r4, #4]
    3a30:	b9f3      	cbnz	r3, 3a70 <_usb_d_dev_out_next+0xc0>
    3a32:	7ce2      	ldrb	r2, [r4, #19]
    3a34:	f012 0f10 	tst.w	r2, #16
    3a38:	d01a      	beq.n	3a70 <_usb_d_dev_out_next+0xc0>
    3a3a:	7ce3      	ldrb	r3, [r4, #19]
    3a3c:	f003 03ef 	and.w	r3, r3, #239	; 0xef
    3a40:	f043 0320 	orr.w	r3, r3, #32
    3a44:	74e3      	strb	r3, [r4, #19]
    3a46:	68e0      	ldr	r0, [r4, #12]
    3a48:	4946      	ldr	r1, [pc, #280]	; (3b64 <_usb_d_dev_out_next+0x1b4>)
    3a4a:	016a      	lsls	r2, r5, #5
    3a4c:	188b      	adds	r3, r1, r2
    3a4e:	5088      	str	r0, [r1, r2]
    3a50:	8a21      	ldrh	r1, [r4, #16]
    3a52:	685a      	ldr	r2, [r3, #4]
    3a54:	f361 329b 	bfi	r2, r1, #14, #14
    3a58:	605a      	str	r2, [r3, #4]
    3a5a:	685a      	ldr	r2, [r3, #4]
    3a5c:	f36f 020d 	bfc	r2, #0, #14
    3a60:	605a      	str	r2, [r3, #4]
    3a62:	e044      	b.n	3aee <_usb_d_dev_out_next+0x13e>
    3a64:	f04f 0a00 	mov.w	sl, #0
    3a68:	e7b1      	b.n	39ce <_usb_d_dev_out_next+0x1e>
    3a6a:	f04f 0900 	mov.w	r9, #0
    3a6e:	e7b6      	b.n	39de <_usb_d_dev_out_next+0x2e>
    3a70:	b1ef      	cbz	r7, 3aae <_usb_d_dev_out_next+0xfe>
    3a72:	8a22      	ldrh	r2, [r4, #16]
    3a74:	4593      	cmp	fp, r2
    3a76:	d21a      	bcs.n	3aae <_usb_d_dev_out_next+0xfe>
    3a78:	7ce3      	ldrb	r3, [r4, #19]
    3a7a:	f36f 1304 	bfc	r3, #4, #1
    3a7e:	74e3      	strb	r3, [r4, #19]
    3a80:	68a3      	ldr	r3, [r4, #8]
    3a82:	444b      	add	r3, r9
    3a84:	60a3      	str	r3, [r4, #8]
    3a86:	f1b8 0f01 	cmp.w	r8, #1
    3a8a:	d05d      	beq.n	3b48 <_usb_d_dev_out_next+0x198>
    3a8c:	016b      	lsls	r3, r5, #5
    3a8e:	f103 4382 	add.w	r3, r3, #1090519040	; 0x41000000
    3a92:	2225      	movs	r2, #37	; 0x25
    3a94:	f883 2108 	strb.w	r2, [r3, #264]	; 0x108
    3a98:	b91d      	cbnz	r5, 3aa2 <_usb_d_dev_out_next+0xf2>
    3a9a:	68e2      	ldr	r2, [r4, #12]
    3a9c:	016d      	lsls	r5, r5, #5
    3a9e:	4b31      	ldr	r3, [pc, #196]	; (3b64 <_usb_d_dev_out_next+0x1b4>)
    3aa0:	515a      	str	r2, [r3, r5]
    3aa2:	2100      	movs	r1, #0
    3aa4:	4620      	mov	r0, r4
    3aa6:	4b31      	ldr	r3, [pc, #196]	; (3b6c <_usb_d_dev_out_next+0x1bc>)
    3aa8:	4798      	blx	r3
    3aaa:	e8bd 8ff8 	ldmia.w	sp!, {r3, r4, r5, r6, r7, r8, r9, sl, fp, pc}
    3aae:	68a2      	ldr	r2, [r4, #8]
    3ab0:	4452      	add	r2, sl
    3ab2:	60a2      	str	r2, [r4, #8]
    3ab4:	4293      	cmp	r3, r2
    3ab6:	d9e6      	bls.n	3a86 <_usb_d_dev_out_next+0xd6>
    3ab8:	b29b      	uxth	r3, r3
    3aba:	b291      	uxth	r1, r2
    3abc:	1a5b      	subs	r3, r3, r1
    3abe:	b29b      	uxth	r3, r3
    3ac0:	7ce1      	ldrb	r1, [r4, #19]
    3ac2:	f011 0f20 	tst.w	r1, #32
    3ac6:	d024      	beq.n	3b12 <_usb_d_dev_out_next+0x162>
    3ac8:	8a26      	ldrh	r6, [r4, #16]
    3aca:	42b3      	cmp	r3, r6
    3acc:	d800      	bhi.n	3ad0 <_usb_d_dev_out_next+0x120>
    3ace:	461e      	mov	r6, r3
    3ad0:	68e1      	ldr	r1, [r4, #12]
    3ad2:	016b      	lsls	r3, r5, #5
    3ad4:	4a23      	ldr	r2, [pc, #140]	; (3b64 <_usb_d_dev_out_next+0x1b4>)
    3ad6:	50d1      	str	r1, [r2, r3]
    3ad8:	4b22      	ldr	r3, [pc, #136]	; (3b64 <_usb_d_dev_out_next+0x1b4>)
    3ada:	eb03 1345 	add.w	r3, r3, r5, lsl #5
    3ade:	685a      	ldr	r2, [r3, #4]
    3ae0:	f366 329b 	bfi	r2, r6, #14, #14
    3ae4:	605a      	str	r2, [r3, #4]
    3ae6:	685a      	ldr	r2, [r3, #4]
    3ae8:	f36f 020d 	bfc	r2, #0, #14
    3aec:	605a      	str	r2, [r3, #4]
    3aee:	b947      	cbnz	r7, 3b02 <_usb_d_dev_out_next+0x152>
    3af0:	f1b8 0f01 	cmp.w	r8, #1
    3af4:	d02f      	beq.n	3b56 <_usb_d_dev_out_next+0x1a6>
    3af6:	2225      	movs	r2, #37	; 0x25
    3af8:	016b      	lsls	r3, r5, #5
    3afa:	f103 4382 	add.w	r3, r3, #1090519040	; 0x41000000
    3afe:	f883 2109 	strb.w	r2, [r3, #265]	; 0x109
    3b02:	3508      	adds	r5, #8
    3b04:	016d      	lsls	r5, r5, #5
    3b06:	f105 4582 	add.w	r5, r5, #1090519040	; 0x41000000
    3b0a:	2340      	movs	r3, #64	; 0x40
    3b0c:	712b      	strb	r3, [r5, #4]
    3b0e:	e8bd 8ff8 	ldmia.w	sp!, {r3, r4, r5, r6, r7, r8, r9, sl, fp, pc}
    3b12:	8a21      	ldrh	r1, [r4, #16]
    3b14:	428b      	cmp	r3, r1
    3b16:	d90a      	bls.n	3b2e <_usb_d_dev_out_next+0x17e>
    3b18:	f5b3 5f00 	cmp.w	r3, #8192	; 0x2000
    3b1c:	d80f      	bhi.n	3b3e <_usb_d_dev_out_next+0x18e>
    3b1e:	ea23 0606 	bic.w	r6, r3, r6
    3b22:	6823      	ldr	r3, [r4, #0]
    3b24:	441a      	add	r2, r3
    3b26:	016b      	lsls	r3, r5, #5
    3b28:	490e      	ldr	r1, [pc, #56]	; (3b64 <_usb_d_dev_out_next+0x1b4>)
    3b2a:	50ca      	str	r2, [r1, r3]
    3b2c:	e7d4      	b.n	3ad8 <_usb_d_dev_out_next+0x128>
    3b2e:	428b      	cmp	r3, r1
    3b30:	d208      	bcs.n	3b44 <_usb_d_dev_out_next+0x194>
    3b32:	7ce1      	ldrb	r1, [r4, #19]
    3b34:	f041 0120 	orr.w	r1, r1, #32
    3b38:	74e1      	strb	r1, [r4, #19]
    3b3a:	461e      	mov	r6, r3
    3b3c:	e7f1      	b.n	3b22 <_usb_d_dev_out_next+0x172>
    3b3e:	f44f 5600 	mov.w	r6, #8192	; 0x2000
    3b42:	e7ee      	b.n	3b22 <_usb_d_dev_out_next+0x172>
    3b44:	461e      	mov	r6, r3
    3b46:	e7ec      	b.n	3b22 <_usb_d_dev_out_next+0x172>
    3b48:	016b      	lsls	r3, r5, #5
    3b4a:	f103 4382 	add.w	r3, r3, #1090519040	; 0x41000000
    3b4e:	222d      	movs	r2, #45	; 0x2d
    3b50:	f883 2108 	strb.w	r2, [r3, #264]	; 0x108
    3b54:	e7a0      	b.n	3a98 <_usb_d_dev_out_next+0xe8>
    3b56:	4b03      	ldr	r3, [pc, #12]	; (3b64 <_usb_d_dev_out_next+0x1b4>)
    3b58:	eb03 1345 	add.w	r3, r3, r5, lsl #5
    3b5c:	2200      	movs	r2, #0
    3b5e:	769a      	strb	r2, [r3, #26]
    3b60:	222d      	movs	r2, #45	; 0x2d
    3b62:	e7c9      	b.n	3af8 <_usb_d_dev_out_next+0x148>
    3b64:	200001f8 	.word	0x200001f8
    3b68:	000061f1 	.word	0x000061f1
    3b6c:	0000363d 	.word	0x0000363d

00003b70 <_usb_d_dev_handler>:
    3b70:	b570      	push	{r4, r5, r6, lr}
    3b72:	f04f 4382 	mov.w	r3, #1090519040	; 0x41000000
    3b76:	8c1d      	ldrh	r5, [r3, #32]
    3b78:	b2ad      	uxth	r5, r5
    3b7a:	b10d      	cbz	r5, 3b80 <_usb_d_dev_handler+0x10>
    3b7c:	2400      	movs	r4, #0
    3b7e:	e0da      	b.n	3d36 <_usb_d_dev_handler+0x1c6>
    3b80:	8b99      	ldrh	r1, [r3, #28]
    3b82:	8b1b      	ldrh	r3, [r3, #24]
    3b84:	b29b      	uxth	r3, r3
    3b86:	400b      	ands	r3, r1
    3b88:	f013 0f04 	tst.w	r3, #4
    3b8c:	d110      	bne.n	3bb0 <_usb_d_dev_handler+0x40>
    3b8e:	f413 7f00 	tst.w	r3, #512	; 0x200
    3b92:	d118      	bne.n	3bc6 <_usb_d_dev_handler+0x56>
    3b94:	f013 0f80 	tst.w	r3, #128	; 0x80
    3b98:	d13c      	bne.n	3c14 <_usb_d_dev_handler+0xa4>
    3b9a:	f013 0f70 	tst.w	r3, #112	; 0x70
    3b9e:	d144      	bne.n	3c2a <_usb_d_dev_handler+0xba>
    3ba0:	f013 0f08 	tst.w	r3, #8
    3ba4:	d163      	bne.n	3c6e <_usb_d_dev_handler+0xfe>
    3ba6:	f013 0f01 	tst.w	r3, #1
    3baa:	d175      	bne.n	3c98 <_usb_d_dev_handler+0x128>
    3bac:	2300      	movs	r3, #0
    3bae:	e007      	b.n	3bc0 <_usb_d_dev_handler+0x50>
    3bb0:	2204      	movs	r2, #4
    3bb2:	f04f 4382 	mov.w	r3, #1090519040	; 0x41000000
    3bb6:	839a      	strh	r2, [r3, #28]
    3bb8:	4b87      	ldr	r3, [pc, #540]	; (3dd8 <_usb_d_dev_handler+0x268>)
    3bba:	6e1b      	ldr	r3, [r3, #96]	; 0x60
    3bbc:	4798      	blx	r3
    3bbe:	2301      	movs	r3, #1
    3bc0:	2b00      	cmp	r3, #0
    3bc2:	d0db      	beq.n	3b7c <_usb_d_dev_handler+0xc>
    3bc4:	bd70      	pop	{r4, r5, r6, pc}
    3bc6:	f04f 4382 	mov.w	r3, #1090519040	; 0x41000000
    3bca:	f240 2201 	movw	r2, #513	; 0x201
    3bce:	839a      	strh	r2, [r3, #28]
    3bd0:	829a      	strh	r2, [r3, #20]
    3bd2:	2270      	movs	r2, #112	; 0x70
    3bd4:	831a      	strh	r2, [r3, #24]
    3bd6:	2300      	movs	r3, #0
    3bd8:	2b01      	cmp	r3, #1
    3bda:	d814      	bhi.n	3c06 <_usb_d_dev_handler+0x96>
    3bdc:	4619      	mov	r1, r3
    3bde:	4a7e      	ldr	r2, [pc, #504]	; (3dd8 <_usb_d_dev_handler+0x268>)
    3be0:	eb02 1243 	add.w	r2, r2, r3, lsl #5
    3be4:	8912      	ldrh	r2, [r2, #8]
    3be6:	f002 020f 	and.w	r2, r2, #15
    3bea:	2a03      	cmp	r2, #3
    3bec:	d002      	beq.n	3bf4 <_usb_d_dev_handler+0x84>
    3bee:	3301      	adds	r3, #1
    3bf0:	b2db      	uxtb	r3, r3
    3bf2:	e7f1      	b.n	3bd8 <_usb_d_dev_handler+0x68>
    3bf4:	4b78      	ldr	r3, [pc, #480]	; (3dd8 <_usb_d_dev_handler+0x268>)
    3bf6:	eb03 1341 	add.w	r3, r3, r1, lsl #5
    3bfa:	8919      	ldrh	r1, [r3, #8]
    3bfc:	f3c1 110a 	ubfx	r1, r1, #4, #11
    3c00:	2200      	movs	r2, #0
    3c02:	811a      	strh	r2, [r3, #8]
    3c04:	e000      	b.n	3c08 <_usb_d_dev_handler+0x98>
    3c06:	2100      	movs	r1, #0
    3c08:	4b73      	ldr	r3, [pc, #460]	; (3dd8 <_usb_d_dev_handler+0x268>)
    3c0a:	6e5b      	ldr	r3, [r3, #100]	; 0x64
    3c0c:	2003      	movs	r0, #3
    3c0e:	4798      	blx	r3
    3c10:	2301      	movs	r3, #1
    3c12:	e7d5      	b.n	3bc0 <_usb_d_dev_handler+0x50>
    3c14:	2280      	movs	r2, #128	; 0x80
    3c16:	f04f 4382 	mov.w	r3, #1090519040	; 0x41000000
    3c1a:	839a      	strh	r2, [r3, #28]
    3c1c:	4b6e      	ldr	r3, [pc, #440]	; (3dd8 <_usb_d_dev_handler+0x268>)
    3c1e:	6e5b      	ldr	r3, [r3, #100]	; 0x64
    3c20:	2100      	movs	r1, #0
    3c22:	2005      	movs	r0, #5
    3c24:	4798      	blx	r3
    3c26:	2301      	movs	r3, #1
    3c28:	e7ca      	b.n	3bc0 <_usb_d_dev_handler+0x50>
    3c2a:	f04f 4382 	mov.w	r3, #1090519040	; 0x41000000
    3c2e:	2270      	movs	r2, #112	; 0x70
    3c30:	839a      	strh	r2, [r3, #28]
    3c32:	829a      	strh	r2, [r3, #20]
    3c34:	f240 2201 	movw	r2, #513	; 0x201
    3c38:	831a      	strh	r2, [r3, #24]
    3c3a:	4b68      	ldr	r3, [pc, #416]	; (3ddc <_usb_d_dev_handler+0x26c>)
    3c3c:	f893 3020 	ldrb.w	r3, [r3, #32]
    3c40:	f013 0f01 	tst.w	r3, #1
    3c44:	d00d      	beq.n	3c62 <_usb_d_dev_handler+0xf2>
    3c46:	4b65      	ldr	r3, [pc, #404]	; (3ddc <_usb_d_dev_handler+0x26c>)
    3c48:	691b      	ldr	r3, [r3, #16]
    3c4a:	f403 6310 	and.w	r3, r3, #2304	; 0x900
    3c4e:	f5b3 6f10 	cmp.w	r3, #2304	; 0x900
    3c52:	d1f8      	bne.n	3c46 <_usb_d_dev_handler+0xd6>
    3c54:	4b60      	ldr	r3, [pc, #384]	; (3dd8 <_usb_d_dev_handler+0x268>)
    3c56:	6e5b      	ldr	r3, [r3, #100]	; 0x64
    3c58:	2100      	movs	r1, #0
    3c5a:	2002      	movs	r0, #2
    3c5c:	4798      	blx	r3
    3c5e:	2301      	movs	r3, #1
    3c60:	e7ae      	b.n	3bc0 <_usb_d_dev_handler+0x50>
    3c62:	4b5e      	ldr	r3, [pc, #376]	; (3ddc <_usb_d_dev_handler+0x26c>)
    3c64:	691b      	ldr	r3, [r3, #16]
    3c66:	f413 7f80 	tst.w	r3, #256	; 0x100
    3c6a:	d0fa      	beq.n	3c62 <_usb_d_dev_handler+0xf2>
    3c6c:	e7f2      	b.n	3c54 <_usb_d_dev_handler+0xe4>
    3c6e:	f04f 4382 	mov.w	r3, #1090519040	; 0x41000000
    3c72:	2400      	movs	r4, #0
    3c74:	f883 4100 	strb.w	r4, [r3, #256]	; 0x100
    3c78:	2208      	movs	r2, #8
    3c7a:	839a      	strh	r2, [r3, #28]
    3c7c:	2270      	movs	r2, #112	; 0x70
    3c7e:	829a      	strh	r2, [r3, #20]
    3c80:	f240 2201 	movw	r2, #513	; 0x201
    3c84:	831a      	strh	r2, [r3, #24]
    3c86:	4b56      	ldr	r3, [pc, #344]	; (3de0 <_usb_d_dev_handler+0x270>)
    3c88:	4798      	blx	r3
    3c8a:	4b53      	ldr	r3, [pc, #332]	; (3dd8 <_usb_d_dev_handler+0x268>)
    3c8c:	6e5b      	ldr	r3, [r3, #100]	; 0x64
    3c8e:	4621      	mov	r1, r4
    3c90:	2001      	movs	r0, #1
    3c92:	4798      	blx	r3
    3c94:	2301      	movs	r3, #1
    3c96:	e793      	b.n	3bc0 <_usb_d_dev_handler+0x50>
    3c98:	f04f 4382 	mov.w	r3, #1090519040	; 0x41000000
    3c9c:	f240 2201 	movw	r2, #513	; 0x201
    3ca0:	839a      	strh	r2, [r3, #28]
    3ca2:	829a      	strh	r2, [r3, #20]
    3ca4:	2270      	movs	r2, #112	; 0x70
    3ca6:	831a      	strh	r2, [r3, #24]
    3ca8:	4b4b      	ldr	r3, [pc, #300]	; (3dd8 <_usb_d_dev_handler+0x268>)
    3caa:	6e5b      	ldr	r3, [r3, #100]	; 0x64
    3cac:	2100      	movs	r1, #0
    3cae:	2004      	movs	r0, #4
    3cb0:	4798      	blx	r3
    3cb2:	2301      	movs	r3, #1
    3cb4:	e784      	b.n	3bc0 <_usb_d_dev_handler+0x50>
    3cb6:	f013 0f10 	tst.w	r3, #16
    3cba:	d109      	bne.n	3cd0 <_usb_d_dev_handler+0x160>
    3cbc:	f013 0f40 	tst.w	r3, #64	; 0x40
    3cc0:	d109      	bne.n	3cd6 <_usb_d_dev_handler+0x166>
    3cc2:	f013 0f20 	tst.w	r3, #32
    3cc6:	d034      	beq.n	3d32 <_usb_d_dev_handler+0x1c2>
    3cc8:	2100      	movs	r1, #0
    3cca:	4b46      	ldr	r3, [pc, #280]	; (3de4 <_usb_d_dev_handler+0x274>)
    3ccc:	4798      	blx	r3
    3cce:	e030      	b.n	3d32 <_usb_d_dev_handler+0x1c2>
    3cd0:	4b45      	ldr	r3, [pc, #276]	; (3de8 <_usb_d_dev_handler+0x278>)
    3cd2:	4798      	blx	r3
    3cd4:	e02d      	b.n	3d32 <_usb_d_dev_handler+0x1c2>
    3cd6:	2101      	movs	r1, #1
    3cd8:	4b42      	ldr	r3, [pc, #264]	; (3de4 <_usb_d_dev_handler+0x274>)
    3cda:	4798      	blx	r3
    3cdc:	e029      	b.n	3d32 <_usb_d_dev_handler+0x1c2>
    3cde:	f013 0f40 	tst.w	r3, #64	; 0x40
    3ce2:	d113      	bne.n	3d0c <_usb_d_dev_handler+0x19c>
    3ce4:	f013 0f08 	tst.w	r3, #8
    3ce8:	d114      	bne.n	3d14 <_usb_d_dev_handler+0x1a4>
    3cea:	f013 0f02 	tst.w	r3, #2
    3cee:	d115      	bne.n	3d1c <_usb_d_dev_handler+0x1ac>
    3cf0:	7cc2      	ldrb	r2, [r0, #19]
    3cf2:	f002 0207 	and.w	r2, r2, #7
    3cf6:	2a01      	cmp	r2, #1
    3cf8:	d11b      	bne.n	3d32 <_usb_d_dev_handler+0x1c2>
    3cfa:	f013 0f04 	tst.w	r3, #4
    3cfe:	d111      	bne.n	3d24 <_usb_d_dev_handler+0x1b4>
    3d00:	f013 0f10 	tst.w	r3, #16
    3d04:	d015      	beq.n	3d32 <_usb_d_dev_handler+0x1c2>
    3d06:	4b38      	ldr	r3, [pc, #224]	; (3de8 <_usb_d_dev_handler+0x278>)
    3d08:	4798      	blx	r3
    3d0a:	e012      	b.n	3d32 <_usb_d_dev_handler+0x1c2>
    3d0c:	2101      	movs	r1, #1
    3d0e:	4b35      	ldr	r3, [pc, #212]	; (3de4 <_usb_d_dev_handler+0x274>)
    3d10:	4798      	blx	r3
    3d12:	e00e      	b.n	3d32 <_usb_d_dev_handler+0x1c2>
    3d14:	2101      	movs	r1, #1
    3d16:	4b35      	ldr	r3, [pc, #212]	; (3dec <_usb_d_dev_handler+0x27c>)
    3d18:	4798      	blx	r3
    3d1a:	e00a      	b.n	3d32 <_usb_d_dev_handler+0x1c2>
    3d1c:	2101      	movs	r1, #1
    3d1e:	4b34      	ldr	r3, [pc, #208]	; (3df0 <_usb_d_dev_handler+0x280>)
    3d20:	4798      	blx	r3
    3d22:	e006      	b.n	3d32 <_usb_d_dev_handler+0x1c2>
    3d24:	2100      	movs	r1, #0
    3d26:	4b31      	ldr	r3, [pc, #196]	; (3dec <_usb_d_dev_handler+0x27c>)
    3d28:	4798      	blx	r3
    3d2a:	e002      	b.n	3d32 <_usb_d_dev_handler+0x1c2>
    3d2c:	2100      	movs	r1, #0
    3d2e:	4b2d      	ldr	r3, [pc, #180]	; (3de4 <_usb_d_dev_handler+0x274>)
    3d30:	4798      	blx	r3
    3d32:	3401      	adds	r4, #1
    3d34:	b2e4      	uxtb	r4, r4
    3d36:	2c08      	cmp	r4, #8
    3d38:	f63f af44 	bhi.w	3bc4 <_usb_d_dev_handler+0x54>
    3d3c:	4a26      	ldr	r2, [pc, #152]	; (3dd8 <_usb_d_dev_handler+0x268>)
    3d3e:	f102 0060 	add.w	r0, r2, #96	; 0x60
    3d42:	00a3      	lsls	r3, r4, #2
    3d44:	191e      	adds	r6, r3, r4
    3d46:	00b1      	lsls	r1, r6, #2
    3d48:	460e      	mov	r6, r1
    3d4a:	3110      	adds	r1, #16
    3d4c:	4401      	add	r1, r0
    3d4e:	1d08      	adds	r0, r1, #4
    3d50:	4432      	add	r2, r6
    3d52:	f892 3086 	ldrb.w	r3, [r2, #134]	; 0x86
    3d56:	2bff      	cmp	r3, #255	; 0xff
    3d58:	d0eb      	beq.n	3d32 <_usb_d_dev_handler+0x1c2>
    3d5a:	7c83      	ldrb	r3, [r0, #18]
    3d5c:	f003 030f 	and.w	r3, r3, #15
    3d60:	2201      	movs	r2, #1
    3d62:	409a      	lsls	r2, r3
    3d64:	4215      	tst	r5, r2
    3d66:	d0e4      	beq.n	3d32 <_usb_d_dev_handler+0x1c2>
    3d68:	f103 0208 	add.w	r2, r3, #8
    3d6c:	0152      	lsls	r2, r2, #5
    3d6e:	f102 4282 	add.w	r2, r2, #1090519040	; 0x41000000
    3d72:	79d2      	ldrb	r2, [r2, #7]
    3d74:	015b      	lsls	r3, r3, #5
    3d76:	f103 4382 	add.w	r3, r3, #1090519040	; 0x41000000
    3d7a:	f893 3109 	ldrb.w	r3, [r3, #265]	; 0x109
    3d7e:	4013      	ands	r3, r2
    3d80:	d0d7      	beq.n	3d32 <_usb_d_dev_handler+0x1c2>
    3d82:	7cc2      	ldrb	r2, [r0, #19]
    3d84:	f002 0147 	and.w	r1, r2, #71	; 0x47
    3d88:	2901      	cmp	r1, #1
    3d8a:	d094      	beq.n	3cb6 <_usb_d_dev_handler+0x146>
    3d8c:	f012 0f80 	tst.w	r2, #128	; 0x80
    3d90:	d1a5      	bne.n	3cde <_usb_d_dev_handler+0x16e>
    3d92:	f013 0f20 	tst.w	r3, #32
    3d96:	d1c9      	bne.n	3d2c <_usb_d_dev_handler+0x1bc>
    3d98:	f013 0f04 	tst.w	r3, #4
    3d9c:	d110      	bne.n	3dc0 <_usb_d_dev_handler+0x250>
    3d9e:	f013 0f01 	tst.w	r3, #1
    3da2:	d111      	bne.n	3dc8 <_usb_d_dev_handler+0x258>
    3da4:	7cc2      	ldrb	r2, [r0, #19]
    3da6:	f002 0207 	and.w	r2, r2, #7
    3daa:	2a01      	cmp	r2, #1
    3dac:	d1c1      	bne.n	3d32 <_usb_d_dev_handler+0x1c2>
    3dae:	f013 0f08 	tst.w	r3, #8
    3db2:	d10d      	bne.n	3dd0 <_usb_d_dev_handler+0x260>
    3db4:	f013 0f10 	tst.w	r3, #16
    3db8:	d0bb      	beq.n	3d32 <_usb_d_dev_handler+0x1c2>
    3dba:	4b0b      	ldr	r3, [pc, #44]	; (3de8 <_usb_d_dev_handler+0x278>)
    3dbc:	4798      	blx	r3
    3dbe:	e7b8      	b.n	3d32 <_usb_d_dev_handler+0x1c2>
    3dc0:	2100      	movs	r1, #0
    3dc2:	4b0a      	ldr	r3, [pc, #40]	; (3dec <_usb_d_dev_handler+0x27c>)
    3dc4:	4798      	blx	r3
    3dc6:	e7b4      	b.n	3d32 <_usb_d_dev_handler+0x1c2>
    3dc8:	2101      	movs	r1, #1
    3dca:	4b0a      	ldr	r3, [pc, #40]	; (3df4 <_usb_d_dev_handler+0x284>)
    3dcc:	4798      	blx	r3
    3dce:	e7b0      	b.n	3d32 <_usb_d_dev_handler+0x1c2>
    3dd0:	2101      	movs	r1, #1
    3dd2:	4b06      	ldr	r3, [pc, #24]	; (3dec <_usb_d_dev_handler+0x27c>)
    3dd4:	4798      	blx	r3
    3dd6:	e7ac      	b.n	3d32 <_usb_d_dev_handler+0x1c2>
    3dd8:	200001f8 	.word	0x200001f8
    3ddc:	40001000 	.word	0x40001000
    3de0:	000037f5 	.word	0x000037f5
    3de4:	00003611 	.word	0x00003611
    3de8:	00003591 	.word	0x00003591
    3dec:	000036dd 	.word	0x000036dd
    3df0:	0000384d 	.word	0x0000384d
    3df4:	000039b1 	.word	0x000039b1

00003df8 <_usb_d_dev_init>:
    3df8:	b500      	push	{lr}
    3dfa:	b083      	sub	sp, #12
    3dfc:	2300      	movs	r3, #0
    3dfe:	f88d 3005 	strb.w	r3, [sp, #5]
    3e02:	f04f 4382 	mov.w	r3, #1090519040	; 0x41000000
    3e06:	789b      	ldrb	r3, [r3, #2]
    3e08:	f013 0f01 	tst.w	r3, #1
    3e0c:	d127      	bne.n	3e5e <_usb_d_dev_init+0x66>
    3e0e:	f04f 4382 	mov.w	r3, #1090519040	; 0x41000000
    3e12:	789b      	ldrb	r3, [r3, #2]
    3e14:	f013 0f03 	tst.w	r3, #3
    3e18:	d1f9      	bne.n	3e0e <_usb_d_dev_init+0x16>
    3e1a:	f04f 4382 	mov.w	r3, #1090519040	; 0x41000000
    3e1e:	781b      	ldrb	r3, [r3, #0]
    3e20:	f013 0f02 	tst.w	r3, #2
    3e24:	d011      	beq.n	3e4a <_usb_d_dev_init+0x52>
    3e26:	f04f 4282 	mov.w	r2, #1090519040	; 0x41000000
    3e2a:	7813      	ldrb	r3, [r2, #0]
    3e2c:	f003 03fd 	and.w	r3, r3, #253	; 0xfd
    3e30:	7013      	strb	r3, [r2, #0]
    3e32:	f04f 4382 	mov.w	r3, #1090519040	; 0x41000000
    3e36:	789b      	ldrb	r3, [r3, #2]
    3e38:	f013 0f03 	tst.w	r3, #3
    3e3c:	d1f9      	bne.n	3e32 <_usb_d_dev_init+0x3a>
    3e3e:	f04f 4382 	mov.w	r3, #1090519040	; 0x41000000
    3e42:	789b      	ldrb	r3, [r3, #2]
    3e44:	f013 0f02 	tst.w	r3, #2
    3e48:	d1f9      	bne.n	3e3e <_usb_d_dev_init+0x46>
    3e4a:	2201      	movs	r2, #1
    3e4c:	f04f 4382 	mov.w	r3, #1090519040	; 0x41000000
    3e50:	701a      	strb	r2, [r3, #0]
    3e52:	f04f 4382 	mov.w	r3, #1090519040	; 0x41000000
    3e56:	789b      	ldrb	r3, [r3, #2]
    3e58:	f013 0f03 	tst.w	r3, #3
    3e5c:	d1f9      	bne.n	3e52 <_usb_d_dev_init+0x5a>
    3e5e:	f04f 4382 	mov.w	r3, #1090519040	; 0x41000000
    3e62:	789b      	ldrb	r3, [r3, #2]
    3e64:	f013 0f01 	tst.w	r3, #1
    3e68:	d1f9      	bne.n	3e5e <_usb_d_dev_init+0x66>
    3e6a:	4b11      	ldr	r3, [pc, #68]	; (3eb0 <_usb_d_dev_init+0xb8>)
    3e6c:	4a11      	ldr	r2, [pc, #68]	; (3eb4 <_usb_d_dev_init+0xbc>)
    3e6e:	661a      	str	r2, [r3, #96]	; 0x60
    3e70:	665a      	str	r2, [r3, #100]	; 0x64
    3e72:	669a      	str	r2, [r3, #104]	; 0x68
    3e74:	66da      	str	r2, [r3, #108]	; 0x6c
    3e76:	671a      	str	r2, [r3, #112]	; 0x70
    3e78:	4b0f      	ldr	r3, [pc, #60]	; (3eb8 <_usb_d_dev_init+0xc0>)
    3e7a:	4798      	blx	r3
    3e7c:	4b0f      	ldr	r3, [pc, #60]	; (3ebc <_usb_d_dev_init+0xc4>)
    3e7e:	4798      	blx	r3
    3e80:	2204      	movs	r2, #4
    3e82:	f04f 4382 	mov.w	r3, #1090519040	; 0x41000000
    3e86:	701a      	strb	r2, [r3, #0]
    3e88:	f04f 4382 	mov.w	r3, #1090519040	; 0x41000000
    3e8c:	789b      	ldrb	r3, [r3, #2]
    3e8e:	f013 0f03 	tst.w	r3, #3
    3e92:	d1f9      	bne.n	3e88 <_usb_d_dev_init+0x90>
    3e94:	f04f 4282 	mov.w	r2, #1090519040	; 0x41000000
    3e98:	4b05      	ldr	r3, [pc, #20]	; (3eb0 <_usb_d_dev_init+0xb8>)
    3e9a:	6253      	str	r3, [r2, #36]	; 0x24
    3e9c:	f89d 3005 	ldrb.w	r3, [sp, #5]
    3ea0:	f043 0301 	orr.w	r3, r3, #1
    3ea4:	8113      	strh	r3, [r2, #8]
    3ea6:	2000      	movs	r0, #0
    3ea8:	b003      	add	sp, #12
    3eaa:	f85d fb04 	ldr.w	pc, [sp], #4
    3eae:	bf00      	nop
    3eb0:	200001f8 	.word	0x200001f8
    3eb4:	00003535 	.word	0x00003535
    3eb8:	000037f5 	.word	0x000037f5
    3ebc:	00003539 	.word	0x00003539

00003ec0 <_usb_d_dev_enable>:
    3ec0:	f04f 4382 	mov.w	r3, #1090519040	; 0x41000000
    3ec4:	789b      	ldrb	r3, [r3, #2]
    3ec6:	f013 0f03 	tst.w	r3, #3
    3eca:	d12b      	bne.n	3f24 <_usb_d_dev_enable+0x64>
    3ecc:	f04f 4382 	mov.w	r3, #1090519040	; 0x41000000
    3ed0:	789b      	ldrb	r3, [r3, #2]
    3ed2:	f013 0f03 	tst.w	r3, #3
    3ed6:	d1f9      	bne.n	3ecc <_usb_d_dev_enable+0xc>
    3ed8:	f04f 4382 	mov.w	r3, #1090519040	; 0x41000000
    3edc:	781b      	ldrb	r3, [r3, #0]
    3ede:	b2db      	uxtb	r3, r3
    3ee0:	f013 0f02 	tst.w	r3, #2
    3ee4:	d10a      	bne.n	3efc <_usb_d_dev_enable+0x3c>
    3ee6:	f043 0302 	orr.w	r3, r3, #2
    3eea:	f04f 4282 	mov.w	r2, #1090519040	; 0x41000000
    3eee:	7013      	strb	r3, [r2, #0]
    3ef0:	f04f 4382 	mov.w	r3, #1090519040	; 0x41000000
    3ef4:	789b      	ldrb	r3, [r3, #2]
    3ef6:	f013 0f03 	tst.w	r3, #3
    3efa:	d1f9      	bne.n	3ef0 <_usb_d_dev_enable+0x30>
    3efc:	4b0b      	ldr	r3, [pc, #44]	; (3f2c <_usb_d_dev_enable+0x6c>)
    3efe:	f44f 3280 	mov.w	r2, #65536	; 0x10000
    3f02:	609a      	str	r2, [r3, #8]
    3f04:	f44f 3200 	mov.w	r2, #131072	; 0x20000
    3f08:	609a      	str	r2, [r3, #8]
    3f0a:	f44f 2280 	mov.w	r2, #262144	; 0x40000
    3f0e:	609a      	str	r2, [r3, #8]
    3f10:	f44f 2200 	mov.w	r2, #524288	; 0x80000
    3f14:	609a      	str	r2, [r3, #8]
    3f16:	f240 228d 	movw	r2, #653	; 0x28d
    3f1a:	f04f 4382 	mov.w	r3, #1090519040	; 0x41000000
    3f1e:	831a      	strh	r2, [r3, #24]
    3f20:	2000      	movs	r0, #0
    3f22:	4770      	bx	lr
    3f24:	f06f 0010 	mvn.w	r0, #16
    3f28:	4770      	bx	lr
    3f2a:	bf00      	nop
    3f2c:	e000e100 	.word	0xe000e100

00003f30 <_usb_d_dev_detach>:
    3f30:	f04f 4282 	mov.w	r2, #1090519040	; 0x41000000
    3f34:	8913      	ldrh	r3, [r2, #8]
    3f36:	b29b      	uxth	r3, r3
    3f38:	f043 0301 	orr.w	r3, r3, #1
    3f3c:	8113      	strh	r3, [r2, #8]
    3f3e:	4770      	bx	lr

00003f40 <_usb_d_dev_set_address>:
    3f40:	f040 0080 	orr.w	r0, r0, #128	; 0x80
    3f44:	f04f 4382 	mov.w	r3, #1090519040	; 0x41000000
    3f48:	7298      	strb	r0, [r3, #10]
    3f4a:	4770      	bx	lr

00003f4c <_usb_d_dev_ep_init>:
    3f4c:	b5f0      	push	{r4, r5, r6, r7, lr}
    3f4e:	b247      	sxtb	r7, r0
    3f50:	f010 040f 	ands.w	r4, r0, #15
    3f54:	d005      	beq.n	3f62 <_usb_d_dev_ep_init+0x16>
    3f56:	2f00      	cmp	r7, #0
    3f58:	db01      	blt.n	3f5e <_usb_d_dev_ep_init+0x12>
    3f5a:	4625      	mov	r5, r4
    3f5c:	e002      	b.n	3f64 <_usb_d_dev_ep_init+0x18>
    3f5e:	1ca5      	adds	r5, r4, #2
    3f60:	e000      	b.n	3f64 <_usb_d_dev_ep_init+0x18>
    3f62:	4625      	mov	r5, r4
    3f64:	462e      	mov	r6, r5
    3f66:	f001 0103 	and.w	r1, r1, #3
    3f6a:	4623      	mov	r3, r4
    3f6c:	2c02      	cmp	r4, #2
    3f6e:	d86a      	bhi.n	4046 <_usb_d_dev_ep_init+0xfa>
    3f70:	eb05 0585 	add.w	r5, r5, r5, lsl #2
    3f74:	ea4f 0e85 	mov.w	lr, r5, lsl #2
    3f78:	4d3a      	ldr	r5, [pc, #232]	; (4064 <_usb_d_dev_ep_init+0x118>)
    3f7a:	4475      	add	r5, lr
    3f7c:	f895 5086 	ldrb.w	r5, [r5, #134]	; 0x86
    3f80:	2dff      	cmp	r5, #255	; 0xff
    3f82:	d163      	bne.n	404c <_usb_d_dev_ep_init+0x100>
    3f84:	b9a9      	cbnz	r1, 3fb2 <_usb_d_dev_ep_init+0x66>
    3f86:	b11c      	cbz	r4, 3f90 <_usb_d_dev_ep_init+0x44>
    3f88:	2f00      	cmp	r7, #0
    3f8a:	db01      	blt.n	3f90 <_usb_d_dev_ep_init+0x44>
    3f8c:	3402      	adds	r4, #2
    3f8e:	b2e4      	uxtb	r4, r4
    3f90:	eb04 0484 	add.w	r4, r4, r4, lsl #2
    3f94:	00a5      	lsls	r5, r4, #2
    3f96:	4c33      	ldr	r4, [pc, #204]	; (4064 <_usb_d_dev_ep_init+0x118>)
    3f98:	442c      	add	r4, r5
    3f9a:	f894 4086 	ldrb.w	r4, [r4, #134]	; 0x86
    3f9e:	2cff      	cmp	r4, #255	; 0xff
    3fa0:	d157      	bne.n	4052 <_usb_d_dev_ep_init+0x106>
    3fa2:	eb03 0443 	add.w	r4, r3, r3, lsl #1
    3fa6:	00a5      	lsls	r5, r4, #2
    3fa8:	4c2f      	ldr	r4, [pc, #188]	; (4068 <_usb_d_dev_ep_init+0x11c>)
    3faa:	442c      	add	r4, r5
    3fac:	68a4      	ldr	r4, [r4, #8]
    3fae:	2c00      	cmp	r4, #0
    3fb0:	d052      	beq.n	4058 <_usb_d_dev_ep_init+0x10c>
    3fb2:	2f00      	cmp	r7, #0
    3fb4:	db2e      	blt.n	4014 <_usb_d_dev_ep_init+0xc8>
    3fb6:	eb03 0443 	add.w	r4, r3, r3, lsl #1
    3fba:	00a5      	lsls	r5, r4, #2
    3fbc:	4c2a      	ldr	r4, [pc, #168]	; (4068 <_usb_d_dev_ep_init+0x11c>)
    3fbe:	442c      	add	r4, r5
    3fc0:	68a4      	ldr	r4, [r4, #8]
    3fc2:	3400      	adds	r4, #0
    3fc4:	bf18      	it	ne
    3fc6:	2401      	movne	r4, #1
    3fc8:	b14c      	cbz	r4, 3fde <_usb_d_dev_ep_init+0x92>
    3fca:	2f00      	cmp	r7, #0
    3fcc:	db2c      	blt.n	4028 <_usb_d_dev_ep_init+0xdc>
    3fce:	eb03 0443 	add.w	r4, r3, r3, lsl #1
    3fd2:	00a5      	lsls	r5, r4, #2
    3fd4:	4c24      	ldr	r4, [pc, #144]	; (4068 <_usb_d_dev_ep_init+0x11c>)
    3fd6:	442c      	add	r4, r5
    3fd8:	8a24      	ldrh	r4, [r4, #16]
    3fda:	4294      	cmp	r4, r2
    3fdc:	db3f      	blt.n	405e <_usb_d_dev_ep_init+0x112>
    3fde:	2f00      	cmp	r7, #0
    3fe0:	db29      	blt.n	4036 <_usb_d_dev_ep_init+0xea>
    3fe2:	eb03 0343 	add.w	r3, r3, r3, lsl #1
    3fe6:	009c      	lsls	r4, r3, #2
    3fe8:	4b1f      	ldr	r3, [pc, #124]	; (4068 <_usb_d_dev_ep_init+0x11c>)
    3fea:	4423      	add	r3, r4
    3fec:	f8d3 e008 	ldr.w	lr, [r3, #8]
    3ff0:	4d1c      	ldr	r5, [pc, #112]	; (4064 <_usb_d_dev_ep_init+0x118>)
    3ff2:	00b4      	lsls	r4, r6, #2
    3ff4:	19a7      	adds	r7, r4, r6
    3ff6:	00bb      	lsls	r3, r7, #2
    3ff8:	461f      	mov	r7, r3
    3ffa:	442b      	add	r3, r5
    3ffc:	f8c3 e080 	str.w	lr, [r3, #128]	; 0x80
    4000:	f8a3 2084 	strh.w	r2, [r3, #132]	; 0x84
    4004:	3101      	adds	r1, #1
    4006:	f883 1087 	strb.w	r1, [r3, #135]	; 0x87
    400a:	443d      	add	r5, r7
    400c:	f885 0086 	strb.w	r0, [r5, #134]	; 0x86
    4010:	2000      	movs	r0, #0
    4012:	bdf0      	pop	{r4, r5, r6, r7, pc}
    4014:	eb03 0443 	add.w	r4, r3, r3, lsl #1
    4018:	00a5      	lsls	r5, r4, #2
    401a:	4c13      	ldr	r4, [pc, #76]	; (4068 <_usb_d_dev_ep_init+0x11c>)
    401c:	442c      	add	r4, r5
    401e:	68e4      	ldr	r4, [r4, #12]
    4020:	3400      	adds	r4, #0
    4022:	bf18      	it	ne
    4024:	2401      	movne	r4, #1
    4026:	e7cf      	b.n	3fc8 <_usb_d_dev_ep_init+0x7c>
    4028:	eb03 0443 	add.w	r4, r3, r3, lsl #1
    402c:	00a5      	lsls	r5, r4, #2
    402e:	4c0e      	ldr	r4, [pc, #56]	; (4068 <_usb_d_dev_ep_init+0x11c>)
    4030:	442c      	add	r4, r5
    4032:	8a64      	ldrh	r4, [r4, #18]
    4034:	e7d1      	b.n	3fda <_usb_d_dev_ep_init+0x8e>
    4036:	eb03 0343 	add.w	r3, r3, r3, lsl #1
    403a:	009c      	lsls	r4, r3, #2
    403c:	4b0a      	ldr	r3, [pc, #40]	; (4068 <_usb_d_dev_ep_init+0x11c>)
    403e:	4423      	add	r3, r4
    4040:	f8d3 e00c 	ldr.w	lr, [r3, #12]
    4044:	e7d4      	b.n	3ff0 <_usb_d_dev_ep_init+0xa4>
    4046:	f06f 0011 	mvn.w	r0, #17
    404a:	bdf0      	pop	{r4, r5, r6, r7, pc}
    404c:	f06f 0013 	mvn.w	r0, #19
    4050:	bdf0      	pop	{r4, r5, r6, r7, pc}
    4052:	f06f 0013 	mvn.w	r0, #19
    4056:	bdf0      	pop	{r4, r5, r6, r7, pc}
    4058:	f06f 0012 	mvn.w	r0, #18
    405c:	bdf0      	pop	{r4, r5, r6, r7, pc}
    405e:	f06f 0012 	mvn.w	r0, #18
    4062:	bdf0      	pop	{r4, r5, r6, r7, pc}
    4064:	200001f8 	.word	0x200001f8
    4068:	000064e0 	.word	0x000064e0

0000406c <_usb_d_dev_ep_deinit>:
    406c:	e92d 41f0 	stmdb	sp!, {r4, r5, r6, r7, r8, lr}
    4070:	b246      	sxtb	r6, r0
    4072:	0ff1      	lsrs	r1, r6, #31
    4074:	f010 040f 	ands.w	r4, r0, #15
    4078:	d005      	beq.n	4086 <_usb_d_dev_ep_deinit+0x1a>
    407a:	2e00      	cmp	r6, #0
    407c:	db01      	blt.n	4082 <_usb_d_dev_ep_deinit+0x16>
    407e:	4623      	mov	r3, r4
    4080:	e002      	b.n	4088 <_usb_d_dev_ep_deinit+0x1c>
    4082:	1ca3      	adds	r3, r4, #2
    4084:	e000      	b.n	4088 <_usb_d_dev_ep_deinit+0x1c>
    4086:	4623      	mov	r3, r4
    4088:	461d      	mov	r5, r3
    408a:	eb03 0783 	add.w	r7, r3, r3, lsl #2
    408e:	00ba      	lsls	r2, r7, #2
    4090:	3210      	adds	r2, #16
    4092:	4f23      	ldr	r7, [pc, #140]	; (4120 <_usb_d_dev_ep_deinit+0xb4>)
    4094:	443a      	add	r2, r7
    4096:	1d17      	adds	r7, r2, #4
    4098:	2c02      	cmp	r4, #2
    409a:	d82e      	bhi.n	40fa <_usb_d_dev_ep_deinit+0x8e>
    409c:	eb03 0383 	add.w	r3, r3, r3, lsl #2
    40a0:	009a      	lsls	r2, r3, #2
    40a2:	4b20      	ldr	r3, [pc, #128]	; (4124 <_usb_d_dev_ep_deinit+0xb8>)
    40a4:	4413      	add	r3, r2
    40a6:	f893 3086 	ldrb.w	r3, [r3, #134]	; 0x86
    40aa:	2bff      	cmp	r3, #255	; 0xff
    40ac:	d025      	beq.n	40fa <_usb_d_dev_ep_deinit+0x8e>
    40ae:	4680      	mov	r8, r0
    40b0:	2203      	movs	r2, #3
    40b2:	4638      	mov	r0, r7
    40b4:	4b1c      	ldr	r3, [pc, #112]	; (4128 <_usb_d_dev_ep_deinit+0xbc>)
    40b6:	4798      	blx	r3
    40b8:	eb05 0385 	add.w	r3, r5, r5, lsl #2
    40bc:	009a      	lsls	r2, r3, #2
    40be:	4b19      	ldr	r3, [pc, #100]	; (4124 <_usb_d_dev_ep_deinit+0xb8>)
    40c0:	4413      	add	r3, r2
    40c2:	f893 3087 	ldrb.w	r3, [r3, #135]	; 0x87
    40c6:	f003 0307 	and.w	r3, r3, #7
    40ca:	2b01      	cmp	r3, #1
    40cc:	d017      	beq.n	40fe <_usb_d_dev_ep_deinit+0x92>
    40ce:	2e00      	cmp	r6, #0
    40d0:	db1d      	blt.n	410e <_usb_d_dev_ep_deinit+0xa2>
    40d2:	f108 0008 	add.w	r0, r8, #8
    40d6:	0140      	lsls	r0, r0, #5
    40d8:	f100 4082 	add.w	r0, r0, #1090519040	; 0x41000000
    40dc:	7803      	ldrb	r3, [r0, #0]
    40de:	f003 03f8 	and.w	r3, r3, #248	; 0xf8
    40e2:	7003      	strb	r3, [r0, #0]
    40e4:	4a0f      	ldr	r2, [pc, #60]	; (4124 <_usb_d_dev_ep_deinit+0xb8>)
    40e6:	00ab      	lsls	r3, r5, #2
    40e8:	1958      	adds	r0, r3, r5
    40ea:	0081      	lsls	r1, r0, #2
    40ec:	4411      	add	r1, r2
    40ee:	2000      	movs	r0, #0
    40f0:	f881 0087 	strb.w	r0, [r1, #135]	; 0x87
    40f4:	23ff      	movs	r3, #255	; 0xff
    40f6:	f881 3086 	strb.w	r3, [r1, #134]	; 0x86
    40fa:	e8bd 81f0 	ldmia.w	sp!, {r4, r5, r6, r7, r8, pc}
    40fe:	f108 0008 	add.w	r0, r8, #8
    4102:	0140      	lsls	r0, r0, #5
    4104:	f100 4082 	add.w	r0, r0, #1090519040	; 0x41000000
    4108:	2300      	movs	r3, #0
    410a:	7003      	strb	r3, [r0, #0]
    410c:	e7ea      	b.n	40e4 <_usb_d_dev_ep_deinit+0x78>
    410e:	3408      	adds	r4, #8
    4110:	0164      	lsls	r4, r4, #5
    4112:	f104 4482 	add.w	r4, r4, #1090519040	; 0x41000000
    4116:	7823      	ldrb	r3, [r4, #0]
    4118:	f003 038f 	and.w	r3, r3, #143	; 0x8f
    411c:	7023      	strb	r3, [r4, #0]
    411e:	e7e1      	b.n	40e4 <_usb_d_dev_ep_deinit+0x78>
    4120:	20000258 	.word	0x20000258
    4124:	200001f8 	.word	0x200001f8
    4128:	00003669 	.word	0x00003669

0000412c <_usb_d_dev_ep_enable>:
    412c:	b5f0      	push	{r4, r5, r6, r7, lr}
    412e:	b244      	sxtb	r4, r0
    4130:	f010 000f 	ands.w	r0, r0, #15
    4134:	d005      	beq.n	4142 <_usb_d_dev_ep_enable+0x16>
    4136:	2c00      	cmp	r4, #0
    4138:	db01      	blt.n	413e <_usb_d_dev_ep_enable+0x12>
    413a:	4603      	mov	r3, r0
    413c:	e002      	b.n	4144 <_usb_d_dev_ep_enable+0x18>
    413e:	1c83      	adds	r3, r0, #2
    4140:	e000      	b.n	4144 <_usb_d_dev_ep_enable+0x18>
    4142:	4603      	mov	r3, r0
    4144:	4619      	mov	r1, r3
    4146:	f100 0208 	add.w	r2, r0, #8
    414a:	0152      	lsls	r2, r2, #5
    414c:	f102 4282 	add.w	r2, r2, #1090519040	; 0x41000000
    4150:	7812      	ldrb	r2, [r2, #0]
    4152:	b2d2      	uxtb	r2, r2
    4154:	2802      	cmp	r0, #2
    4156:	f200 813e 	bhi.w	43d6 <_usb_d_dev_ep_enable+0x2aa>
    415a:	eb03 0383 	add.w	r3, r3, r3, lsl #2
    415e:	009d      	lsls	r5, r3, #2
    4160:	4ba4      	ldr	r3, [pc, #656]	; (43f4 <_usb_d_dev_ep_enable+0x2c8>)
    4162:	442b      	add	r3, r5
    4164:	f893 3086 	ldrb.w	r3, [r3, #134]	; 0x86
    4168:	2bff      	cmp	r3, #255	; 0xff
    416a:	f000 8137 	beq.w	43dc <_usb_d_dev_ep_enable+0x2b0>
    416e:	4ba1      	ldr	r3, [pc, #644]	; (43f4 <_usb_d_dev_ep_enable+0x2c8>)
    4170:	eb03 1540 	add.w	r5, r3, r0, lsl #5
    4174:	eb01 0781 	add.w	r7, r1, r1, lsl #2
    4178:	00be      	lsls	r6, r7, #2
    417a:	4433      	add	r3, r6
    417c:	f893 3087 	ldrb.w	r3, [r3, #135]	; 0x87
    4180:	f003 0307 	and.w	r3, r3, #7
    4184:	2b01      	cmp	r3, #1
    4186:	d036      	beq.n	41f6 <_usb_d_dev_ep_enable+0xca>
    4188:	2c00      	cmp	r4, #0
    418a:	f2c0 80c1 	blt.w	4310 <_usb_d_dev_ep_enable+0x1e4>
    418e:	f012 0f07 	tst.w	r2, #7
    4192:	f040 812c 	bne.w	43ee <_usb_d_dev_ep_enable+0x2c2>
    4196:	4e97      	ldr	r6, [pc, #604]	; (43f4 <_usb_d_dev_ep_enable+0x2c8>)
    4198:	008c      	lsls	r4, r1, #2
    419a:	1867      	adds	r7, r4, r1
    419c:	00bb      	lsls	r3, r7, #2
    419e:	461f      	mov	r7, r3
    41a0:	4433      	add	r3, r6
    41a2:	f893 3087 	ldrb.w	r3, [r3, #135]	; 0x87
    41a6:	f003 0307 	and.w	r3, r3, #7
    41aa:	431a      	orrs	r2, r3
    41ac:	f100 0308 	add.w	r3, r0, #8
    41b0:	015b      	lsls	r3, r3, #5
    41b2:	f103 4382 	add.w	r3, r3, #1090519040	; 0x41000000
    41b6:	701a      	strb	r2, [r3, #0]
    41b8:	443e      	add	r6, r7
    41ba:	f8b6 2084 	ldrh.w	r2, [r6, #132]	; 0x84
    41be:	4b8e      	ldr	r3, [pc, #568]	; (43f8 <_usb_d_dev_ep_enable+0x2cc>)
    41c0:	ea03 3382 	and.w	r3, r3, r2, lsl #14
    41c4:	f5b2 7f00 	cmp.w	r2, #512	; 0x200
    41c8:	f200 80ea 	bhi.w	43a0 <_usb_d_dev_ep_enable+0x274>
    41cc:	f5b2 7f80 	cmp.w	r2, #256	; 0x100
    41d0:	f200 80f7 	bhi.w	43c2 <_usb_d_dev_ep_enable+0x296>
    41d4:	2a80      	cmp	r2, #128	; 0x80
    41d6:	f200 80f6 	bhi.w	43c6 <_usb_d_dev_ep_enable+0x29a>
    41da:	2a40      	cmp	r2, #64	; 0x40
    41dc:	f200 80f5 	bhi.w	43ca <_usb_d_dev_ep_enable+0x29e>
    41e0:	2a20      	cmp	r2, #32
    41e2:	f200 80f4 	bhi.w	43ce <_usb_d_dev_ep_enable+0x2a2>
    41e6:	2a10      	cmp	r2, #16
    41e8:	f200 80f3 	bhi.w	43d2 <_usb_d_dev_ep_enable+0x2a6>
    41ec:	2a08      	cmp	r2, #8
    41ee:	bf94      	ite	ls
    41f0:	2200      	movls	r2, #0
    41f2:	2201      	movhi	r2, #1
    41f4:	e0d5      	b.n	43a2 <_usb_d_dev_ep_enable+0x276>
    41f6:	f012 0f77 	tst.w	r2, #119	; 0x77
    41fa:	f040 80f2 	bne.w	43e2 <_usb_d_dev_ep_enable+0x2b6>
    41fe:	f100 0308 	add.w	r3, r0, #8
    4202:	015b      	lsls	r3, r3, #5
    4204:	f103 4382 	add.w	r3, r3, #1090519040	; 0x41000000
    4208:	2211      	movs	r2, #17
    420a:	701a      	strb	r2, [r3, #0]
    420c:	4b79      	ldr	r3, [pc, #484]	; (43f4 <_usb_d_dev_ep_enable+0x2c8>)
    420e:	4433      	add	r3, r6
    4210:	f8b3 3084 	ldrh.w	r3, [r3, #132]	; 0x84
    4214:	4a78      	ldr	r2, [pc, #480]	; (43f8 <_usb_d_dev_ep_enable+0x2cc>)
    4216:	ea02 3283 	and.w	r2, r2, r3, lsl #14
    421a:	f5b3 7f00 	cmp.w	r3, #512	; 0x200
    421e:	d80f      	bhi.n	4240 <_usb_d_dev_ep_enable+0x114>
    4220:	f5b3 7f80 	cmp.w	r3, #256	; 0x100
    4224:	d825      	bhi.n	4272 <_usb_d_dev_ep_enable+0x146>
    4226:	2b80      	cmp	r3, #128	; 0x80
    4228:	d825      	bhi.n	4276 <_usb_d_dev_ep_enable+0x14a>
    422a:	2b40      	cmp	r3, #64	; 0x40
    422c:	d825      	bhi.n	427a <_usb_d_dev_ep_enable+0x14e>
    422e:	2b20      	cmp	r3, #32
    4230:	d825      	bhi.n	427e <_usb_d_dev_ep_enable+0x152>
    4232:	2b10      	cmp	r3, #16
    4234:	d825      	bhi.n	4282 <_usb_d_dev_ep_enable+0x156>
    4236:	2b08      	cmp	r3, #8
    4238:	bf94      	ite	ls
    423a:	2400      	movls	r4, #0
    423c:	2401      	movhi	r4, #1
    423e:	e000      	b.n	4242 <_usb_d_dev_ep_enable+0x116>
    4240:	2407      	movs	r4, #7
    4242:	ea42 7204 	orr.w	r2, r2, r4, lsl #28
    4246:	606a      	str	r2, [r5, #4]
    4248:	f3c3 040d 	ubfx	r4, r3, #0, #14
    424c:	f5b3 7f00 	cmp.w	r3, #512	; 0x200
    4250:	d819      	bhi.n	4286 <_usb_d_dev_ep_enable+0x15a>
    4252:	f5b3 7f80 	cmp.w	r3, #256	; 0x100
    4256:	d851      	bhi.n	42fc <_usb_d_dev_ep_enable+0x1d0>
    4258:	2b80      	cmp	r3, #128	; 0x80
    425a:	d851      	bhi.n	4300 <_usb_d_dev_ep_enable+0x1d4>
    425c:	2b40      	cmp	r3, #64	; 0x40
    425e:	d851      	bhi.n	4304 <_usb_d_dev_ep_enable+0x1d8>
    4260:	2b20      	cmp	r3, #32
    4262:	d851      	bhi.n	4308 <_usb_d_dev_ep_enable+0x1dc>
    4264:	2b10      	cmp	r3, #16
    4266:	d851      	bhi.n	430c <_usb_d_dev_ep_enable+0x1e0>
    4268:	2b08      	cmp	r3, #8
    426a:	bf94      	ite	ls
    426c:	2200      	movls	r2, #0
    426e:	2201      	movhi	r2, #1
    4270:	e00a      	b.n	4288 <_usb_d_dev_ep_enable+0x15c>
    4272:	2406      	movs	r4, #6
    4274:	e7e5      	b.n	4242 <_usb_d_dev_ep_enable+0x116>
    4276:	2405      	movs	r4, #5
    4278:	e7e3      	b.n	4242 <_usb_d_dev_ep_enable+0x116>
    427a:	2404      	movs	r4, #4
    427c:	e7e1      	b.n	4242 <_usb_d_dev_ep_enable+0x116>
    427e:	2403      	movs	r4, #3
    4280:	e7df      	b.n	4242 <_usb_d_dev_ep_enable+0x116>
    4282:	2402      	movs	r4, #2
    4284:	e7dd      	b.n	4242 <_usb_d_dev_ep_enable+0x116>
    4286:	2207      	movs	r2, #7
    4288:	ea44 7202 	orr.w	r2, r4, r2, lsl #28
    428c:	616a      	str	r2, [r5, #20]
    428e:	f100 0308 	add.w	r3, r0, #8
    4292:	015b      	lsls	r3, r3, #5
    4294:	f103 4382 	add.w	r3, r3, #1090519040	; 0x41000000
    4298:	2640      	movs	r6, #64	; 0x40
    429a:	715e      	strb	r6, [r3, #5]
    429c:	2280      	movs	r2, #128	; 0x80
    429e:	711a      	strb	r2, [r3, #4]
    42a0:	4a54      	ldr	r2, [pc, #336]	; (43f4 <_usb_d_dev_ep_enable+0x2c8>)
    42a2:	eb02 1340 	add.w	r3, r2, r0, lsl #5
    42a6:	2000      	movs	r0, #0
    42a8:	7298      	strb	r0, [r3, #10]
    42aa:	7698      	strb	r0, [r3, #26]
    42ac:	008d      	lsls	r5, r1, #2
    42ae:	186b      	adds	r3, r5, r1
    42b0:	009c      	lsls	r4, r3, #2
    42b2:	4414      	add	r4, r2
    42b4:	f894 3086 	ldrb.w	r3, [r4, #134]	; 0x86
    42b8:	f003 030f 	and.w	r3, r3, #15
    42bc:	f8d4 e080 	ldr.w	lr, [r4, #128]	; 0x80
    42c0:	015c      	lsls	r4, r3, #5
    42c2:	1917      	adds	r7, r2, r4
    42c4:	f842 e004 	str.w	lr, [r2, r4]
    42c8:	4429      	add	r1, r5
    42ca:	008d      	lsls	r5, r1, #2
    42cc:	442a      	add	r2, r5
    42ce:	f8b2 1084 	ldrh.w	r1, [r2, #132]	; 0x84
    42d2:	687a      	ldr	r2, [r7, #4]
    42d4:	f361 329b 	bfi	r2, r1, #14, #14
    42d8:	607a      	str	r2, [r7, #4]
    42da:	687a      	ldr	r2, [r7, #4]
    42dc:	f360 020d 	bfi	r2, r0, #0, #14
    42e0:	607a      	str	r2, [r7, #4]
    42e2:	3308      	adds	r3, #8
    42e4:	015b      	lsls	r3, r3, #5
    42e6:	f103 4382 	add.w	r3, r3, #1090519040	; 0x41000000
    42ea:	22b0      	movs	r2, #176	; 0xb0
    42ec:	711a      	strb	r2, [r3, #4]
    42ee:	715e      	strb	r6, [r3, #5]
    42f0:	f104 4482 	add.w	r4, r4, #1090519040	; 0x41000000
    42f4:	2310      	movs	r3, #16
    42f6:	f884 3109 	strb.w	r3, [r4, #265]	; 0x109
    42fa:	bdf0      	pop	{r4, r5, r6, r7, pc}
    42fc:	2206      	movs	r2, #6
    42fe:	e7c3      	b.n	4288 <_usb_d_dev_ep_enable+0x15c>
    4300:	2205      	movs	r2, #5
    4302:	e7c1      	b.n	4288 <_usb_d_dev_ep_enable+0x15c>
    4304:	2204      	movs	r2, #4
    4306:	e7bf      	b.n	4288 <_usb_d_dev_ep_enable+0x15c>
    4308:	2203      	movs	r2, #3
    430a:	e7bd      	b.n	4288 <_usb_d_dev_ep_enable+0x15c>
    430c:	2202      	movs	r2, #2
    430e:	e7bb      	b.n	4288 <_usb_d_dev_ep_enable+0x15c>
    4310:	f012 0f70 	tst.w	r2, #112	; 0x70
    4314:	d168      	bne.n	43e8 <_usb_d_dev_ep_enable+0x2bc>
    4316:	4e37      	ldr	r6, [pc, #220]	; (43f4 <_usb_d_dev_ep_enable+0x2c8>)
    4318:	008b      	lsls	r3, r1, #2
    431a:	185f      	adds	r7, r3, r1
    431c:	00bc      	lsls	r4, r7, #2
    431e:	4627      	mov	r7, r4
    4320:	4434      	add	r4, r6
    4322:	f894 4087 	ldrb.w	r4, [r4, #135]	; 0x87
    4326:	f004 0407 	and.w	r4, r4, #7
    432a:	ea42 1204 	orr.w	r2, r2, r4, lsl #4
    432e:	f100 0408 	add.w	r4, r0, #8
    4332:	0164      	lsls	r4, r4, #5
    4334:	f104 4482 	add.w	r4, r4, #1090519040	; 0x41000000
    4338:	7022      	strb	r2, [r4, #0]
    433a:	443e      	add	r6, r7
    433c:	f8b6 3084 	ldrh.w	r3, [r6, #132]	; 0x84
    4340:	f3c3 020d 	ubfx	r2, r3, #0, #14
    4344:	f5b3 7f00 	cmp.w	r3, #512	; 0x200
    4348:	d80f      	bhi.n	436a <_usb_d_dev_ep_enable+0x23e>
    434a:	f5b3 7f80 	cmp.w	r3, #256	; 0x100
    434e:	d81d      	bhi.n	438c <_usb_d_dev_ep_enable+0x260>
    4350:	2b80      	cmp	r3, #128	; 0x80
    4352:	d81d      	bhi.n	4390 <_usb_d_dev_ep_enable+0x264>
    4354:	2b40      	cmp	r3, #64	; 0x40
    4356:	d81d      	bhi.n	4394 <_usb_d_dev_ep_enable+0x268>
    4358:	2b20      	cmp	r3, #32
    435a:	d81d      	bhi.n	4398 <_usb_d_dev_ep_enable+0x26c>
    435c:	2b10      	cmp	r3, #16
    435e:	d81d      	bhi.n	439c <_usb_d_dev_ep_enable+0x270>
    4360:	2b08      	cmp	r3, #8
    4362:	bf94      	ite	ls
    4364:	2300      	movls	r3, #0
    4366:	2301      	movhi	r3, #1
    4368:	e000      	b.n	436c <_usb_d_dev_ep_enable+0x240>
    436a:	2307      	movs	r3, #7
    436c:	ea42 7303 	orr.w	r3, r2, r3, lsl #28
    4370:	616b      	str	r3, [r5, #20]
    4372:	f100 0308 	add.w	r3, r0, #8
    4376:	015b      	lsls	r3, r3, #5
    4378:	f103 4382 	add.w	r3, r3, #1090519040	; 0x41000000
    437c:	2280      	movs	r2, #128	; 0x80
    437e:	711a      	strb	r2, [r3, #4]
    4380:	4b1c      	ldr	r3, [pc, #112]	; (43f4 <_usb_d_dev_ep_enable+0x2c8>)
    4382:	eb03 1340 	add.w	r3, r3, r0, lsl #5
    4386:	2000      	movs	r0, #0
    4388:	7698      	strb	r0, [r3, #26]
    438a:	bdf0      	pop	{r4, r5, r6, r7, pc}
    438c:	2306      	movs	r3, #6
    438e:	e7ed      	b.n	436c <_usb_d_dev_ep_enable+0x240>
    4390:	2305      	movs	r3, #5
    4392:	e7eb      	b.n	436c <_usb_d_dev_ep_enable+0x240>
    4394:	2304      	movs	r3, #4
    4396:	e7e9      	b.n	436c <_usb_d_dev_ep_enable+0x240>
    4398:	2303      	movs	r3, #3
    439a:	e7e7      	b.n	436c <_usb_d_dev_ep_enable+0x240>
    439c:	2302      	movs	r3, #2
    439e:	e7e5      	b.n	436c <_usb_d_dev_ep_enable+0x240>
    43a0:	2207      	movs	r2, #7
    43a2:	ea43 7302 	orr.w	r3, r3, r2, lsl #28
    43a6:	606b      	str	r3, [r5, #4]
    43a8:	f100 0308 	add.w	r3, r0, #8
    43ac:	015b      	lsls	r3, r3, #5
    43ae:	f103 4382 	add.w	r3, r3, #1090519040	; 0x41000000
    43b2:	2240      	movs	r2, #64	; 0x40
    43b4:	715a      	strb	r2, [r3, #5]
    43b6:	4b0f      	ldr	r3, [pc, #60]	; (43f4 <_usb_d_dev_ep_enable+0x2c8>)
    43b8:	eb03 1340 	add.w	r3, r3, r0, lsl #5
    43bc:	2000      	movs	r0, #0
    43be:	7298      	strb	r0, [r3, #10]
    43c0:	bdf0      	pop	{r4, r5, r6, r7, pc}
    43c2:	2206      	movs	r2, #6
    43c4:	e7ed      	b.n	43a2 <_usb_d_dev_ep_enable+0x276>
    43c6:	2205      	movs	r2, #5
    43c8:	e7eb      	b.n	43a2 <_usb_d_dev_ep_enable+0x276>
    43ca:	2204      	movs	r2, #4
    43cc:	e7e9      	b.n	43a2 <_usb_d_dev_ep_enable+0x276>
    43ce:	2203      	movs	r2, #3
    43d0:	e7e7      	b.n	43a2 <_usb_d_dev_ep_enable+0x276>
    43d2:	2202      	movs	r2, #2
    43d4:	e7e5      	b.n	43a2 <_usb_d_dev_ep_enable+0x276>
    43d6:	f06f 0011 	mvn.w	r0, #17
    43da:	bdf0      	pop	{r4, r5, r6, r7, pc}
    43dc:	f06f 0011 	mvn.w	r0, #17
    43e0:	bdf0      	pop	{r4, r5, r6, r7, pc}
    43e2:	f06f 0013 	mvn.w	r0, #19
    43e6:	bdf0      	pop	{r4, r5, r6, r7, pc}
    43e8:	f06f 0013 	mvn.w	r0, #19
    43ec:	bdf0      	pop	{r4, r5, r6, r7, pc}
    43ee:	f06f 0013 	mvn.w	r0, #19
    43f2:	bdf0      	pop	{r4, r5, r6, r7, pc}
    43f4:	200001f8 	.word	0x200001f8
    43f8:	0fffc000 	.word	0x0fffc000

000043fc <_usb_d_dev_ep_stall>:
    43fc:	b470      	push	{r4, r5, r6}
    43fe:	b243      	sxtb	r3, r0
    4400:	0fdc      	lsrs	r4, r3, #31
    4402:	f010 000f 	ands.w	r0, r0, #15
    4406:	d005      	beq.n	4414 <_usb_d_dev_ep_stall+0x18>
    4408:	2b00      	cmp	r3, #0
    440a:	db01      	blt.n	4410 <_usb_d_dev_ep_stall+0x14>
    440c:	4603      	mov	r3, r0
    440e:	e002      	b.n	4416 <_usb_d_dev_ep_stall+0x1a>
    4410:	1c83      	adds	r3, r0, #2
    4412:	e000      	b.n	4416 <_usb_d_dev_ep_stall+0x1a>
    4414:	4603      	mov	r3, r0
    4416:	461e      	mov	r6, r3
    4418:	eb03 0383 	add.w	r3, r3, r3, lsl #2
    441c:	009a      	lsls	r2, r3, #2
    441e:	3210      	adds	r2, #16
    4420:	4d46      	ldr	r5, [pc, #280]	; (453c <_usb_d_dev_ep_stall+0x140>)
    4422:	442a      	add	r2, r5
    4424:	3204      	adds	r2, #4
    4426:	2802      	cmp	r0, #2
    4428:	f200 8084 	bhi.w	4534 <_usb_d_dev_ep_stall+0x138>
    442c:	2901      	cmp	r1, #1
    442e:	d018      	beq.n	4462 <_usb_d_dev_ep_stall+0x66>
    4430:	2900      	cmp	r1, #0
    4432:	d03d      	beq.n	44b0 <_usb_d_dev_ep_stall+0xb4>
    4434:	eb06 0386 	add.w	r3, r6, r6, lsl #2
    4438:	009a      	lsls	r2, r3, #2
    443a:	4b41      	ldr	r3, [pc, #260]	; (4540 <_usb_d_dev_ep_stall+0x144>)
    443c:	4413      	add	r3, r2
    443e:	f893 3086 	ldrb.w	r3, [r3, #134]	; 0x86
    4442:	f003 030f 	and.w	r3, r3, #15
    4446:	3308      	adds	r3, #8
    4448:	015b      	lsls	r3, r3, #5
    444a:	f103 4382 	add.w	r3, r3, #1090519040	; 0x41000000
    444e:	799a      	ldrb	r2, [r3, #6]
    4450:	2310      	movs	r3, #16
    4452:	fa03 f404 	lsl.w	r4, r3, r4
    4456:	4222      	tst	r2, r4
    4458:	bf14      	ite	ne
    445a:	2001      	movne	r0, #1
    445c:	2000      	moveq	r0, #0
    445e:	bc70      	pop	{r4, r5, r6}
    4460:	4770      	bx	lr
    4462:	f1a5 0160 	sub.w	r1, r5, #96	; 0x60
    4466:	00b3      	lsls	r3, r6, #2
    4468:	1998      	adds	r0, r3, r6
    446a:	0082      	lsls	r2, r0, #2
    446c:	440a      	add	r2, r1
    446e:	f892 2086 	ldrb.w	r2, [r2, #134]	; 0x86
    4472:	f002 020f 	and.w	r2, r2, #15
    4476:	2510      	movs	r5, #16
    4478:	40a5      	lsls	r5, r4
    447a:	b2ed      	uxtb	r5, r5
    447c:	f102 0008 	add.w	r0, r2, #8
    4480:	0140      	lsls	r0, r0, #5
    4482:	f100 4082 	add.w	r0, r0, #1090519040	; 0x41000000
    4486:	7145      	strb	r5, [r0, #5]
    4488:	2020      	movs	r0, #32
    448a:	fa00 f404 	lsl.w	r4, r0, r4
    448e:	b2e4      	uxtb	r4, r4
    4490:	0152      	lsls	r2, r2, #5
    4492:	f102 4282 	add.w	r2, r2, #1090519040	; 0x41000000
    4496:	f882 4109 	strb.w	r4, [r2, #265]	; 0x109
    449a:	441e      	add	r6, r3
    449c:	00b3      	lsls	r3, r6, #2
    449e:	440b      	add	r3, r1
    44a0:	f893 2087 	ldrb.w	r2, [r3, #135]	; 0x87
    44a4:	f042 0208 	orr.w	r2, r2, #8
    44a8:	f883 2087 	strb.w	r2, [r3, #135]	; 0x87
    44ac:	2000      	movs	r0, #0
    44ae:	e7d6      	b.n	445e <_usb_d_dev_ep_stall+0x62>
    44b0:	7c93      	ldrb	r3, [r2, #18]
    44b2:	f003 030f 	and.w	r3, r3, #15
    44b6:	f103 0108 	add.w	r1, r3, #8
    44ba:	0149      	lsls	r1, r1, #5
    44bc:	f101 4182 	add.w	r1, r1, #1090519040	; 0x41000000
    44c0:	7988      	ldrb	r0, [r1, #6]
    44c2:	2110      	movs	r1, #16
    44c4:	40a1      	lsls	r1, r4
    44c6:	4208      	tst	r0, r1
    44c8:	d025      	beq.n	4516 <_usb_d_dev_ep_stall+0x11a>
    44ca:	b2c9      	uxtb	r1, r1
    44cc:	f103 0008 	add.w	r0, r3, #8
    44d0:	0140      	lsls	r0, r0, #5
    44d2:	f100 4082 	add.w	r0, r0, #1090519040	; 0x41000000
    44d6:	7101      	strb	r1, [r0, #4]
    44d8:	2120      	movs	r1, #32
    44da:	40a1      	lsls	r1, r4
    44dc:	b2ce      	uxtb	r6, r1
    44de:	015d      	lsls	r5, r3, #5
    44e0:	f105 4582 	add.w	r5, r5, #1090519040	; 0x41000000
    44e4:	f885 6108 	strb.w	r6, [r5, #264]	; 0x108
    44e8:	79c0      	ldrb	r0, [r0, #7]
    44ea:	4208      	tst	r0, r1
    44ec:	d00a      	beq.n	4504 <_usb_d_dev_ep_stall+0x108>
    44ee:	f103 0108 	add.w	r1, r3, #8
    44f2:	0149      	lsls	r1, r1, #5
    44f4:	f101 4182 	add.w	r1, r1, #1090519040	; 0x41000000
    44f8:	71ce      	strb	r6, [r1, #7]
    44fa:	2001      	movs	r0, #1
    44fc:	fa00 f404 	lsl.w	r4, r0, r4
    4500:	b2e4      	uxtb	r4, r4
    4502:	710c      	strb	r4, [r1, #4]
    4504:	7cd1      	ldrb	r1, [r2, #19]
    4506:	f001 0107 	and.w	r1, r1, #7
    450a:	2901      	cmp	r1, #1
    450c:	d005      	beq.n	451a <_usb_d_dev_ep_stall+0x11e>
    450e:	7cd3      	ldrb	r3, [r2, #19]
    4510:	f36f 03c3 	bfc	r3, #3, #1
    4514:	74d3      	strb	r3, [r2, #19]
    4516:	2000      	movs	r0, #0
    4518:	e7a1      	b.n	445e <_usb_d_dev_ep_stall+0x62>
    451a:	3308      	adds	r3, #8
    451c:	015b      	lsls	r3, r3, #5
    451e:	f103 4382 	add.w	r3, r3, #1090519040	; 0x41000000
    4522:	799b      	ldrb	r3, [r3, #6]
    4524:	f013 0f30 	tst.w	r3, #48	; 0x30
    4528:	d1f5      	bne.n	4516 <_usb_d_dev_ep_stall+0x11a>
    452a:	7cd3      	ldrb	r3, [r2, #19]
    452c:	f36f 03c3 	bfc	r3, #3, #1
    4530:	74d3      	strb	r3, [r2, #19]
    4532:	e7f0      	b.n	4516 <_usb_d_dev_ep_stall+0x11a>
    4534:	f06f 0011 	mvn.w	r0, #17
    4538:	e791      	b.n	445e <_usb_d_dev_ep_stall+0x62>
    453a:	bf00      	nop
    453c:	20000258 	.word	0x20000258
    4540:	200001f8 	.word	0x200001f8

00004544 <_usb_d_dev_ep_read_req>:
    4544:	b430      	push	{r4, r5}
    4546:	f000 000f 	and.w	r0, r0, #15
    454a:	4a1a      	ldr	r2, [pc, #104]	; (45b4 <_usb_d_dev_ep_read_req+0x70>)
    454c:	0143      	lsls	r3, r0, #5
    454e:	18d4      	adds	r4, r2, r3
    4550:	58d5      	ldr	r5, [r2, r3]
    4552:	6862      	ldr	r2, [r4, #4]
    4554:	f3c2 020d 	ubfx	r2, r2, #0, #14
    4558:	2802      	cmp	r0, #2
    455a:	d822      	bhi.n	45a2 <_usb_d_dev_ep_read_req+0x5e>
    455c:	b321      	cbz	r1, 45a8 <_usb_d_dev_ep_read_req+0x64>
    455e:	f100 0308 	add.w	r3, r0, #8
    4562:	015b      	lsls	r3, r3, #5
    4564:	f103 4382 	add.w	r3, r3, #1090519040	; 0x41000000
    4568:	781b      	ldrb	r3, [r3, #0]
    456a:	b2db      	uxtb	r3, r3
    456c:	2b11      	cmp	r3, #17
    456e:	d11e      	bne.n	45ae <_usb_d_dev_ep_read_req+0x6a>
    4570:	f100 0308 	add.w	r3, r0, #8
    4574:	015b      	lsls	r3, r3, #5
    4576:	f103 4382 	add.w	r3, r3, #1090519040	; 0x41000000
    457a:	79db      	ldrb	r3, [r3, #7]
    457c:	f013 0f10 	tst.w	r3, #16
    4580:	d102      	bne.n	4588 <_usb_d_dev_ep_read_req+0x44>
    4582:	2000      	movs	r0, #0
    4584:	bc30      	pop	{r4, r5}
    4586:	4770      	bx	lr
    4588:	682c      	ldr	r4, [r5, #0]
    458a:	686b      	ldr	r3, [r5, #4]
    458c:	600c      	str	r4, [r1, #0]
    458e:	604b      	str	r3, [r1, #4]
    4590:	f100 0308 	add.w	r3, r0, #8
    4594:	015b      	lsls	r3, r3, #5
    4596:	f103 4382 	add.w	r3, r3, #1090519040	; 0x41000000
    459a:	2110      	movs	r1, #16
    459c:	71d9      	strb	r1, [r3, #7]
    459e:	4610      	mov	r0, r2
    45a0:	e7f0      	b.n	4584 <_usb_d_dev_ep_read_req+0x40>
    45a2:	f06f 0011 	mvn.w	r0, #17
    45a6:	e7ed      	b.n	4584 <_usb_d_dev_ep_read_req+0x40>
    45a8:	f06f 0011 	mvn.w	r0, #17
    45ac:	e7ea      	b.n	4584 <_usb_d_dev_ep_read_req+0x40>
    45ae:	f06f 0012 	mvn.w	r0, #18
    45b2:	e7e7      	b.n	4584 <_usb_d_dev_ep_read_req+0x40>
    45b4:	200001f8 	.word	0x200001f8

000045b8 <_usb_d_dev_ep_trans>:
    45b8:	e92d 4ff0 	stmdb	sp!, {r4, r5, r6, r7, r8, r9, sl, fp, lr}
    45bc:	b085      	sub	sp, #20
    45be:	7a03      	ldrb	r3, [r0, #8]
    45c0:	fa4f f883 	sxtb.w	r8, r3
    45c4:	ea4f 79d8 	mov.w	r9, r8, lsr #31
    45c8:	f013 030f 	ands.w	r3, r3, #15
    45cc:	d006      	beq.n	45dc <_usb_d_dev_ep_trans+0x24>
    45ce:	f1b8 0f00 	cmp.w	r8, #0
    45d2:	db01      	blt.n	45d8 <_usb_d_dev_ep_trans+0x20>
    45d4:	461d      	mov	r5, r3
    45d6:	e002      	b.n	45de <_usb_d_dev_ep_trans+0x26>
    45d8:	1c9d      	adds	r5, r3, #2
    45da:	e000      	b.n	45de <_usb_d_dev_ep_trans+0x26>
    45dc:	461d      	mov	r5, r3
    45de:	462c      	mov	r4, r5
    45e0:	495c      	ldr	r1, [pc, #368]	; (4754 <_usb_d_dev_ep_trans+0x19c>)
    45e2:	f101 0660 	add.w	r6, r1, #96	; 0x60
    45e6:	00aa      	lsls	r2, r5, #2
    45e8:	1957      	adds	r7, r2, r5
    45ea:	ea4f 0e87 	mov.w	lr, r7, lsl #2
    45ee:	f10e 0e10 	add.w	lr, lr, #16
    45f2:	44b6      	add	lr, r6
    45f4:	f10e 0604 	add.w	r6, lr, #4
    45f8:	00bd      	lsls	r5, r7, #2
    45fa:	4429      	add	r1, r5
    45fc:	f8b1 2084 	ldrh.w	r2, [r1, #132]	; 0x84
    4600:	f240 31ff 	movw	r1, #1023	; 0x3ff
    4604:	428a      	cmp	r2, r1
    4606:	d03d      	beq.n	4684 <_usb_d_dev_ep_trans+0xcc>
    4608:	1e55      	subs	r5, r2, #1
    460a:	b2ad      	uxth	r5, r5
    460c:	6841      	ldr	r1, [r0, #4]
    460e:	400d      	ands	r5, r1
    4610:	2b02      	cmp	r3, #2
    4612:	f200 8095 	bhi.w	4740 <_usb_d_dev_ep_trans+0x188>
    4616:	6803      	ldr	r3, [r0, #0]
    4618:	f1b3 5f00 	cmp.w	r3, #536870912	; 0x20000000
    461c:	d30c      	bcc.n	4638 <_usb_d_dev_ep_trans+0x80>
    461e:	eb01 0e03 	add.w	lr, r1, r3
    4622:	4f4d      	ldr	r7, [pc, #308]	; (4758 <_usb_d_dev_ep_trans+0x1a0>)
    4624:	45be      	cmp	lr, r7
    4626:	d807      	bhi.n	4638 <_usb_d_dev_ep_trans+0x80>
    4628:	f013 0f03 	tst.w	r3, #3
    462c:	d104      	bne.n	4638 <_usb_d_dev_ep_trans+0x80>
    462e:	f1b8 0f00 	cmp.w	r8, #0
    4632:	db29      	blt.n	4688 <_usb_d_dev_ep_trans+0xd0>
    4634:	4291      	cmp	r1, r2
    4636:	d22a      	bcs.n	468e <_usb_d_dev_ep_trans+0xd6>
    4638:	eb04 0384 	add.w	r3, r4, r4, lsl #2
    463c:	009a      	lsls	r2, r3, #2
    463e:	4b45      	ldr	r3, [pc, #276]	; (4754 <_usb_d_dev_ep_trans+0x19c>)
    4640:	4413      	add	r3, r2
    4642:	f8d3 3080 	ldr.w	r3, [r3, #128]	; 0x80
    4646:	2b00      	cmp	r3, #0
    4648:	d07d      	beq.n	4746 <_usb_d_dev_ep_trans+0x18e>
    464a:	f04f 0a01 	mov.w	sl, #1
    464e:	f1b8 0f00 	cmp.w	r8, #0
    4652:	db09      	blt.n	4668 <_usb_d_dev_ep_trans+0xb0>
    4654:	b145      	cbz	r5, 4668 <_usb_d_dev_ep_trans+0xb0>
    4656:	eb04 0384 	add.w	r3, r4, r4, lsl #2
    465a:	009a      	lsls	r2, r3, #2
    465c:	4b3d      	ldr	r3, [pc, #244]	; (4754 <_usb_d_dev_ep_trans+0x19c>)
    465e:	4413      	add	r3, r2
    4660:	f8d3 3080 	ldr.w	r3, [r3, #128]	; 0x80
    4664:	2b00      	cmp	r3, #0
    4666:	d071      	beq.n	474c <_usb_d_dev_ep_trans+0x194>
    4668:	eb04 0384 	add.w	r3, r4, r4, lsl #2
    466c:	009a      	lsls	r2, r3, #2
    466e:	4b39      	ldr	r3, [pc, #228]	; (4754 <_usb_d_dev_ep_trans+0x19c>)
    4670:	4413      	add	r3, r2
    4672:	f893 3087 	ldrb.w	r3, [r3, #135]	; 0x87
    4676:	f013 0f08 	tst.w	r3, #8
    467a:	d00b      	beq.n	4694 <_usb_d_dev_ep_trans+0xdc>
    467c:	2002      	movs	r0, #2
    467e:	b005      	add	sp, #20
    4680:	e8bd 8ff0 	ldmia.w	sp!, {r4, r5, r6, r7, r8, r9, sl, fp, pc}
    4684:	4615      	mov	r5, r2
    4686:	e7c1      	b.n	460c <_usb_d_dev_ep_trans+0x54>
    4688:	f04f 0a00 	mov.w	sl, #0
    468c:	e7df      	b.n	464e <_usb_d_dev_ep_trans+0x96>
    468e:	f04f 0a00 	mov.w	sl, #0
    4692:	e7dc      	b.n	464e <_usb_d_dev_ep_trans+0x96>
    4694:	4607      	mov	r7, r0
    4696:	a803      	add	r0, sp, #12
    4698:	4b30      	ldr	r3, [pc, #192]	; (475c <_usb_d_dev_ep_trans+0x1a4>)
    469a:	4798      	blx	r3
    469c:	eb04 0384 	add.w	r3, r4, r4, lsl #2
    46a0:	009a      	lsls	r2, r3, #2
    46a2:	4b2c      	ldr	r3, [pc, #176]	; (4754 <_usb_d_dev_ep_trans+0x19c>)
    46a4:	4413      	add	r3, r2
    46a6:	f893 3087 	ldrb.w	r3, [r3, #135]	; 0x87
    46aa:	f013 0f40 	tst.w	r3, #64	; 0x40
    46ae:	d125      	bne.n	46fc <_usb_d_dev_ep_trans+0x144>
    46b0:	00a3      	lsls	r3, r4, #2
    46b2:	4423      	add	r3, r4
    46b4:	009a      	lsls	r2, r3, #2
    46b6:	4b27      	ldr	r3, [pc, #156]	; (4754 <_usb_d_dev_ep_trans+0x19c>)
    46b8:	eb03 0b02 	add.w	fp, r3, r2
    46bc:	f10b 0380 	add.w	r3, fp, #128	; 0x80
    46c0:	4619      	mov	r1, r3
    46c2:	79db      	ldrb	r3, [r3, #7]
    46c4:	f043 0340 	orr.w	r3, r3, #64	; 0x40
    46c8:	9101      	str	r1, [sp, #4]
    46ca:	71cb      	strb	r3, [r1, #7]
    46cc:	a803      	add	r0, sp, #12
    46ce:	4b24      	ldr	r3, [pc, #144]	; (4760 <_usb_d_dev_ep_trans+0x1a8>)
    46d0:	4798      	blx	r3
    46d2:	683b      	ldr	r3, [r7, #0]
    46d4:	f8cb 3074 	str.w	r3, [fp, #116]	; 0x74
    46d8:	687b      	ldr	r3, [r7, #4]
    46da:	f8cb 3078 	str.w	r3, [fp, #120]	; 0x78
    46de:	2300      	movs	r3, #0
    46e0:	f8cb 307c 	str.w	r3, [fp, #124]	; 0x7c
    46e4:	9901      	ldr	r1, [sp, #4]
    46e6:	79cb      	ldrb	r3, [r1, #7]
    46e8:	f369 13c7 	bfi	r3, r9, #7, #1
    46ec:	f36a 1345 	bfi	r3, sl, #5, #1
    46f0:	71cb      	strb	r3, [r1, #7]
    46f2:	7a7b      	ldrb	r3, [r7, #9]
    46f4:	b13b      	cbz	r3, 4706 <_usb_d_dev_ep_trans+0x14e>
    46f6:	b1dd      	cbz	r5, 4730 <_usb_d_dev_ep_trans+0x178>
    46f8:	2100      	movs	r1, #0
    46fa:	e005      	b.n	4708 <_usb_d_dev_ep_trans+0x150>
    46fc:	a803      	add	r0, sp, #12
    46fe:	4b18      	ldr	r3, [pc, #96]	; (4760 <_usb_d_dev_ep_trans+0x1a8>)
    4700:	4798      	blx	r3
    4702:	2001      	movs	r0, #1
    4704:	e7bb      	b.n	467e <_usb_d_dev_ep_trans+0xc6>
    4706:	2100      	movs	r1, #0
    4708:	eb04 0484 	add.w	r4, r4, r4, lsl #2
    470c:	00a2      	lsls	r2, r4, #2
    470e:	4b11      	ldr	r3, [pc, #68]	; (4754 <_usb_d_dev_ep_trans+0x19c>)
    4710:	4413      	add	r3, r2
    4712:	f893 2087 	ldrb.w	r2, [r3, #135]	; 0x87
    4716:	f361 1204 	bfi	r2, r1, #4, #1
    471a:	f883 2087 	strb.w	r2, [r3, #135]	; 0x87
    471e:	f1b8 0f00 	cmp.w	r8, #0
    4722:	db07      	blt.n	4734 <_usb_d_dev_ep_trans+0x17c>
    4724:	2100      	movs	r1, #0
    4726:	4630      	mov	r0, r6
    4728:	4b0e      	ldr	r3, [pc, #56]	; (4764 <_usb_d_dev_ep_trans+0x1ac>)
    472a:	4798      	blx	r3
    472c:	2000      	movs	r0, #0
    472e:	e7a6      	b.n	467e <_usb_d_dev_ep_trans+0xc6>
    4730:	2101      	movs	r1, #1
    4732:	e7e9      	b.n	4708 <_usb_d_dev_ep_trans+0x150>
    4734:	2100      	movs	r1, #0
    4736:	4630      	mov	r0, r6
    4738:	4b0b      	ldr	r3, [pc, #44]	; (4768 <_usb_d_dev_ep_trans+0x1b0>)
    473a:	4798      	blx	r3
    473c:	2000      	movs	r0, #0
    473e:	e79e      	b.n	467e <_usb_d_dev_ep_trans+0xc6>
    4740:	f06f 0011 	mvn.w	r0, #17
    4744:	e79b      	b.n	467e <_usb_d_dev_ep_trans+0xc6>
    4746:	f06f 0012 	mvn.w	r0, #18
    474a:	e798      	b.n	467e <_usb_d_dev_ep_trans+0xc6>
    474c:	f06f 0011 	mvn.w	r0, #17
    4750:	e795      	b.n	467e <_usb_d_dev_ep_trans+0xc6>
    4752:	bf00      	nop
    4754:	200001f8 	.word	0x200001f8
    4758:	20041fff 	.word	0x20041fff
    475c:	00000e51 	.word	0x00000e51
    4760:	00000e5f 	.word	0x00000e5f
    4764:	000039b1 	.word	0x000039b1
    4768:	0000384d 	.word	0x0000384d

0000476c <_usb_d_dev_register_callback>:
    476c:	460b      	mov	r3, r1
    476e:	b129      	cbz	r1, 477c <_usb_d_dev_register_callback+0x10>
    4770:	2801      	cmp	r0, #1
    4772:	d005      	beq.n	4780 <_usb_d_dev_register_callback+0x14>
    4774:	b908      	cbnz	r0, 477a <_usb_d_dev_register_callback+0xe>
    4776:	4a04      	ldr	r2, [pc, #16]	; (4788 <_usb_d_dev_register_callback+0x1c>)
    4778:	6613      	str	r3, [r2, #96]	; 0x60
    477a:	4770      	bx	lr
    477c:	4b03      	ldr	r3, [pc, #12]	; (478c <_usb_d_dev_register_callback+0x20>)
    477e:	e7f7      	b.n	4770 <_usb_d_dev_register_callback+0x4>
    4780:	4a01      	ldr	r2, [pc, #4]	; (4788 <_usb_d_dev_register_callback+0x1c>)
    4782:	6653      	str	r3, [r2, #100]	; 0x64
    4784:	4770      	bx	lr
    4786:	bf00      	nop
    4788:	200001f8 	.word	0x200001f8
    478c:	00003535 	.word	0x00003535

00004790 <_usb_d_dev_register_ep_callback>:
    4790:	460b      	mov	r3, r1
    4792:	b129      	cbz	r1, 47a0 <_usb_d_dev_register_ep_callback+0x10>
    4794:	b130      	cbz	r0, 47a4 <_usb_d_dev_register_ep_callback+0x14>
    4796:	2801      	cmp	r0, #1
    4798:	d007      	beq.n	47aa <_usb_d_dev_register_ep_callback+0x1a>
    479a:	2802      	cmp	r0, #2
    479c:	d008      	beq.n	47b0 <_usb_d_dev_register_ep_callback+0x20>
    479e:	4770      	bx	lr
    47a0:	4b05      	ldr	r3, [pc, #20]	; (47b8 <_usb_d_dev_register_ep_callback+0x28>)
    47a2:	e7f7      	b.n	4794 <_usb_d_dev_register_ep_callback+0x4>
    47a4:	4a05      	ldr	r2, [pc, #20]	; (47bc <_usb_d_dev_register_ep_callback+0x2c>)
    47a6:	6693      	str	r3, [r2, #104]	; 0x68
    47a8:	4770      	bx	lr
    47aa:	4a04      	ldr	r2, [pc, #16]	; (47bc <_usb_d_dev_register_ep_callback+0x2c>)
    47ac:	66d3      	str	r3, [r2, #108]	; 0x6c
    47ae:	4770      	bx	lr
    47b0:	4a02      	ldr	r2, [pc, #8]	; (47bc <_usb_d_dev_register_ep_callback+0x2c>)
    47b2:	6713      	str	r3, [r2, #112]	; 0x70
    47b4:	e7f3      	b.n	479e <_usb_d_dev_register_ep_callback+0xe>
    47b6:	bf00      	nop
    47b8:	00003535 	.word	0x00003535
    47bc:	200001f8 	.word	0x200001f8

000047c0 <USB_0_Handler>:
    47c0:	b508      	push	{r3, lr}
    47c2:	4b01      	ldr	r3, [pc, #4]	; (47c8 <USB_0_Handler+0x8>)
    47c4:	4798      	blx	r3
    47c6:	bd08      	pop	{r3, pc}
    47c8:	00003b71 	.word	0x00003b71

000047cc <USB_1_Handler>:
    47cc:	b508      	push	{r3, lr}
    47ce:	4b01      	ldr	r3, [pc, #4]	; (47d4 <USB_1_Handler+0x8>)
    47d0:	4798      	blx	r3
    47d2:	bd08      	pop	{r3, pc}
    47d4:	00003b71 	.word	0x00003b71

000047d8 <USB_2_Handler>:
    47d8:	b508      	push	{r3, lr}
    47da:	4b01      	ldr	r3, [pc, #4]	; (47e0 <USB_2_Handler+0x8>)
    47dc:	4798      	blx	r3
    47de:	bd08      	pop	{r3, pc}
    47e0:	00003b71 	.word	0x00003b71

000047e4 <USB_3_Handler>:
    47e4:	b508      	push	{r3, lr}
    47e6:	4b01      	ldr	r3, [pc, #4]	; (47ec <USB_3_Handler+0x8>)
    47e8:	4798      	blx	r3
    47ea:	bd08      	pop	{r3, pc}
    47ec:	00003b71 	.word	0x00003b71

000047f0 <IMU_writeRegister>:
    47f0:	b530      	push	{r4, r5, lr}
    47f2:	b083      	sub	sp, #12
    47f4:	4605      	mov	r5, r0
    47f6:	460c      	mov	r4, r1
    47f8:	f44f 6200 	mov.w	r2, #2048	; 0x800
    47fc:	2118      	movs	r1, #24
    47fe:	4807      	ldr	r0, [pc, #28]	; (481c <IMU_writeRegister+0x2c>)
    4800:	4b07      	ldr	r3, [pc, #28]	; (4820 <IMU_writeRegister+0x30>)
    4802:	4798      	blx	r3
    4804:	f88d 5004 	strb.w	r5, [sp, #4]
    4808:	f88d 4005 	strb.w	r4, [sp, #5]
    480c:	2202      	movs	r2, #2
    480e:	a901      	add	r1, sp, #4
    4810:	4b04      	ldr	r3, [pc, #16]	; (4824 <IMU_writeRegister+0x34>)
    4812:	6818      	ldr	r0, [r3, #0]
    4814:	4b04      	ldr	r3, [pc, #16]	; (4828 <IMU_writeRegister+0x38>)
    4816:	4798      	blx	r3
    4818:	b003      	add	sp, #12
    481a:	bd30      	pop	{r4, r5, pc}
    481c:	20000600 	.word	0x20000600
    4820:	000010c1 	.word	0x000010c1
    4824:	200003e0 	.word	0x200003e0
    4828:	00001129 	.word	0x00001129

0000482c <IMU_readRegister>:
    482c:	b530      	push	{r4, r5, lr}
    482e:	b083      	sub	sp, #12
    4830:	4605      	mov	r5, r0
    4832:	4c09      	ldr	r4, [pc, #36]	; (4858 <IMU_readRegister+0x2c>)
    4834:	f44f 6200 	mov.w	r2, #2048	; 0x800
    4838:	2118      	movs	r1, #24
    483a:	4620      	mov	r0, r4
    483c:	4b07      	ldr	r3, [pc, #28]	; (485c <IMU_readRegister+0x30>)
    483e:	4798      	blx	r3
    4840:	2301      	movs	r3, #1
    4842:	f10d 0207 	add.w	r2, sp, #7
    4846:	4629      	mov	r1, r5
    4848:	4620      	mov	r0, r4
    484a:	4c05      	ldr	r4, [pc, #20]	; (4860 <IMU_readRegister+0x34>)
    484c:	47a0      	blx	r4
    484e:	f89d 0007 	ldrb.w	r0, [sp, #7]
    4852:	b003      	add	sp, #12
    4854:	bd30      	pop	{r4, r5, pc}
    4856:	bf00      	nop
    4858:	20000600 	.word	0x20000600
    485c:	000010c1 	.word	0x000010c1
    4860:	000010d1 	.word	0x000010d1

00004864 <IMU_init>:
    4864:	b538      	push	{r3, r4, r5, lr}
    4866:	4c19      	ldr	r4, [pc, #100]	; (48cc <IMU_init+0x68>)
    4868:	4919      	ldr	r1, [pc, #100]	; (48d0 <IMU_init+0x6c>)
    486a:	4620      	mov	r0, r4
    486c:	4b19      	ldr	r3, [pc, #100]	; (48d4 <IMU_init+0x70>)
    486e:	4798      	blx	r3
    4870:	4620      	mov	r0, r4
    4872:	4b19      	ldr	r3, [pc, #100]	; (48d8 <IMU_init+0x74>)
    4874:	4798      	blx	r3
    4876:	f44f 6200 	mov.w	r2, #2048	; 0x800
    487a:	2118      	movs	r1, #24
    487c:	4620      	mov	r0, r4
    487e:	4b17      	ldr	r3, [pc, #92]	; (48dc <IMU_init+0x78>)
    4880:	4798      	blx	r3
    4882:	2180      	movs	r1, #128	; 0x80
    4884:	2024      	movs	r0, #36	; 0x24
    4886:	4c16      	ldr	r4, [pc, #88]	; (48e0 <IMU_init+0x7c>)
    4888:	47a0      	blx	r4
    488a:	200a      	movs	r0, #10
    488c:	4d15      	ldr	r5, [pc, #84]	; (48e4 <IMU_init+0x80>)
    488e:	47a8      	blx	r5
    4890:	215f      	movs	r1, #95	; 0x5f
    4892:	2020      	movs	r0, #32
    4894:	47a0      	blx	r4
    4896:	2109      	movs	r1, #9
    4898:	2021      	movs	r0, #33	; 0x21
    489a:	47a0      	blx	r4
    489c:	2140      	movs	r1, #64	; 0x40
    489e:	2022      	movs	r0, #34	; 0x22
    48a0:	47a0      	blx	r4
    48a2:	2100      	movs	r1, #0
    48a4:	2023      	movs	r0, #35	; 0x23
    48a6:	47a0      	blx	r4
    48a8:	2108      	movs	r1, #8
    48aa:	2024      	movs	r0, #36	; 0x24
    48ac:	47a0      	blx	r4
    48ae:	2110      	movs	r1, #16
    48b0:	2032      	movs	r0, #50	; 0x32
    48b2:	47a0      	blx	r4
    48b4:	2100      	movs	r1, #0
    48b6:	2033      	movs	r0, #51	; 0x33
    48b8:	47a0      	blx	r4
    48ba:	2026      	movs	r0, #38	; 0x26
    48bc:	4b0a      	ldr	r3, [pc, #40]	; (48e8 <IMU_init+0x84>)
    48be:	4798      	blx	r3
    48c0:	212a      	movs	r1, #42	; 0x2a
    48c2:	2030      	movs	r0, #48	; 0x30
    48c4:	47a0      	blx	r4
    48c6:	200a      	movs	r0, #10
    48c8:	47a8      	blx	r5
    48ca:	bd38      	pop	{r3, r4, r5, pc}
    48cc:	20000600 	.word	0x20000600
    48d0:	200003e0 	.word	0x200003e0
    48d4:	00001121 	.word	0x00001121
    48d8:	000010b5 	.word	0x000010b5
    48dc:	000010c1 	.word	0x000010c1
    48e0:	000047f1 	.word	0x000047f1
    48e4:	00000f21 	.word	0x00000f21
    48e8:	0000482d 	.word	0x0000482d

000048ec <MCU_low_power_mode>:


/* Funciones para entrar y salir de modo bajo consumo */

void MCU_low_power_mode(void )
{
    48ec:	b538      	push	{r3, r4, r5, lr}
	((Port *)hw)->Group[submodule_index].OUTTGL.reg = PORT_OUT_OUT(mask);
}

static inline void hri_port_set_OUT_reg(const void *const hw, uint8_t submodule_index, hri_port_out_reg_t mask)
{
	((Port *)hw)->Group[submodule_index].OUTSET.reg = mask;
    48ee:	4c0e      	ldr	r4, [pc, #56]	; (4928 <MCU_low_power_mode+0x3c>)
    48f0:	f44f 2380 	mov.w	r3, #262144	; 0x40000
    48f4:	61a3      	str	r3, [r4, #24]
    48f6:	f44f 2500 	mov.w	r5, #524288	; 0x80000
    48fa:	61a5      	str	r5, [r4, #24]
    48fc:	f44f 1380 	mov.w	r3, #1048576	; 0x100000
    4900:	61a3      	str	r3, [r4, #24]
	
	gpio_set_pin_level(LED0, true);
	gpio_set_pin_level(LED1, true);
	gpio_set_pin_level(LED2, true);
	
	ble_send("AT+SLEEP");
    4902:	480a      	ldr	r0, [pc, #40]	; (492c <MCU_low_power_mode+0x40>)
    4904:	4b0a      	ldr	r3, [pc, #40]	; (4930 <MCU_low_power_mode+0x44>)
    4906:	4798      	blx	r3
	((Port *)hw)->Group[submodule_index].OUTCLR.reg = ~data;
}

static inline void hri_port_clear_OUT_reg(const void *const hw, uint8_t submodule_index, hri_port_out_reg_t mask)
{
	((Port *)hw)->Group[submodule_index].OUTCLR.reg = mask;
    4908:	2380      	movs	r3, #128	; 0x80
    490a:	f8c4 3094 	str.w	r3, [r4, #148]	; 0x94
	
	//simcom_send("AT+CPOF");	// Apaga completamente el simcom
	gpio_set_pin_level(GPRS_PEN, false);		// Alimentacion a antena gps
	
	spi_write_reg(0x0F,0x27);	// Sleep mode en chip SPI-CAN
    490e:	2127      	movs	r1, #39	; 0x27
    4910:	200f      	movs	r0, #15
    4912:	4b08      	ldr	r3, [pc, #32]	; (4934 <MCU_low_power_mode+0x48>)
    4914:	4798      	blx	r3
	((Port *)hw)->Group[submodule_index].OUTSET.reg = mask;
    4916:	61a5      	str	r5, [r4, #24]
	//	gpio_set_pin_level(LED1, false);
	//	delay_ms(100);
	//}
	gpio_set_pin_level(LED1, true);
	//ext_irq_enable(INT_ACC);
	delay_ms(20);
    4918:	2014      	movs	r0, #20
    491a:	4b07      	ldr	r3, [pc, #28]	; (4938 <MCU_low_power_mode+0x4c>)
    491c:	4798      	blx	r3
	sleep(4); // 2:Idle 4:Standby 5:Hibernate 6:Backup 7:Off
    491e:	2004      	movs	r0, #4
    4920:	4b06      	ldr	r3, [pc, #24]	; (493c <MCU_low_power_mode+0x50>)
    4922:	4798      	blx	r3
    4924:	bd38      	pop	{r3, r4, r5, pc}
    4926:	bf00      	nop
    4928:	41008000 	.word	0x41008000
    492c:	0000650c 	.word	0x0000650c
    4930:	00000335 	.word	0x00000335
    4934:	000053cd 	.word	0x000053cd
    4938:	00000f21 	.word	0x00000f21
    493c:	00001191 	.word	0x00001191

00004940 <SPI_0_test>:
 */
static uint8_t test_SPI_0[2] = {0x03, 0x0F};


void SPI_0_test(void)
{
    4940:	b570      	push	{r4, r5, r6, lr}
    4942:	b084      	sub	sp, #16
	struct io_descriptor *io;
	spi_m_sync_get_io_descriptor(&SPI_0, &io);
    4944:	4c1b      	ldr	r4, [pc, #108]	; (49b4 <SPI_0_test+0x74>)
    4946:	a903      	add	r1, sp, #12
    4948:	4620      	mov	r0, r4
    494a:	4b1b      	ldr	r3, [pc, #108]	; (49b8 <SPI_0_test+0x78>)
    494c:	4798      	blx	r3
	spi_m_sync_enable(&SPI_0);
    494e:	4620      	mov	r0, r4
    4950:	4b1a      	ldr	r3, [pc, #104]	; (49bc <SPI_0_test+0x7c>)
    4952:	4798      	blx	r3
	
	char buffer[1] = {0};
    4954:	2300      	movs	r3, #0
    4956:	f88d 3008 	strb.w	r3, [sp, #8]
	((Port *)hw)->Group[submodule_index].OUTCLR.reg = mask;
    495a:	4c19      	ldr	r4, [pc, #100]	; (49c0 <SPI_0_test+0x80>)
    495c:	f44f 4580 	mov.w	r5, #16384	; 0x4000
    4960:	6165      	str	r5, [r4, #20]
	gpio_set_pin_level(SPI_CS0, false);
	io_write(io, test_SPI_0, 2);
    4962:	2202      	movs	r2, #2
    4964:	4917      	ldr	r1, [pc, #92]	; (49c4 <SPI_0_test+0x84>)
    4966:	9803      	ldr	r0, [sp, #12]
    4968:	4b17      	ldr	r3, [pc, #92]	; (49c8 <SPI_0_test+0x88>)
    496a:	4798      	blx	r3
	io_read(io, buffer, 1);
    496c:	2201      	movs	r2, #1
    496e:	a902      	add	r1, sp, #8
    4970:	9803      	ldr	r0, [sp, #12]
    4972:	4b16      	ldr	r3, [pc, #88]	; (49cc <SPI_0_test+0x8c>)
    4974:	4798      	blx	r3
	((Port *)hw)->Group[submodule_index].OUTSET.reg = mask;
    4976:	61a5      	str	r5, [r4, #24]
	gpio_set_pin_level(SPI_CS0, true);
	char is87 = (*buffer == 0x87)? 'y' : 'n';
    4978:	f89d 3008 	ldrb.w	r3, [sp, #8]
    497c:	2b87      	cmp	r3, #135	; 0x87
    497e:	d017      	beq.n	49b0 <SPI_0_test+0x70>
    4980:	236e      	movs	r3, #110	; 0x6e
    4982:	ac04      	add	r4, sp, #16
    4984:	f804 3d09 	strb.w	r3, [r4, #-9]!
	usb_serial_write("Received: ", strlen("Received: "));
    4988:	210a      	movs	r1, #10
    498a:	4811      	ldr	r0, [pc, #68]	; (49d0 <SPI_0_test+0x90>)
    498c:	4d11      	ldr	r5, [pc, #68]	; (49d4 <SPI_0_test+0x94>)
    498e:	47a8      	blx	r5
	delay_ms(10);
    4990:	200a      	movs	r0, #10
    4992:	4e11      	ldr	r6, [pc, #68]	; (49d8 <SPI_0_test+0x98>)
    4994:	47b0      	blx	r6
	usb_serial_write(&is87, strlen(&is87));
    4996:	4620      	mov	r0, r4
    4998:	4b10      	ldr	r3, [pc, #64]	; (49dc <SPI_0_test+0x9c>)
    499a:	4798      	blx	r3
    499c:	b281      	uxth	r1, r0
    499e:	4620      	mov	r0, r4
    49a0:	47a8      	blx	r5
	delay_ms(10);
    49a2:	200a      	movs	r0, #10
    49a4:	47b0      	blx	r6
	usb_serial_write("\n", strlen("\n"));
    49a6:	2101      	movs	r1, #1
    49a8:	480d      	ldr	r0, [pc, #52]	; (49e0 <SPI_0_test+0xa0>)
    49aa:	47a8      	blx	r5
}
    49ac:	b004      	add	sp, #16
    49ae:	bd70      	pop	{r4, r5, r6, pc}
	char is87 = (*buffer == 0x87)? 'y' : 'n';
    49b0:	2379      	movs	r3, #121	; 0x79
    49b2:	e7e6      	b.n	4982 <SPI_0_test+0x42>
    49b4:	20000548 	.word	0x20000548
    49b8:	000012e9 	.word	0x000012e9
    49bc:	00001205 	.word	0x00001205
    49c0:	41008000 	.word	0x41008000
    49c4:	20000014 	.word	0x20000014
    49c8:	00001129 	.word	0x00001129
    49cc:	0000115d 	.word	0x0000115d
    49d0:	00006520 	.word	0x00006520
    49d4:	0000619d 	.word	0x0000619d
    49d8:	00000f21 	.word	0x00000f21
    49dc:	00006249 	.word	0x00006249
    49e0:	000066b8 	.word	0x000066b8

000049e4 <SPI_0_test1>:

static uint8_t test_SPI_1[3] = {0x02, 0x0F, 0x07};

void SPI_0_test1(void)
{
    49e4:	b530      	push	{r4, r5, lr}
    49e6:	b083      	sub	sp, #12
	struct io_descriptor *io;
	spi_m_sync_get_io_descriptor(&SPI_0, &io);
    49e8:	4c09      	ldr	r4, [pc, #36]	; (4a10 <SPI_0_test1+0x2c>)
    49ea:	a901      	add	r1, sp, #4
    49ec:	4620      	mov	r0, r4
    49ee:	4b09      	ldr	r3, [pc, #36]	; (4a14 <SPI_0_test1+0x30>)
    49f0:	4798      	blx	r3
	spi_m_sync_enable(&SPI_0);
    49f2:	4620      	mov	r0, r4
    49f4:	4b08      	ldr	r3, [pc, #32]	; (4a18 <SPI_0_test1+0x34>)
    49f6:	4798      	blx	r3
	((Port *)hw)->Group[submodule_index].OUTCLR.reg = mask;
    49f8:	4c08      	ldr	r4, [pc, #32]	; (4a1c <SPI_0_test1+0x38>)
    49fa:	f44f 4580 	mov.w	r5, #16384	; 0x4000
    49fe:	6165      	str	r5, [r4, #20]
	
	char buffer[1] = {0};
	gpio_set_pin_level(SPI_CS0, false);
	io_write(io, test_SPI_1, 3);
    4a00:	2203      	movs	r2, #3
    4a02:	4907      	ldr	r1, [pc, #28]	; (4a20 <SPI_0_test1+0x3c>)
    4a04:	9801      	ldr	r0, [sp, #4]
    4a06:	4b07      	ldr	r3, [pc, #28]	; (4a24 <SPI_0_test1+0x40>)
    4a08:	4798      	blx	r3
	((Port *)hw)->Group[submodule_index].OUTSET.reg = mask;
    4a0a:	61a5      	str	r5, [r4, #24]
	gpio_set_pin_level(SPI_CS0, true);
}
    4a0c:	b003      	add	sp, #12
    4a0e:	bd30      	pop	{r4, r5, pc}
    4a10:	20000548 	.word	0x20000548
    4a14:	000012e9 	.word	0x000012e9
    4a18:	00001205 	.word	0x00001205
    4a1c:	41008000 	.word	0x41008000
    4a20:	20000018 	.word	0x20000018
    4a24:	00001129 	.word	0x00001129

00004a28 <simcom_gprs_connect>:
 
 
 // Conectar GPRS
 uint8_t simcom_gprs_connect(void)
 {
    4a28:	b530      	push	{r4, r5, lr}
    4a2a:	b091      	sub	sp, #68	; 0x44
	 char rec_buffer[64] = {0};
    4a2c:	2240      	movs	r2, #64	; 0x40
    4a2e:	2100      	movs	r1, #0
    4a30:	4668      	mov	r0, sp
    4a32:	4b2a      	ldr	r3, [pc, #168]	; (4adc <simcom_gprs_connect+0xb4>)
    4a34:	4798      	blx	r3
	 simcom_send_and_receive("ATE0\r", rec_buffer);	// Desactivar echo
    4a36:	4669      	mov	r1, sp
    4a38:	4829      	ldr	r0, [pc, #164]	; (4ae0 <simcom_gprs_connect+0xb8>)
    4a3a:	4d2a      	ldr	r5, [pc, #168]	; (4ae4 <simcom_gprs_connect+0xbc>)
    4a3c:	47a8      	blx	r5
	 delay_ms(100);
    4a3e:	2064      	movs	r0, #100	; 0x64
    4a40:	4c29      	ldr	r4, [pc, #164]	; (4ae8 <simcom_gprs_connect+0xc0>)
    4a42:	47a0      	blx	r4
	 simcom_send_and_receive("AT+CPIN?\r", rec_buffer);	// Check tarjeta SIM
    4a44:	4669      	mov	r1, sp
    4a46:	4829      	ldr	r0, [pc, #164]	; (4aec <simcom_gprs_connect+0xc4>)
    4a48:	47a8      	blx	r5
	 delay_ms(100);
    4a4a:	2064      	movs	r0, #100	; 0x64
    4a4c:	47a0      	blx	r4
	 usb_serial_write("Received: ", strlen("Received: "));
    4a4e:	210a      	movs	r1, #10
    4a50:	4827      	ldr	r0, [pc, #156]	; (4af0 <simcom_gprs_connect+0xc8>)
    4a52:	4d28      	ldr	r5, [pc, #160]	; (4af4 <simcom_gprs_connect+0xcc>)
    4a54:	47a8      	blx	r5
	 delay_ms(10);
    4a56:	200a      	movs	r0, #10
    4a58:	47a0      	blx	r4
	 usb_serial_write(rec_buffer, strlen(rec_buffer));
    4a5a:	4668      	mov	r0, sp
    4a5c:	4b26      	ldr	r3, [pc, #152]	; (4af8 <simcom_gprs_connect+0xd0>)
    4a5e:	4798      	blx	r3
    4a60:	b281      	uxth	r1, r0
    4a62:	4668      	mov	r0, sp
    4a64:	47a8      	blx	r5
	 delay_ms(10);
    4a66:	200a      	movs	r0, #10
    4a68:	47a0      	blx	r4
	 usb_serial_write("\n", strlen("\n"));
    4a6a:	2101      	movs	r1, #1
    4a6c:	4823      	ldr	r0, [pc, #140]	; (4afc <simcom_gprs_connect+0xd4>)
    4a6e:	47a8      	blx	r5
	 if (strncmp(rec_buffer, "\n+CPIN: READY", 12) != 0)
    4a70:	220c      	movs	r2, #12
    4a72:	4923      	ldr	r1, [pc, #140]	; (4b00 <simcom_gprs_connect+0xd8>)
    4a74:	4668      	mov	r0, sp
    4a76:	4b23      	ldr	r3, [pc, #140]	; (4b04 <simcom_gprs_connect+0xdc>)
    4a78:	4798      	blx	r3
    4a7a:	b110      	cbz	r0, 4a82 <simcom_gprs_connect+0x5a>
		return 1;
    4a7c:	2001      	movs	r0, #1
	delay_ms(100);
	simcom_send_and_receive("AT+CGACT=1,1", rec_buffer);
	delay_ms(100);
	
	return 0;
 }
    4a7e:	b011      	add	sp, #68	; 0x44
    4a80:	bd30      	pop	{r4, r5, pc}
	usb_serial_write("PASSED", strlen("PASSED"));
    4a82:	2106      	movs	r1, #6
    4a84:	4820      	ldr	r0, [pc, #128]	; (4b08 <simcom_gprs_connect+0xe0>)
    4a86:	47a8      	blx	r5
	simcom_send_and_receive("AT+CGREG?", rec_buffer);	// check the registration status of the device
    4a88:	4669      	mov	r1, sp
    4a8a:	4820      	ldr	r0, [pc, #128]	; (4b0c <simcom_gprs_connect+0xe4>)
    4a8c:	4d15      	ldr	r5, [pc, #84]	; (4ae4 <simcom_gprs_connect+0xbc>)
    4a8e:	47a8      	blx	r5
	delay_ms(100);
    4a90:	2064      	movs	r0, #100	; 0x64
    4a92:	47a0      	blx	r4
	simcom_send_and_receive("AT+COPS?", rec_buffer);	// get the network information
    4a94:	4669      	mov	r1, sp
    4a96:	481e      	ldr	r0, [pc, #120]	; (4b10 <simcom_gprs_connect+0xe8>)
    4a98:	47a8      	blx	r5
	delay_ms(100);
    4a9a:	2064      	movs	r0, #100	; 0x64
    4a9c:	47a0      	blx	r4
	simcom_send_and_receive("AT+CSQ", rec_buffer);	// get the signal quality
    4a9e:	4669      	mov	r1, sp
    4aa0:	481c      	ldr	r0, [pc, #112]	; (4b14 <simcom_gprs_connect+0xec>)
    4aa2:	47a8      	blx	r5
	delay_ms(100);
    4aa4:	2064      	movs	r0, #100	; 0x64
    4aa6:	47a0      	blx	r4
	simcom_send_and_receive("AT+cgatt=1", rec_buffer);	// GPRS Attach
    4aa8:	4669      	mov	r1, sp
    4aaa:	481b      	ldr	r0, [pc, #108]	; (4b18 <simcom_gprs_connect+0xf0>)
    4aac:	47a8      	blx	r5
	delay_ms(100);
    4aae:	2064      	movs	r0, #100	; 0x64
    4ab0:	47a0      	blx	r4
	if (strncmp(rec_buffer, "OK", 2) != 0)
    4ab2:	2202      	movs	r2, #2
    4ab4:	4919      	ldr	r1, [pc, #100]	; (4b1c <simcom_gprs_connect+0xf4>)
    4ab6:	4668      	mov	r0, sp
    4ab8:	4b12      	ldr	r3, [pc, #72]	; (4b04 <simcom_gprs_connect+0xdc>)
    4aba:	4798      	blx	r3
    4abc:	b108      	cbz	r0, 4ac2 <simcom_gprs_connect+0x9a>
		return 1;
    4abe:	2001      	movs	r0, #1
    4ac0:	e7dd      	b.n	4a7e <simcom_gprs_connect+0x56>
	simcom_send_and_receive("AT+CGDCONT=1,\"IP\",\"iot.secure\"", rec_buffer);
    4ac2:	4669      	mov	r1, sp
    4ac4:	4816      	ldr	r0, [pc, #88]	; (4b20 <simcom_gprs_connect+0xf8>)
    4ac6:	47a8      	blx	r5
	delay_ms(100);
    4ac8:	2064      	movs	r0, #100	; 0x64
    4aca:	47a0      	blx	r4
	simcom_send_and_receive("AT+CGACT=1,1", rec_buffer);
    4acc:	4669      	mov	r1, sp
    4ace:	4815      	ldr	r0, [pc, #84]	; (4b24 <simcom_gprs_connect+0xfc>)
    4ad0:	47a8      	blx	r5
	delay_ms(100);
    4ad2:	2064      	movs	r0, #100	; 0x64
    4ad4:	47a0      	blx	r4
	return 0;
    4ad6:	2000      	movs	r0, #0
    4ad8:	e7d1      	b.n	4a7e <simcom_gprs_connect+0x56>
    4ada:	bf00      	nop
    4adc:	00006207 	.word	0x00006207
    4ae0:	0000652c 	.word	0x0000652c
    4ae4:	00005321 	.word	0x00005321
    4ae8:	00000f21 	.word	0x00000f21
    4aec:	00006534 	.word	0x00006534
    4af0:	00006520 	.word	0x00006520
    4af4:	0000619d 	.word	0x0000619d
    4af8:	00006249 	.word	0x00006249
    4afc:	000066b8 	.word	0x000066b8
    4b00:	00006540 	.word	0x00006540
    4b04:	00006259 	.word	0x00006259
    4b08:	00006550 	.word	0x00006550
    4b0c:	00006558 	.word	0x00006558
    4b10:	00006564 	.word	0x00006564
    4b14:	00006570 	.word	0x00006570
    4b18:	00006578 	.word	0x00006578
    4b1c:	00006584 	.word	0x00006584
    4b20:	00006588 	.word	0x00006588
    4b24:	000065a8 	.word	0x000065a8

00004b28 <usb_read_routine>:
{
    4b28:	b570      	push	{r4, r5, r6, lr}
    4b2a:	b0a2      	sub	sp, #136	; 0x88
	if (usb_serial_bytes_available() > 0)
    4b2c:	4b93      	ldr	r3, [pc, #588]	; (4d7c <usb_read_routine+0x254>)
    4b2e:	4798      	blx	r3
    4b30:	2800      	cmp	r0, #0
    4b32:	dd62      	ble.n	4bfa <usb_read_routine+0xd2>
		char inbuffer[USB_COMMS_LENGTH] = {0};
    4b34:	2440      	movs	r4, #64	; 0x40
    4b36:	4622      	mov	r2, r4
    4b38:	2100      	movs	r1, #0
    4b3a:	a802      	add	r0, sp, #8
    4b3c:	4b90      	ldr	r3, [pc, #576]	; (4d80 <usb_read_routine+0x258>)
    4b3e:	4798      	blx	r3
		usb_serial_read(inbuffer, buffer_length);
    4b40:	4621      	mov	r1, r4
    4b42:	a802      	add	r0, sp, #8
    4b44:	4b8f      	ldr	r3, [pc, #572]	; (4d84 <usb_read_routine+0x25c>)
    4b46:	4798      	blx	r3
		if (strcmp(inbuffer, "info") == 0)
    4b48:	498f      	ldr	r1, [pc, #572]	; (4d88 <usb_read_routine+0x260>)
    4b4a:	a802      	add	r0, sp, #8
    4b4c:	4b8f      	ldr	r3, [pc, #572]	; (4d8c <usb_read_routine+0x264>)
    4b4e:	4798      	blx	r3
    4b50:	2800      	cmp	r0, #0
    4b52:	d04e      	beq.n	4bf2 <usb_read_routine+0xca>
		else if (strcmp(inbuffer, "bankswap") == 0)
    4b54:	498e      	ldr	r1, [pc, #568]	; (4d90 <usb_read_routine+0x268>)
    4b56:	a802      	add	r0, sp, #8
    4b58:	4b8c      	ldr	r3, [pc, #560]	; (4d8c <usb_read_routine+0x264>)
    4b5a:	4798      	blx	r3
    4b5c:	2800      	cmp	r0, #0
    4b5e:	d04e      	beq.n	4bfe <usb_read_routine+0xd6>
		else if (strncmp(inbuffer, "ble ", 4) == 0)
    4b60:	2204      	movs	r2, #4
    4b62:	498c      	ldr	r1, [pc, #560]	; (4d94 <usb_read_routine+0x26c>)
    4b64:	a802      	add	r0, sp, #8
    4b66:	4b8c      	ldr	r3, [pc, #560]	; (4d98 <usb_read_routine+0x270>)
    4b68:	4798      	blx	r3
    4b6a:	2800      	cmp	r0, #0
    4b6c:	d062      	beq.n	4c34 <usb_read_routine+0x10c>
		else if (strncmp(inbuffer, "sim ", 4) == 0)
    4b6e:	2204      	movs	r2, #4
    4b70:	498a      	ldr	r1, [pc, #552]	; (4d9c <usb_read_routine+0x274>)
    4b72:	a802      	add	r0, sp, #8
    4b74:	4b88      	ldr	r3, [pc, #544]	; (4d98 <usb_read_routine+0x270>)
    4b76:	4798      	blx	r3
    4b78:	2800      	cmp	r0, #0
    4b7a:	d077      	beq.n	4c6c <usb_read_routine+0x144>
		else if (strcmp(inbuffer, "readsim") == 0)
    4b7c:	4988      	ldr	r1, [pc, #544]	; (4da0 <usb_read_routine+0x278>)
    4b7e:	a802      	add	r0, sp, #8
    4b80:	4b82      	ldr	r3, [pc, #520]	; (4d8c <usb_read_routine+0x264>)
    4b82:	4798      	blx	r3
    4b84:	2800      	cmp	r0, #0
    4b86:	f000 8093 	beq.w	4cb0 <usb_read_routine+0x188>
		else if (strcmp(inbuffer, "acc check") == 0)
    4b8a:	4986      	ldr	r1, [pc, #536]	; (4da4 <usb_read_routine+0x27c>)
    4b8c:	a802      	add	r0, sp, #8
    4b8e:	4b7f      	ldr	r3, [pc, #508]	; (4d8c <usb_read_routine+0x264>)
    4b90:	4798      	blx	r3
    4b92:	2800      	cmp	r0, #0
    4b94:	f000 80a7 	beq.w	4ce6 <usb_read_routine+0x1be>
		else if (strcmp(inbuffer, "spi check") == 0)
    4b98:	4983      	ldr	r1, [pc, #524]	; (4da8 <usb_read_routine+0x280>)
    4b9a:	a802      	add	r0, sp, #8
    4b9c:	4b7b      	ldr	r3, [pc, #492]	; (4d8c <usb_read_routine+0x264>)
    4b9e:	4798      	blx	r3
    4ba0:	2800      	cmp	r0, #0
    4ba2:	f000 80e5 	beq.w	4d70 <usb_read_routine+0x248>
		else if (strcmp(inbuffer, "spi write") == 0)
    4ba6:	4981      	ldr	r1, [pc, #516]	; (4dac <usb_read_routine+0x284>)
    4ba8:	a802      	add	r0, sp, #8
    4baa:	4b78      	ldr	r3, [pc, #480]	; (4d8c <usb_read_routine+0x264>)
    4bac:	4798      	blx	r3
    4bae:	2800      	cmp	r0, #0
    4bb0:	f000 80e1 	beq.w	4d76 <usb_read_routine+0x24e>
		else if (strcmp(inbuffer, "fram write") == 0)
    4bb4:	497e      	ldr	r1, [pc, #504]	; (4db0 <usb_read_routine+0x288>)
    4bb6:	a802      	add	r0, sp, #8
    4bb8:	4b74      	ldr	r3, [pc, #464]	; (4d8c <usb_read_routine+0x264>)
    4bba:	4798      	blx	r3
    4bbc:	2800      	cmp	r0, #0
    4bbe:	f000 8129 	beq.w	4e14 <usb_read_routine+0x2ec>
		else if (strcmp(inbuffer, "fram read") == 0)
    4bc2:	497c      	ldr	r1, [pc, #496]	; (4db4 <usb_read_routine+0x28c>)
    4bc4:	a802      	add	r0, sp, #8
    4bc6:	4b71      	ldr	r3, [pc, #452]	; (4d8c <usb_read_routine+0x264>)
    4bc8:	4798      	blx	r3
    4bca:	2800      	cmp	r0, #0
    4bcc:	f000 812a 	beq.w	4e24 <usb_read_routine+0x2fc>
		else if (strcmp(inbuffer, "lowpwr") == 0)
    4bd0:	4979      	ldr	r1, [pc, #484]	; (4db8 <usb_read_routine+0x290>)
    4bd2:	a802      	add	r0, sp, #8
    4bd4:	4b6d      	ldr	r3, [pc, #436]	; (4d8c <usb_read_routine+0x264>)
    4bd6:	4798      	blx	r3
    4bd8:	2800      	cmp	r0, #0
    4bda:	f000 8140 	beq.w	4e5e <usb_read_routine+0x336>
		else if (strcmp(inbuffer, "simcon") == 0)
    4bde:	4977      	ldr	r1, [pc, #476]	; (4dbc <usb_read_routine+0x294>)
    4be0:	a802      	add	r0, sp, #8
    4be2:	4b6a      	ldr	r3, [pc, #424]	; (4d8c <usb_read_routine+0x264>)
    4be4:	4798      	blx	r3
    4be6:	2800      	cmp	r0, #0
    4be8:	f040 813c 	bne.w	4e64 <usb_read_routine+0x33c>
			simcom_gprs_connect();
    4bec:	4b74      	ldr	r3, [pc, #464]	; (4dc0 <usb_read_routine+0x298>)
    4bee:	4798      	blx	r3
    4bf0:	e003      	b.n	4bfa <usb_read_routine+0xd2>
			usb_serial_write("Somax fw v1dev\n", strlen("Somax fw v1dev\n"));
    4bf2:	210f      	movs	r1, #15
    4bf4:	4873      	ldr	r0, [pc, #460]	; (4dc4 <usb_read_routine+0x29c>)
    4bf6:	4b74      	ldr	r3, [pc, #464]	; (4dc8 <usb_read_routine+0x2a0>)
    4bf8:	4798      	blx	r3
}
    4bfa:	b022      	add	sp, #136	; 0x88
    4bfc:	bd70      	pop	{r4, r5, r6, pc}
			usb_serial_write("Swapping fw\n", strlen("Swapping fw\n"));
    4bfe:	210c      	movs	r1, #12
    4c00:	4872      	ldr	r0, [pc, #456]	; (4dcc <usb_read_routine+0x2a4>)
    4c02:	4b71      	ldr	r3, [pc, #452]	; (4dc8 <usb_read_routine+0x2a0>)
    4c04:	4798      	blx	r3
			delay_ms(200);
    4c06:	20c8      	movs	r0, #200	; 0xc8
    4c08:	4c71      	ldr	r4, [pc, #452]	; (4dd0 <usb_read_routine+0x2a8>)
    4c0a:	47a0      	blx	r4
			usbdc_detach();
    4c0c:	4b71      	ldr	r3, [pc, #452]	; (4dd4 <usb_read_routine+0x2ac>)
    4c0e:	4798      	blx	r3
			delay_ms(500);
    4c10:	f44f 70fa 	mov.w	r0, #500	; 0x1f4
    4c14:	47a0      	blx	r4
			while (!NVMCTRL->STATUS.bit.READY);
    4c16:	4b70      	ldr	r3, [pc, #448]	; (4dd8 <usb_read_routine+0x2b0>)
    4c18:	8a5b      	ldrh	r3, [r3, #18]
    4c1a:	f013 0f01 	tst.w	r3, #1
    4c1e:	d0fa      	beq.n	4c16 <usb_read_routine+0xee>
			NVMCTRL->CTRLB.reg = NVMCTRL_CTRLB_CMD_BKSWRST | NVMCTRL_CTRLB_CMDEX_KEY;
    4c20:	f24a 5217 	movw	r2, #42263	; 0xa517
    4c24:	4b6c      	ldr	r3, [pc, #432]	; (4dd8 <usb_read_routine+0x2b0>)
    4c26:	809a      	strh	r2, [r3, #4]
			while (NVMCTRL->INTFLAG.bit.DONE);
    4c28:	4b6b      	ldr	r3, [pc, #428]	; (4dd8 <usb_read_routine+0x2b0>)
    4c2a:	8a1b      	ldrh	r3, [r3, #16]
    4c2c:	f013 0f01 	tst.w	r3, #1
    4c30:	d1fa      	bne.n	4c28 <usb_read_routine+0x100>
    4c32:	e7e2      	b.n	4bfa <usb_read_routine+0xd2>
			char respble[64] = {0};
    4c34:	2240      	movs	r2, #64	; 0x40
    4c36:	2100      	movs	r1, #0
    4c38:	a812      	add	r0, sp, #72	; 0x48
    4c3a:	4b51      	ldr	r3, [pc, #324]	; (4d80 <usb_read_routine+0x258>)
    4c3c:	4798      	blx	r3
			ble_send_and_receive(command, respble);
    4c3e:	a912      	add	r1, sp, #72	; 0x48
    4c40:	a803      	add	r0, sp, #12
    4c42:	4b66      	ldr	r3, [pc, #408]	; (4ddc <usb_read_routine+0x2b4>)
    4c44:	4798      	blx	r3
			usb_serial_write("Received: ", strlen("Received: "));
    4c46:	210a      	movs	r1, #10
    4c48:	4865      	ldr	r0, [pc, #404]	; (4de0 <usb_read_routine+0x2b8>)
    4c4a:	4c5f      	ldr	r4, [pc, #380]	; (4dc8 <usb_read_routine+0x2a0>)
    4c4c:	47a0      	blx	r4
			delay_ms(10);
    4c4e:	200a      	movs	r0, #10
    4c50:	4d5f      	ldr	r5, [pc, #380]	; (4dd0 <usb_read_routine+0x2a8>)
    4c52:	47a8      	blx	r5
			usb_serial_write(respble, strlen(respble));
    4c54:	a812      	add	r0, sp, #72	; 0x48
    4c56:	4b63      	ldr	r3, [pc, #396]	; (4de4 <usb_read_routine+0x2bc>)
    4c58:	4798      	blx	r3
    4c5a:	b281      	uxth	r1, r0
    4c5c:	a812      	add	r0, sp, #72	; 0x48
    4c5e:	47a0      	blx	r4
			delay_ms(10);
    4c60:	200a      	movs	r0, #10
    4c62:	47a8      	blx	r5
			usb_serial_write("\n", strlen("\n"));
    4c64:	2101      	movs	r1, #1
    4c66:	4860      	ldr	r0, [pc, #384]	; (4de8 <usb_read_routine+0x2c0>)
    4c68:	47a0      	blx	r4
    4c6a:	e7c6      	b.n	4bfa <usb_read_routine+0xd2>
			strcat(command, "\r");
    4c6c:	ac03      	add	r4, sp, #12
    4c6e:	4620      	mov	r0, r4
    4c70:	4e5c      	ldr	r6, [pc, #368]	; (4de4 <usb_read_routine+0x2bc>)
    4c72:	47b0      	blx	r6
    4c74:	4b5d      	ldr	r3, [pc, #372]	; (4dec <usb_read_routine+0x2c4>)
    4c76:	881b      	ldrh	r3, [r3, #0]
    4c78:	5223      	strh	r3, [r4, r0]
			char respsim[64] = {0};
    4c7a:	2240      	movs	r2, #64	; 0x40
    4c7c:	2100      	movs	r1, #0
    4c7e:	a812      	add	r0, sp, #72	; 0x48
    4c80:	4b3f      	ldr	r3, [pc, #252]	; (4d80 <usb_read_routine+0x258>)
    4c82:	4798      	blx	r3
			simcom_send_and_receive(command, respsim);
    4c84:	a912      	add	r1, sp, #72	; 0x48
    4c86:	4620      	mov	r0, r4
    4c88:	4b59      	ldr	r3, [pc, #356]	; (4df0 <usb_read_routine+0x2c8>)
    4c8a:	4798      	blx	r3
			usb_serial_write("Received: ", strlen("Received: "));
    4c8c:	210a      	movs	r1, #10
    4c8e:	4854      	ldr	r0, [pc, #336]	; (4de0 <usb_read_routine+0x2b8>)
    4c90:	4c4d      	ldr	r4, [pc, #308]	; (4dc8 <usb_read_routine+0x2a0>)
    4c92:	47a0      	blx	r4
			delay_ms(10);
    4c94:	200a      	movs	r0, #10
    4c96:	4d4e      	ldr	r5, [pc, #312]	; (4dd0 <usb_read_routine+0x2a8>)
    4c98:	47a8      	blx	r5
			usb_serial_write(respsim, strlen(respsim));
    4c9a:	a812      	add	r0, sp, #72	; 0x48
    4c9c:	47b0      	blx	r6
    4c9e:	b281      	uxth	r1, r0
    4ca0:	a812      	add	r0, sp, #72	; 0x48
    4ca2:	47a0      	blx	r4
			delay_ms(10);
    4ca4:	200a      	movs	r0, #10
    4ca6:	47a8      	blx	r5
			usb_serial_write("\n", strlen("\n"));
    4ca8:	2101      	movs	r1, #1
    4caa:	484f      	ldr	r0, [pc, #316]	; (4de8 <usb_read_routine+0x2c0>)
    4cac:	47a0      	blx	r4
    4cae:	e7a4      	b.n	4bfa <usb_read_routine+0xd2>
			char respsim[64] = {0};
    4cb0:	2240      	movs	r2, #64	; 0x40
    4cb2:	2100      	movs	r1, #0
    4cb4:	a812      	add	r0, sp, #72	; 0x48
    4cb6:	4b32      	ldr	r3, [pc, #200]	; (4d80 <usb_read_routine+0x258>)
    4cb8:	4798      	blx	r3
			simcom_receive(respsim);
    4cba:	a812      	add	r0, sp, #72	; 0x48
    4cbc:	4b4d      	ldr	r3, [pc, #308]	; (4df4 <usb_read_routine+0x2cc>)
    4cbe:	4798      	blx	r3
			usb_serial_write("Received: ", strlen("Received: "));
    4cc0:	210a      	movs	r1, #10
    4cc2:	4847      	ldr	r0, [pc, #284]	; (4de0 <usb_read_routine+0x2b8>)
    4cc4:	4c40      	ldr	r4, [pc, #256]	; (4dc8 <usb_read_routine+0x2a0>)
    4cc6:	47a0      	blx	r4
			delay_ms(10);
    4cc8:	200a      	movs	r0, #10
    4cca:	4d41      	ldr	r5, [pc, #260]	; (4dd0 <usb_read_routine+0x2a8>)
    4ccc:	47a8      	blx	r5
			usb_serial_write(respsim, strlen(respsim));
    4cce:	a812      	add	r0, sp, #72	; 0x48
    4cd0:	4b44      	ldr	r3, [pc, #272]	; (4de4 <usb_read_routine+0x2bc>)
    4cd2:	4798      	blx	r3
    4cd4:	b281      	uxth	r1, r0
    4cd6:	a812      	add	r0, sp, #72	; 0x48
    4cd8:	47a0      	blx	r4
			delay_ms(10);
    4cda:	200a      	movs	r0, #10
    4cdc:	47a8      	blx	r5
			usb_serial_write("\n", strlen("\n"));
    4cde:	2101      	movs	r1, #1
    4ce0:	4841      	ldr	r0, [pc, #260]	; (4de8 <usb_read_routine+0x2c0>)
    4ce2:	47a0      	blx	r4
    4ce4:	e789      	b.n	4bfa <usb_read_routine+0xd2>
			char resp = IMU_readRegister(0x0F); // reg WHO AM I respuesta es 00110011 = '3'
    4ce6:	200f      	movs	r0, #15
    4ce8:	4b43      	ldr	r3, [pc, #268]	; (4df8 <usb_read_routine+0x2d0>)
    4cea:	4798      	blx	r3
			regvalue = (resp == 0x33)? 'y' : 'n';
    4cec:	2833      	cmp	r0, #51	; 0x33
    4cee:	d03b      	beq.n	4d68 <usb_read_routine+0x240>
    4cf0:	236e      	movs	r3, #110	; 0x6e
    4cf2:	ae22      	add	r6, sp, #136	; 0x88
    4cf4:	f806 3d82 	strb.w	r3, [r6, #-130]!
			usb_serial_write("Reading reg\n", strlen("Reading reg\n"));
    4cf8:	210c      	movs	r1, #12
    4cfa:	4840      	ldr	r0, [pc, #256]	; (4dfc <usb_read_routine+0x2d4>)
    4cfc:	4d32      	ldr	r5, [pc, #200]	; (4dc8 <usb_read_routine+0x2a0>)
    4cfe:	47a8      	blx	r5
			delay_ms(10);
    4d00:	200a      	movs	r0, #10
    4d02:	4c33      	ldr	r4, [pc, #204]	; (4dd0 <usb_read_routine+0x2a8>)
    4d04:	47a0      	blx	r4
			usb_serial_write(&regvalue, 1);
    4d06:	2101      	movs	r1, #1
    4d08:	4630      	mov	r0, r6
    4d0a:	47a8      	blx	r5
			delay_ms(10);
    4d0c:	200a      	movs	r0, #10
    4d0e:	47a0      	blx	r4
			usb_serial_write("\n", strlen("\n"));
    4d10:	2101      	movs	r1, #1
    4d12:	4835      	ldr	r0, [pc, #212]	; (4de8 <usb_read_routine+0x2c0>)
    4d14:	47a8      	blx	r5
			delay_ms(10);
    4d16:	200a      	movs	r0, #10
    4d18:	47a0      	blx	r4
 */
static inline uint32_t _gpio_get_level(const enum gpio_port port)
{
	uint32_t tmp;

	CRITICAL_SECTION_ENTER();
    4d1a:	a812      	add	r0, sp, #72	; 0x48
    4d1c:	4b38      	ldr	r3, [pc, #224]	; (4e00 <usb_read_routine+0x2d8>)
    4d1e:	4798      	blx	r3
	return ((Port *)hw)->Group[submodule_index].DIR.reg;
    4d20:	4b38      	ldr	r3, [pc, #224]	; (4e04 <usb_read_routine+0x2dc>)
    4d22:	f8d3 1080 	ldr.w	r1, [r3, #128]	; 0x80
	return tmp;
}

static inline hri_port_in_reg_t hri_port_read_IN_reg(const void *const hw, uint8_t submodule_index)
{
	return ((Port *)hw)->Group[submodule_index].IN.reg;
    4d26:	f8d3 20a0 	ldr.w	r2, [r3, #160]	; 0xa0
	return ((Port *)hw)->Group[submodule_index].OUT.reg;
    4d2a:	f8d3 4090 	ldr.w	r4, [r3, #144]	; 0x90

	uint32_t dir_tmp = hri_port_read_DIR_reg(PORT, port);

	tmp = hri_port_read_IN_reg(PORT, port) & ~dir_tmp;
	tmp |= hri_port_read_OUT_reg(PORT, port) & dir_tmp;
    4d2e:	4054      	eors	r4, r2
    4d30:	400c      	ands	r4, r1
    4d32:	4054      	eors	r4, r2

	CRITICAL_SECTION_LEAVE();
    4d34:	a812      	add	r0, sp, #72	; 0x48
    4d36:	4b34      	ldr	r3, [pc, #208]	; (4e08 <usb_read_routine+0x2e0>)
    4d38:	4798      	blx	r3
			isintactive = gpio_get_pin_level(INT_ACC)? 'y' : 'n';
    4d3a:	f014 0f04 	tst.w	r4, #4
    4d3e:	d015      	beq.n	4d6c <usb_read_routine+0x244>
    4d40:	2379      	movs	r3, #121	; 0x79
    4d42:	ac22      	add	r4, sp, #136	; 0x88
    4d44:	f804 3d81 	strb.w	r3, [r4, #-129]!
			IMU_readRegister(0x31);
    4d48:	2031      	movs	r0, #49	; 0x31
    4d4a:	4b2b      	ldr	r3, [pc, #172]	; (4df8 <usb_read_routine+0x2d0>)
    4d4c:	4798      	blx	r3
			usb_serial_write(&isintactive, 1);
    4d4e:	2101      	movs	r1, #1
    4d50:	4620      	mov	r0, r4
    4d52:	4d1d      	ldr	r5, [pc, #116]	; (4dc8 <usb_read_routine+0x2a0>)
    4d54:	47a8      	blx	r5
			delay_ms(10);
    4d56:	200a      	movs	r0, #10
    4d58:	4c1d      	ldr	r4, [pc, #116]	; (4dd0 <usb_read_routine+0x2a8>)
    4d5a:	47a0      	blx	r4
			usb_serial_write("\n", strlen("\n"));
    4d5c:	2101      	movs	r1, #1
    4d5e:	4822      	ldr	r0, [pc, #136]	; (4de8 <usb_read_routine+0x2c0>)
    4d60:	47a8      	blx	r5
			delay_ms(10);
    4d62:	200a      	movs	r0, #10
    4d64:	47a0      	blx	r4
    4d66:	e748      	b.n	4bfa <usb_read_routine+0xd2>
			regvalue = (resp == 0x33)? 'y' : 'n';
    4d68:	2379      	movs	r3, #121	; 0x79
    4d6a:	e7c2      	b.n	4cf2 <usb_read_routine+0x1ca>
			isintactive = gpio_get_pin_level(INT_ACC)? 'y' : 'n';
    4d6c:	236e      	movs	r3, #110	; 0x6e
    4d6e:	e7e8      	b.n	4d42 <usb_read_routine+0x21a>
			SPI_0_test();
    4d70:	4b26      	ldr	r3, [pc, #152]	; (4e0c <usb_read_routine+0x2e4>)
    4d72:	4798      	blx	r3
    4d74:	e741      	b.n	4bfa <usb_read_routine+0xd2>
			SPI_0_test1();
    4d76:	4b26      	ldr	r3, [pc, #152]	; (4e10 <usb_read_routine+0x2e8>)
    4d78:	4798      	blx	r3
    4d7a:	e73e      	b.n	4bfa <usb_read_routine+0xd2>
    4d7c:	000060dd 	.word	0x000060dd
    4d80:	00006207 	.word	0x00006207
    4d84:	000060f9 	.word	0x000060f9
    4d88:	000065b8 	.word	0x000065b8
    4d8c:	00006235 	.word	0x00006235
    4d90:	000065d0 	.word	0x000065d0
    4d94:	000065ec 	.word	0x000065ec
    4d98:	00006259 	.word	0x00006259
    4d9c:	000065f4 	.word	0x000065f4
    4da0:	000065fc 	.word	0x000065fc
    4da4:	00006604 	.word	0x00006604
    4da8:	00006620 	.word	0x00006620
    4dac:	0000662c 	.word	0x0000662c
    4db0:	00006638 	.word	0x00006638
    4db4:	00006644 	.word	0x00006644
    4db8:	00006650 	.word	0x00006650
    4dbc:	00006658 	.word	0x00006658
    4dc0:	00004a29 	.word	0x00004a29
    4dc4:	000065c0 	.word	0x000065c0
    4dc8:	0000619d 	.word	0x0000619d
    4dcc:	000065dc 	.word	0x000065dc
    4dd0:	00000f21 	.word	0x00000f21
    4dd4:	00005f41 	.word	0x00005f41
    4dd8:	41004000 	.word	0x41004000
    4ddc:	00000379 	.word	0x00000379
    4de0:	00006520 	.word	0x00006520
    4de4:	00006249 	.word	0x00006249
    4de8:	000066b8 	.word	0x000066b8
    4dec:	00006530 	.word	0x00006530
    4df0:	00005321 	.word	0x00005321
    4df4:	00005385 	.word	0x00005385
    4df8:	0000482d 	.word	0x0000482d
    4dfc:	00006610 	.word	0x00006610
    4e00:	00000e51 	.word	0x00000e51
    4e04:	41008000 	.word	0x41008000
    4e08:	00000e5f 	.word	0x00000e5f
    4e0c:	00004941 	.word	0x00004941
    4e10:	000049e5 	.word	0x000049e5
			char dataw = 'f';
    4e14:	a922      	add	r1, sp, #136	; 0x88
    4e16:	2366      	movs	r3, #102	; 0x66
    4e18:	f801 3d40 	strb.w	r3, [r1, #-64]!
			FRAM_bytewrite(0x0013, &dataw);
    4e1c:	2013      	movs	r0, #19
    4e1e:	4b14      	ldr	r3, [pc, #80]	; (4e70 <usb_read_routine+0x348>)
    4e20:	4798      	blx	r3
    4e22:	e6ea      	b.n	4bfa <usb_read_routine+0xd2>
			char datar[1] = {0};
    4e24:	ac22      	add	r4, sp, #136	; 0x88
    4e26:	2300      	movs	r3, #0
    4e28:	f804 3d40 	strb.w	r3, [r4, #-64]!
			FRAM_byteread(0x0013, datar);
    4e2c:	4621      	mov	r1, r4
    4e2e:	2013      	movs	r0, #19
    4e30:	4b10      	ldr	r3, [pc, #64]	; (4e74 <usb_read_routine+0x34c>)
    4e32:	4798      	blx	r3
			delay_ms(10);
    4e34:	200a      	movs	r0, #10
    4e36:	4e10      	ldr	r6, [pc, #64]	; (4e78 <usb_read_routine+0x350>)
    4e38:	47b0      	blx	r6
			usb_serial_write("Received: ", strlen("Received: "));
    4e3a:	210a      	movs	r1, #10
    4e3c:	480f      	ldr	r0, [pc, #60]	; (4e7c <usb_read_routine+0x354>)
    4e3e:	4d10      	ldr	r5, [pc, #64]	; (4e80 <usb_read_routine+0x358>)
    4e40:	47a8      	blx	r5
			delay_ms(10);
    4e42:	200a      	movs	r0, #10
    4e44:	47b0      	blx	r6
			usb_serial_write(datar, strlen(datar));
    4e46:	4620      	mov	r0, r4
    4e48:	4b0e      	ldr	r3, [pc, #56]	; (4e84 <usb_read_routine+0x35c>)
    4e4a:	4798      	blx	r3
    4e4c:	b281      	uxth	r1, r0
    4e4e:	4620      	mov	r0, r4
    4e50:	47a8      	blx	r5
			delay_ms(10);
    4e52:	200a      	movs	r0, #10
    4e54:	47b0      	blx	r6
			usb_serial_write("\n", strlen("\n"));
    4e56:	2101      	movs	r1, #1
    4e58:	480b      	ldr	r0, [pc, #44]	; (4e88 <usb_read_routine+0x360>)
    4e5a:	47a8      	blx	r5
    4e5c:	e6cd      	b.n	4bfa <usb_read_routine+0xd2>
			MCU_low_power_mode();
    4e5e:	4b0b      	ldr	r3, [pc, #44]	; (4e8c <usb_read_routine+0x364>)
    4e60:	4798      	blx	r3
    4e62:	e6ca      	b.n	4bfa <usb_read_routine+0xd2>
			usb_serial_write("Command not recognized\n", strlen("Command not recognized\n"));
    4e64:	2117      	movs	r1, #23
    4e66:	480a      	ldr	r0, [pc, #40]	; (4e90 <usb_read_routine+0x368>)
    4e68:	4b05      	ldr	r3, [pc, #20]	; (4e80 <usb_read_routine+0x358>)
    4e6a:	4798      	blx	r3
}
    4e6c:	e6c5      	b.n	4bfa <usb_read_routine+0xd2>
    4e6e:	bf00      	nop
    4e70:	00000d95 	.word	0x00000d95
    4e74:	00000dd5 	.word	0x00000dd5
    4e78:	00000f21 	.word	0x00000f21
    4e7c:	00006520 	.word	0x00006520
    4e80:	0000619d 	.word	0x0000619d
    4e84:	00006249 	.word	0x00006249
    4e88:	000066b8 	.word	0x000066b8
    4e8c:	000048ed 	.word	0x000048ed
    4e90:	00006660 	.word	0x00006660

00004e94 <initial_check>:
} dev_status_t;

dev_status_t status;

uint8_t initial_check(void )
{
    4e94:	e92d 4ff0 	stmdb	sp!, {r4, r5, r6, r7, r8, r9, sl, fp, lr}
    4e98:	b0b3      	sub	sp, #204	; 0xcc
	uint8_t errorcount = 0;
	status.raw = 0;
    4e9a:	4e58      	ldr	r6, [pc, #352]	; (4ffc <initial_check+0x168>)
    4e9c:	2700      	movs	r7, #0
    4e9e:	7037      	strb	r7, [r6, #0]
	
	// Check BLE comm
	char respble[64] = {0};
    4ea0:	2240      	movs	r2, #64	; 0x40
    4ea2:	4639      	mov	r1, r7
    4ea4:	a822      	add	r0, sp, #136	; 0x88
    4ea6:	f8df a190 	ldr.w	sl, [pc, #400]	; 5038 <initial_check+0x1a4>
    4eaa:	47d0      	blx	sl
	ble_send_and_receive("AT", respble);
    4eac:	a922      	add	r1, sp, #136	; 0x88
    4eae:	4854      	ldr	r0, [pc, #336]	; (5000 <initial_check+0x16c>)
    4eb0:	4c54      	ldr	r4, [pc, #336]	; (5004 <initial_check+0x170>)
    4eb2:	47a0      	blx	r4
	delay_ms(100);
    4eb4:	2064      	movs	r0, #100	; 0x64
    4eb6:	4d54      	ldr	r5, [pc, #336]	; (5008 <initial_check+0x174>)
    4eb8:	47a8      	blx	r5
	ble_send_and_receive("AT+BAUD?", respble);
    4eba:	a922      	add	r1, sp, #136	; 0x88
    4ebc:	4853      	ldr	r0, [pc, #332]	; (500c <initial_check+0x178>)
    4ebe:	47a0      	blx	r4
	usb_serial_write("respble: ", strlen("respble: "));
    4ec0:	2109      	movs	r1, #9
    4ec2:	4853      	ldr	r0, [pc, #332]	; (5010 <initial_check+0x17c>)
    4ec4:	f8df 8174 	ldr.w	r8, [pc, #372]	; 503c <initial_check+0x1a8>
    4ec8:	47c0      	blx	r8
	delay_ms(20);
    4eca:	2014      	movs	r0, #20
    4ecc:	47a8      	blx	r5
	usb_serial_write(respble, strlen(respble));
    4ece:	a822      	add	r0, sp, #136	; 0x88
    4ed0:	f8df b16c 	ldr.w	fp, [pc, #364]	; 5040 <initial_check+0x1ac>
    4ed4:	47d8      	blx	fp
    4ed6:	b281      	uxth	r1, r0
    4ed8:	a822      	add	r0, sp, #136	; 0x88
    4eda:	47c0      	blx	r8
	status.bits.ble = (strncmp(respble, "OK+Get:", 2) == 0);
    4edc:	2202      	movs	r2, #2
    4ede:	494d      	ldr	r1, [pc, #308]	; (5014 <initial_check+0x180>)
    4ee0:	a822      	add	r0, sp, #136	; 0x88
    4ee2:	4b4d      	ldr	r3, [pc, #308]	; (5018 <initial_check+0x184>)
    4ee4:	4798      	blx	r3
    4ee6:	fab0 f080 	clz	r0, r0
    4eea:	0940      	lsrs	r0, r0, #5
    4eec:	7833      	ldrb	r3, [r6, #0]
    4eee:	f360 0300 	bfi	r3, r0, #0, #1
    4ef2:	7033      	strb	r3, [r6, #0]
	errorcount += !status.bits.ble;
    4ef4:	f080 0401 	eor.w	r4, r0, #1
	delay_ms(10);
    4ef8:	200a      	movs	r0, #10
    4efa:	47a8      	blx	r5
	
	// Check Simcom comm
	char respsim[64] = {0};
    4efc:	2240      	movs	r2, #64	; 0x40
    4efe:	4639      	mov	r1, r7
    4f00:	a812      	add	r0, sp, #72	; 0x48
    4f02:	47d0      	blx	sl
	simcom_send_and_receive("AT\r", respsim);
    4f04:	a912      	add	r1, sp, #72	; 0x48
    4f06:	4845      	ldr	r0, [pc, #276]	; (501c <initial_check+0x188>)
    4f08:	f8df 9138 	ldr.w	r9, [pc, #312]	; 5044 <initial_check+0x1b0>
    4f0c:	47c8      	blx	r9
	delay_ms(10000);
    4f0e:	f242 7010 	movw	r0, #10000	; 0x2710
    4f12:	47a8      	blx	r5
	simcom_send_and_receive("ATE0\r", respsim);
    4f14:	a912      	add	r1, sp, #72	; 0x48
    4f16:	4842      	ldr	r0, [pc, #264]	; (5020 <initial_check+0x18c>)
    4f18:	47c8      	blx	r9
	delay_ms(500);
    4f1a:	f44f 70fa 	mov.w	r0, #500	; 0x1f4
    4f1e:	47a8      	blx	r5
	char respsim2[64] = {0};
    4f20:	2240      	movs	r2, #64	; 0x40
    4f22:	4639      	mov	r1, r7
    4f24:	a802      	add	r0, sp, #8
    4f26:	47d0      	blx	sl
	simcom_send_and_receive("AT\r", respsim2);
    4f28:	a902      	add	r1, sp, #8
    4f2a:	483c      	ldr	r0, [pc, #240]	; (501c <initial_check+0x188>)
    4f2c:	47c8      	blx	r9
	delay_ms(500);
    4f2e:	f44f 70fa 	mov.w	r0, #500	; 0x1f4
    4f32:	47a8      	blx	r5
	usb_serial_write("respsim: ", strlen("respsim: "));
    4f34:	2109      	movs	r1, #9
    4f36:	483b      	ldr	r0, [pc, #236]	; (5024 <initial_check+0x190>)
    4f38:	47c0      	blx	r8
	delay_ms(200);
    4f3a:	20c8      	movs	r0, #200	; 0xc8
    4f3c:	47a8      	blx	r5
	usb_serial_write(respsim2, strlen(respsim2));
    4f3e:	a802      	add	r0, sp, #8
    4f40:	47d8      	blx	fp
    4f42:	b281      	uxth	r1, r0
    4f44:	a802      	add	r0, sp, #8
    4f46:	47c0      	blx	r8
	delay_ms(200);
    4f48:	20c8      	movs	r0, #200	; 0xc8
    4f4a:	47a8      	blx	r5
	status.bits.sim = (strncmp(respsim2, "\rOK", 1) == 0);
    4f4c:	f89d 0008 	ldrb.w	r0, [sp, #8]
    4f50:	280d      	cmp	r0, #13
    4f52:	bf14      	ite	ne
    4f54:	2000      	movne	r0, #0
    4f56:	2001      	moveq	r0, #1
    4f58:	7833      	ldrb	r3, [r6, #0]
    4f5a:	f360 03c3 	bfi	r3, r0, #3, #1
    4f5e:	7033      	strb	r3, [r6, #0]
	errorcount += !status.bits.sim;
    4f60:	f080 0001 	eor.w	r0, r0, #1
    4f64:	4404      	add	r4, r0
	delay_ms(10);
    4f66:	200a      	movs	r0, #10
    4f68:	47a8      	blx	r5
	
	// Check acc comm
	char acc_who_am_i = IMU_readRegister(0x0F);
    4f6a:	200f      	movs	r0, #15
    4f6c:	4b2e      	ldr	r3, [pc, #184]	; (5028 <initial_check+0x194>)
    4f6e:	4798      	blx	r3
	status.bits.acc = (acc_who_am_i == '3');
    4f70:	2833      	cmp	r0, #51	; 0x33
    4f72:	bf14      	ite	ne
    4f74:	2000      	movne	r0, #0
    4f76:	2001      	moveq	r0, #1
    4f78:	7833      	ldrb	r3, [r6, #0]
    4f7a:	f360 0341 	bfi	r3, r0, #1, #1
    4f7e:	7033      	strb	r3, [r6, #0]
	errorcount += !status.bits.acc;
    4f80:	f080 0001 	eor.w	r0, r0, #1
    4f84:	4404      	add	r4, r0
    4f86:	b2e4      	uxtb	r4, r4
	delay_ms(10);
    4f88:	200a      	movs	r0, #10
    4f8a:	47a8      	blx	r5
	
	// Check can spi comm
	uint8_t spi_ctrl_reg_value[1] = {0};
    4f8c:	a932      	add	r1, sp, #200	; 0xc8
    4f8e:	f801 7dc4 	strb.w	r7, [r1, #-196]!
	spi_read_reg(0x0F, spi_ctrl_reg_value);
    4f92:	200f      	movs	r0, #15
    4f94:	4b25      	ldr	r3, [pc, #148]	; (502c <initial_check+0x198>)
    4f96:	4798      	blx	r3
	status.bits.can = (*spi_ctrl_reg_value == 0x87);
    4f98:	f89d 3004 	ldrb.w	r3, [sp, #4]
    4f9c:	2b87      	cmp	r3, #135	; 0x87
    4f9e:	bf14      	ite	ne
    4fa0:	2300      	movne	r3, #0
    4fa2:	2301      	moveq	r3, #1
    4fa4:	7832      	ldrb	r2, [r6, #0]
    4fa6:	f363 1204 	bfi	r2, r3, #4, #1
    4faa:	7032      	strb	r2, [r6, #0]
	errorcount += !status.bits.can;
    4fac:	f083 0301 	eor.w	r3, r3, #1
    4fb0:	4423      	add	r3, r4
    4fb2:	b2dc      	uxtb	r4, r3
	delay_ms(10);
    4fb4:	200a      	movs	r0, #10
    4fb6:	47a8      	blx	r5
	
	// Check fram write y read
	char dataw = 'f';
    4fb8:	a932      	add	r1, sp, #200	; 0xc8
    4fba:	2366      	movs	r3, #102	; 0x66
    4fbc:	f801 3dc5 	strb.w	r3, [r1, #-197]!
	FRAM_bytewrite(0x0013, &dataw);
    4fc0:	2013      	movs	r0, #19
    4fc2:	4b1b      	ldr	r3, [pc, #108]	; (5030 <initial_check+0x19c>)
    4fc4:	4798      	blx	r3
	char datar[1] = {0};
    4fc6:	a932      	add	r1, sp, #200	; 0xc8
    4fc8:	f801 7dc8 	strb.w	r7, [r1, #-200]!
	FRAM_byteread(0x0013, datar);
    4fcc:	2013      	movs	r0, #19
    4fce:	4b19      	ldr	r3, [pc, #100]	; (5034 <initial_check+0x1a0>)
    4fd0:	4798      	blx	r3
	status.bits.fram = (*datar == 'f');
    4fd2:	f89d 3000 	ldrb.w	r3, [sp]
    4fd6:	2b66      	cmp	r3, #102	; 0x66
    4fd8:	bf14      	ite	ne
    4fda:	2300      	movne	r3, #0
    4fdc:	2301      	moveq	r3, #1
    4fde:	7832      	ldrb	r2, [r6, #0]
    4fe0:	f363 0282 	bfi	r2, r3, #2, #1
    4fe4:	7032      	strb	r2, [r6, #0]
	errorcount += !status.bits.fram;
    4fe6:	f083 0301 	eor.w	r3, r3, #1
    4fea:	4423      	add	r3, r4
    4fec:	b2dc      	uxtb	r4, r3
	delay_ms(10);
    4fee:	200a      	movs	r0, #10
    4ff0:	47a8      	blx	r5
	
	return errorcount;
}
    4ff2:	4620      	mov	r0, r4
    4ff4:	b033      	add	sp, #204	; 0xcc
    4ff6:	e8bd 8ff0 	ldmia.w	sp!, {r4, r5, r6, r7, r8, r9, sl, fp, pc}
    4ffa:	bf00      	nop
    4ffc:	2000068c 	.word	0x2000068c
    5000:	00006678 	.word	0x00006678
    5004:	00000379 	.word	0x00000379
    5008:	00000f21 	.word	0x00000f21
    500c:	0000667c 	.word	0x0000667c
    5010:	00006688 	.word	0x00006688
    5014:	00006694 	.word	0x00006694
    5018:	00006259 	.word	0x00006259
    501c:	0000669c 	.word	0x0000669c
    5020:	0000652c 	.word	0x0000652c
    5024:	000066a0 	.word	0x000066a0
    5028:	0000482d 	.word	0x0000482d
    502c:	00005405 	.word	0x00005405
    5030:	00000d95 	.word	0x00000d95
    5034:	00000dd5 	.word	0x00000dd5
    5038:	00006207 	.word	0x00006207
    503c:	0000619d 	.word	0x0000619d
    5040:	00006249 	.word	0x00006249
    5044:	00005321 	.word	0x00005321

00005048 <main>:


/* main */

int main(void)
{
    5048:	e92d 47f0 	stmdb	sp!, {r4, r5, r6, r7, r8, r9, sl, lr}
	/* Initializes MCU, drivers and middleware */
	atmel_start_init();
    504c:	4b89      	ldr	r3, [pc, #548]	; (5274 <main+0x22c>)
    504e:	4798      	blx	r3
	ble_init();
    5050:	4b89      	ldr	r3, [pc, #548]	; (5278 <main+0x230>)
    5052:	4798      	blx	r3
	simcom_init();
    5054:	4b89      	ldr	r3, [pc, #548]	; (527c <main+0x234>)
    5056:	4798      	blx	r3
	FRAM_init();
    5058:	4b89      	ldr	r3, [pc, #548]	; (5280 <main+0x238>)
    505a:	4798      	blx	r3
	IMU_init();
    505c:	4b89      	ldr	r3, [pc, #548]	; (5284 <main+0x23c>)
    505e:	4798      	blx	r3
	spi_init();
    5060:	4b89      	ldr	r3, [pc, #548]	; (5288 <main+0x240>)
    5062:	4798      	blx	r3
	
	IMU_readRegister(0x31);		// Limpiar interrupciones de acc
    5064:	2031      	movs	r0, #49	; 0x31
    5066:	4b89      	ldr	r3, [pc, #548]	; (528c <main+0x244>)
    5068:	4798      	blx	r3
	((Port *)hw)->Group[submodule_index].OUTSET.reg = mask;
    506a:	4c89      	ldr	r4, [pc, #548]	; (5290 <main+0x248>)
    506c:	f44f 4380 	mov.w	r3, #16384	; 0x4000
    5070:	61a3      	str	r3, [r4, #24]
    5072:	2680      	movs	r6, #128	; 0x80
    5074:	f8c4 6098 	str.w	r6, [r4, #152]	; 0x98
    5078:	61a6      	str	r6, [r4, #24]
	gpio_set_pin_level(SPI_CS0, true);	// Chip select para spi-can
	gpio_set_pin_level(GPRS_PEN, true);	// Alimentacion a antena gps
	
	// Power-on de simcom
	gpio_set_pin_level(GPRS_nPWR, true);
	delay_ms(500);
    507a:	f44f 70fa 	mov.w	r0, #500	; 0x1f4
    507e:	4d85      	ldr	r5, [pc, #532]	; (5294 <main+0x24c>)
    5080:	47a8      	blx	r5
	((Port *)hw)->Group[submodule_index].OUTCLR.reg = mask;
    5082:	6166      	str	r6, [r4, #20]
	gpio_set_pin_level(GPRS_nPWR, false);
	
	// Inicializacion de chip spi-can en configuration mode
	spi_write_reg(0x2B, 0x40);	// Enable interrupt en can-spi
    5084:	2140      	movs	r1, #64	; 0x40
    5086:	202b      	movs	r0, #43	; 0x2b
    5088:	4e83      	ldr	r6, [pc, #524]	; (5298 <main+0x250>)
    508a:	47b0      	blx	r6
	spi_write_reg(0x2C, 0x40);	// Generar interrupt en can-spi
    508c:	2140      	movs	r1, #64	; 0x40
    508e:	202c      	movs	r0, #44	; 0x2c
    5090:	47b0      	blx	r6
	delay_ms(20);
    5092:	2014      	movs	r0, #20
    5094:	47a8      	blx	r5
	spi_write_reg(0x2C, 0x00);	// Limpiar interrupt en can-spi
    5096:	2100      	movs	r1, #0
    5098:	202c      	movs	r0, #44	; 0x2c
    509a:	47b0      	blx	r6
	spi_write_reg(0x2B, 0x40);	// Diable interrupt en can-spi
    509c:	2140      	movs	r1, #64	; 0x40
    509e:	202b      	movs	r0, #43	; 0x2b
    50a0:	47b0      	blx	r6
	spi_write_reg(0x0F,0x87);	// Configuration mode en chip SPI-CAN (0x07 para Normal operation mode)
    50a2:	2187      	movs	r1, #135	; 0x87
    50a4:	200f      	movs	r0, #15
    50a6:	47b0      	blx	r6
    50a8:	f44f 2880 	mov.w	r8, #262144	; 0x40000
    50ac:	f8c4 8014 	str.w	r8, [r4, #20]
	((Port *)hw)->Group[submodule_index].OUTSET.reg = mask;
    50b0:	f44f 2700 	mov.w	r7, #524288	; 0x80000
    50b4:	61a7      	str	r7, [r4, #24]
    50b6:	f44f 1680 	mov.w	r6, #1048576	; 0x100000
    50ba:	61a6      	str	r6, [r4, #24]
	
	gpio_set_pin_level(LED0, false);
	gpio_set_pin_level(LED1, true);
	gpio_set_pin_level(LED2, true);
	
	delay_ms(15000);	// Esperar inicializacion de todos los modulos
    50bc:	f643 2098 	movw	r0, #15000	; 0x3a98
    50c0:	47a8      	blx	r5
	uint8_t errorcnt = initial_check();
    50c2:	4b76      	ldr	r3, [pc, #472]	; (529c <main+0x254>)
    50c4:	4798      	blx	r3
    50c6:	4681      	mov	r9, r0
	((Port *)hw)->Group[submodule_index].OUTCLR.reg = mask;
    50c8:	f8c4 8014 	str.w	r8, [r4, #20]
	((Port *)hw)->Group[submodule_index].OUTSET.reg = mask;
    50cc:	61a7      	str	r7, [r4, #24]
    50ce:	61a6      	str	r6, [r4, #24]
	
		
	gpio_set_pin_level(LED0, false);
	gpio_set_pin_level(LED1, true);
	gpio_set_pin_level(LED2, true);
	delay_ms(333);
    50d0:	f240 104d 	movw	r0, #333	; 0x14d
    50d4:	47a8      	blx	r5
    50d6:	f8c4 8018 	str.w	r8, [r4, #24]
	((Port *)hw)->Group[submodule_index].OUTCLR.reg = mask;
    50da:	6167      	str	r7, [r4, #20]
	((Port *)hw)->Group[submodule_index].OUTSET.reg = mask;
    50dc:	61a6      	str	r6, [r4, #24]
	gpio_set_pin_level(LED0, true);
	gpio_set_pin_level(LED1, false);
	gpio_set_pin_level(LED2, true);
	delay_ms(333);
    50de:	f240 104d 	movw	r0, #333	; 0x14d
    50e2:	47a8      	blx	r5
    50e4:	f8c4 8018 	str.w	r8, [r4, #24]
    50e8:	61a7      	str	r7, [r4, #24]
	((Port *)hw)->Group[submodule_index].OUTCLR.reg = mask;
    50ea:	6166      	str	r6, [r4, #20]
	gpio_set_pin_level(LED0, true);
	gpio_set_pin_level(LED1, true);
	gpio_set_pin_level(LED2, false);
	delay_ms(333);
    50ec:	f240 104d 	movw	r0, #333	; 0x14d
    50f0:	47a8      	blx	r5
    50f2:	e011      	b.n	5118 <main+0xd0>
    50f4:	4b66      	ldr	r3, [pc, #408]	; (5290 <main+0x248>)
    50f6:	f44f 2280 	mov.w	r2, #262144	; 0x40000
    50fa:	615a      	str	r2, [r3, #20]
    50fc:	f44f 2200 	mov.w	r2, #524288	; 0x80000
    5100:	615a      	str	r2, [r3, #20]
    5102:	f44f 1280 	mov.w	r2, #1048576	; 0x100000
    5106:	615a      	str	r2, [r3, #20]
		if (errorcnt == 0)
		{ 
			gpio_set_pin_level(LED0, false);
			gpio_set_pin_level(LED1, false);
			gpio_set_pin_level(LED2, false);
			usb_read_routine();
    5108:	4b65      	ldr	r3, [pc, #404]	; (52a0 <main+0x258>)
    510a:	4798      	blx	r3
			delay_ms(3000);
    510c:	f640 30b8 	movw	r0, #3000	; 0xbb8
    5110:	4b60      	ldr	r3, [pc, #384]	; (5294 <main+0x24c>)
    5112:	4798      	blx	r3
			gpio_set_pin_level(LED2, true);
			usb_read_routine();
			delay_ms(700);
			}
		}
		MCU_low_power_mode();
    5114:	4b63      	ldr	r3, [pc, #396]	; (52a4 <main+0x25c>)
    5116:	4798      	blx	r3
		if (errorcnt == 0)
    5118:	f1b9 0f00 	cmp.w	r9, #0
    511c:	d0ea      	beq.n	50f4 <main+0xac>
    511e:	2500      	movs	r5, #0
    5120:	e03d      	b.n	519e <main+0x156>
    5122:	f44f 2280 	mov.w	r2, #262144	; 0x40000
    5126:	4b5a      	ldr	r3, [pc, #360]	; (5290 <main+0x248>)
    5128:	615a      	str	r2, [r3, #20]
    512a:	e043      	b.n	51b4 <main+0x16c>
    512c:	f44f 2200 	mov.w	r2, #524288	; 0x80000
    5130:	4b57      	ldr	r3, [pc, #348]	; (5290 <main+0x248>)
    5132:	615a      	str	r2, [r3, #20]
    5134:	e047      	b.n	51c6 <main+0x17e>
    5136:	f44f 1280 	mov.w	r2, #1048576	; 0x100000
    513a:	4b55      	ldr	r3, [pc, #340]	; (5290 <main+0x248>)
    513c:	615a      	str	r2, [r3, #20]
    513e:	e04b      	b.n	51d8 <main+0x190>
    5140:	f44f 2280 	mov.w	r2, #262144	; 0x40000
    5144:	4b52      	ldr	r3, [pc, #328]	; (5290 <main+0x248>)
    5146:	615a      	str	r2, [r3, #20]
    5148:	e063      	b.n	5212 <main+0x1ca>
    514a:	f44f 2200 	mov.w	r2, #524288	; 0x80000
    514e:	4b50      	ldr	r3, [pc, #320]	; (5290 <main+0x248>)
    5150:	615a      	str	r2, [r3, #20]
    5152:	e067      	b.n	5224 <main+0x1dc>
    5154:	f44f 1280 	mov.w	r2, #1048576	; 0x100000
    5158:	4b4d      	ldr	r3, [pc, #308]	; (5290 <main+0x248>)
    515a:	615a      	str	r2, [r3, #20]
    515c:	e06b      	b.n	5236 <main+0x1ee>
    515e:	f44f 2280 	mov.w	r2, #262144	; 0x40000
    5162:	4b4b      	ldr	r3, [pc, #300]	; (5290 <main+0x248>)
    5164:	615a      	str	r2, [r3, #20]
    5166:	4c4a      	ldr	r4, [pc, #296]	; (5290 <main+0x248>)
    5168:	f44f 2a00 	mov.w	sl, #524288	; 0x80000
    516c:	f8c4 a014 	str.w	sl, [r4, #20]
    5170:	f44f 1880 	mov.w	r8, #1048576	; 0x100000
    5174:	f8c4 8014 	str.w	r8, [r4, #20]
			usb_read_routine();
    5178:	4f49      	ldr	r7, [pc, #292]	; (52a0 <main+0x258>)
    517a:	47b8      	blx	r7
			delay_ms(300);
    517c:	f44f 7096 	mov.w	r0, #300	; 0x12c
    5180:	4e44      	ldr	r6, [pc, #272]	; (5294 <main+0x24c>)
    5182:	47b0      	blx	r6
	((Port *)hw)->Group[submodule_index].OUTSET.reg = mask;
    5184:	f44f 2380 	mov.w	r3, #262144	; 0x40000
    5188:	61a3      	str	r3, [r4, #24]
    518a:	f8c4 a018 	str.w	sl, [r4, #24]
    518e:	f8c4 8018 	str.w	r8, [r4, #24]
			usb_read_routine();
    5192:	47b8      	blx	r7
			delay_ms(700);
    5194:	f44f 702f 	mov.w	r0, #700	; 0x2bc
    5198:	47b0      	blx	r6
			for(uint8_t i = 0; i<3; i++)
    519a:	3501      	adds	r5, #1
    519c:	b2ed      	uxtb	r5, r5
    519e:	2d02      	cmp	r5, #2
    51a0:	d8b8      	bhi.n	5114 <main+0xcc>
			gpio_set_pin_level(LED0, !status.bits.acc);
    51a2:	4b41      	ldr	r3, [pc, #260]	; (52a8 <main+0x260>)
    51a4:	781b      	ldrb	r3, [r3, #0]
	if (level) {
    51a6:	f013 0f02 	tst.w	r3, #2
    51aa:	d1ba      	bne.n	5122 <main+0xda>
    51ac:	f44f 2280 	mov.w	r2, #262144	; 0x40000
    51b0:	4b37      	ldr	r3, [pc, #220]	; (5290 <main+0x248>)
    51b2:	619a      	str	r2, [r3, #24]
			gpio_set_pin_level(LED1, !status.bits.ble);
    51b4:	4b3c      	ldr	r3, [pc, #240]	; (52a8 <main+0x260>)
    51b6:	781b      	ldrb	r3, [r3, #0]
    51b8:	f013 0f01 	tst.w	r3, #1
    51bc:	d1b6      	bne.n	512c <main+0xe4>
    51be:	f44f 2200 	mov.w	r2, #524288	; 0x80000
    51c2:	4b33      	ldr	r3, [pc, #204]	; (5290 <main+0x248>)
    51c4:	619a      	str	r2, [r3, #24]
			gpio_set_pin_level(LED2, !status.bits.can);
    51c6:	4b38      	ldr	r3, [pc, #224]	; (52a8 <main+0x260>)
    51c8:	781b      	ldrb	r3, [r3, #0]
    51ca:	f013 0f10 	tst.w	r3, #16
    51ce:	d1b2      	bne.n	5136 <main+0xee>
    51d0:	f44f 1280 	mov.w	r2, #1048576	; 0x100000
    51d4:	4b2e      	ldr	r3, [pc, #184]	; (5290 <main+0x248>)
    51d6:	619a      	str	r2, [r3, #24]
			usb_read_routine();
    51d8:	4e31      	ldr	r6, [pc, #196]	; (52a0 <main+0x258>)
    51da:	47b0      	blx	r6
			delay_ms(300);
    51dc:	f44f 7096 	mov.w	r0, #300	; 0x12c
    51e0:	4c2c      	ldr	r4, [pc, #176]	; (5294 <main+0x24c>)
    51e2:	47a0      	blx	r4
    51e4:	4b2a      	ldr	r3, [pc, #168]	; (5290 <main+0x248>)
    51e6:	f44f 2280 	mov.w	r2, #262144	; 0x40000
    51ea:	619a      	str	r2, [r3, #24]
    51ec:	f44f 2200 	mov.w	r2, #524288	; 0x80000
    51f0:	619a      	str	r2, [r3, #24]
    51f2:	f44f 1280 	mov.w	r2, #1048576	; 0x100000
    51f6:	619a      	str	r2, [r3, #24]
			usb_read_routine();
    51f8:	47b0      	blx	r6
			delay_ms(300);
    51fa:	f44f 7096 	mov.w	r0, #300	; 0x12c
    51fe:	47a0      	blx	r4
			gpio_set_pin_level(LED0, !status.bits.fram);
    5200:	4b29      	ldr	r3, [pc, #164]	; (52a8 <main+0x260>)
    5202:	781b      	ldrb	r3, [r3, #0]
    5204:	f013 0f04 	tst.w	r3, #4
    5208:	d19a      	bne.n	5140 <main+0xf8>
    520a:	f44f 2280 	mov.w	r2, #262144	; 0x40000
    520e:	4b20      	ldr	r3, [pc, #128]	; (5290 <main+0x248>)
    5210:	619a      	str	r2, [r3, #24]
			gpio_set_pin_level(LED1, !status.bits.sim);
    5212:	4b25      	ldr	r3, [pc, #148]	; (52a8 <main+0x260>)
    5214:	781b      	ldrb	r3, [r3, #0]
    5216:	f013 0f08 	tst.w	r3, #8
    521a:	d196      	bne.n	514a <main+0x102>
    521c:	f44f 2200 	mov.w	r2, #524288	; 0x80000
    5220:	4b1b      	ldr	r3, [pc, #108]	; (5290 <main+0x248>)
    5222:	619a      	str	r2, [r3, #24]
			gpio_set_pin_level(LED2, !status.bits.gprs);
    5224:	4b20      	ldr	r3, [pc, #128]	; (52a8 <main+0x260>)
    5226:	781b      	ldrb	r3, [r3, #0]
    5228:	f013 0f40 	tst.w	r3, #64	; 0x40
    522c:	d192      	bne.n	5154 <main+0x10c>
    522e:	f44f 1280 	mov.w	r2, #1048576	; 0x100000
    5232:	4b17      	ldr	r3, [pc, #92]	; (5290 <main+0x248>)
    5234:	619a      	str	r2, [r3, #24]
			usb_read_routine();
    5236:	4e1a      	ldr	r6, [pc, #104]	; (52a0 <main+0x258>)
    5238:	47b0      	blx	r6
			delay_ms(300);
    523a:	f44f 7096 	mov.w	r0, #300	; 0x12c
    523e:	4c15      	ldr	r4, [pc, #84]	; (5294 <main+0x24c>)
    5240:	47a0      	blx	r4
    5242:	4b13      	ldr	r3, [pc, #76]	; (5290 <main+0x248>)
    5244:	f44f 2280 	mov.w	r2, #262144	; 0x40000
    5248:	619a      	str	r2, [r3, #24]
    524a:	f44f 2200 	mov.w	r2, #524288	; 0x80000
    524e:	619a      	str	r2, [r3, #24]
    5250:	f44f 1280 	mov.w	r2, #1048576	; 0x100000
    5254:	619a      	str	r2, [r3, #24]
			usb_read_routine();
    5256:	47b0      	blx	r6
			delay_ms(300);
    5258:	f44f 7096 	mov.w	r0, #300	; 0x12c
    525c:	47a0      	blx	r4
			gpio_set_pin_level(LED0, !status.bits.gps);
    525e:	4b12      	ldr	r3, [pc, #72]	; (52a8 <main+0x260>)
    5260:	781b      	ldrb	r3, [r3, #0]
    5262:	f013 0f20 	tst.w	r3, #32
    5266:	f47f af7a 	bne.w	515e <main+0x116>
    526a:	f44f 2280 	mov.w	r2, #262144	; 0x40000
    526e:	4b08      	ldr	r3, [pc, #32]	; (5290 <main+0x248>)
    5270:	619a      	str	r2, [r3, #24]
    5272:	e778      	b.n	5166 <main+0x11e>
    5274:	000002d1 	.word	0x000002d1
    5278:	000002e9 	.word	0x000002e9
    527c:	000052d5 	.word	0x000052d5
    5280:	00000d71 	.word	0x00000d71
    5284:	00004865 	.word	0x00004865
    5288:	000053a9 	.word	0x000053a9
    528c:	0000482d 	.word	0x0000482d
    5290:	41008000 	.word	0x41008000
    5294:	00000f21 	.word	0x00000f21
    5298:	000053cd 	.word	0x000053cd
    529c:	00004e95 	.word	0x00004e95
    52a0:	00004b29 	.word	0x00004b29
    52a4:	000048ed 	.word	0x000048ed
    52a8:	2000068c 	.word	0x2000068c

000052ac <rx_cb_USART_1>:
    52ac:	b508      	push	{r3, lr}
    52ae:	210d      	movs	r1, #13
    52b0:	4801      	ldr	r0, [pc, #4]	; (52b8 <rx_cb_USART_1+0xc>)
    52b2:	4b02      	ldr	r3, [pc, #8]	; (52bc <rx_cb_USART_1+0x10>)
    52b4:	4798      	blx	r3
    52b6:	bd08      	pop	{r3, pc}
    52b8:	000066ac 	.word	0x000066ac
    52bc:	0000619d 	.word	0x0000619d

000052c0 <tx_cb_USART_1>:
    52c0:	b508      	push	{r3, lr}
    52c2:	210d      	movs	r1, #13
    52c4:	4801      	ldr	r0, [pc, #4]	; (52cc <tx_cb_USART_1+0xc>)
    52c6:	4b02      	ldr	r3, [pc, #8]	; (52d0 <tx_cb_USART_1+0x10>)
    52c8:	4798      	blx	r3
    52ca:	bd08      	pop	{r3, pc}
    52cc:	000066bc 	.word	0x000066bc
    52d0:	0000619d 	.word	0x0000619d

000052d4 <simcom_init>:
    52d4:	b538      	push	{r3, r4, r5, lr}
    52d6:	4c0a      	ldr	r4, [pc, #40]	; (5300 <simcom_init+0x2c>)
    52d8:	4a0a      	ldr	r2, [pc, #40]	; (5304 <simcom_init+0x30>)
    52da:	2101      	movs	r1, #1
    52dc:	4620      	mov	r0, r4
    52de:	4d0a      	ldr	r5, [pc, #40]	; (5308 <simcom_init+0x34>)
    52e0:	47a8      	blx	r5
    52e2:	4a0a      	ldr	r2, [pc, #40]	; (530c <simcom_init+0x38>)
    52e4:	2100      	movs	r1, #0
    52e6:	4620      	mov	r0, r4
    52e8:	47a8      	blx	r5
    52ea:	4909      	ldr	r1, [pc, #36]	; (5310 <simcom_init+0x3c>)
    52ec:	4620      	mov	r0, r4
    52ee:	4b09      	ldr	r3, [pc, #36]	; (5314 <simcom_init+0x40>)
    52f0:	4798      	blx	r3
    52f2:	4620      	mov	r0, r4
    52f4:	4b08      	ldr	r3, [pc, #32]	; (5318 <simcom_init+0x44>)
    52f6:	4798      	blx	r3
    52f8:	2014      	movs	r0, #20
    52fa:	4b08      	ldr	r3, [pc, #32]	; (531c <simcom_init+0x48>)
    52fc:	4798      	blx	r3
    52fe:	bd38      	pop	{r3, r4, r5, pc}
    5300:	200005b0 	.word	0x200005b0
    5304:	000052c1 	.word	0x000052c1
    5308:	0000164d 	.word	0x0000164d
    530c:	000052ad 	.word	0x000052ad
    5310:	200003e4 	.word	0x200003e4
    5314:	00001621 	.word	0x00001621
    5318:	000015f5 	.word	0x000015f5
    531c:	00000f21 	.word	0x00000f21

00005320 <simcom_send_and_receive>:
    5320:	b5f0      	push	{r4, r5, r6, r7, lr}
    5322:	b091      	sub	sp, #68	; 0x44
    5324:	4604      	mov	r4, r0
    5326:	460f      	mov	r7, r1
    5328:	2640      	movs	r6, #64	; 0x40
    532a:	4632      	mov	r2, r6
    532c:	2100      	movs	r1, #0
    532e:	4668      	mov	r0, sp
    5330:	4b0d      	ldr	r3, [pc, #52]	; (5368 <simcom_send_and_receive+0x48>)
    5332:	4798      	blx	r3
    5334:	4621      	mov	r1, r4
    5336:	4668      	mov	r0, sp
    5338:	4b0c      	ldr	r3, [pc, #48]	; (536c <simcom_send_and_receive+0x4c>)
    533a:	4798      	blx	r3
    533c:	4668      	mov	r0, sp
    533e:	4b0c      	ldr	r3, [pc, #48]	; (5370 <simcom_send_and_receive+0x50>)
    5340:	4798      	blx	r3
    5342:	4d0c      	ldr	r5, [pc, #48]	; (5374 <simcom_send_and_receive+0x54>)
    5344:	b282      	uxth	r2, r0
    5346:	4669      	mov	r1, sp
    5348:	6828      	ldr	r0, [r5, #0]
    534a:	4b0b      	ldr	r3, [pc, #44]	; (5378 <simcom_send_and_receive+0x58>)
    534c:	4798      	blx	r3
    534e:	2014      	movs	r0, #20
    5350:	4c0a      	ldr	r4, [pc, #40]	; (537c <simcom_send_and_receive+0x5c>)
    5352:	47a0      	blx	r4
    5354:	4632      	mov	r2, r6
    5356:	4639      	mov	r1, r7
    5358:	6828      	ldr	r0, [r5, #0]
    535a:	4b09      	ldr	r3, [pc, #36]	; (5380 <simcom_send_and_receive+0x60>)
    535c:	4798      	blx	r3
    535e:	2014      	movs	r0, #20
    5360:	47a0      	blx	r4
    5362:	b011      	add	sp, #68	; 0x44
    5364:	bdf0      	pop	{r4, r5, r6, r7, pc}
    5366:	bf00      	nop
    5368:	00006207 	.word	0x00006207
    536c:	00006217 	.word	0x00006217
    5370:	00006249 	.word	0x00006249
    5374:	200003e4 	.word	0x200003e4
    5378:	00001129 	.word	0x00001129
    537c:	00000f21 	.word	0x00000f21
    5380:	0000115d 	.word	0x0000115d

00005384 <simcom_receive>:
    5384:	b508      	push	{r3, lr}
    5386:	2240      	movs	r2, #64	; 0x40
    5388:	4601      	mov	r1, r0
    538a:	4b04      	ldr	r3, [pc, #16]	; (539c <simcom_receive+0x18>)
    538c:	6818      	ldr	r0, [r3, #0]
    538e:	4b04      	ldr	r3, [pc, #16]	; (53a0 <simcom_receive+0x1c>)
    5390:	4798      	blx	r3
    5392:	2014      	movs	r0, #20
    5394:	4b03      	ldr	r3, [pc, #12]	; (53a4 <simcom_receive+0x20>)
    5396:	4798      	blx	r3
    5398:	bd08      	pop	{r3, pc}
    539a:	bf00      	nop
    539c:	200003e4 	.word	0x200003e4
    53a0:	0000115d 	.word	0x0000115d
    53a4:	00000f21 	.word	0x00000f21

000053a8 <spi_init>:
    53a8:	b510      	push	{r4, lr}
    53aa:	4c04      	ldr	r4, [pc, #16]	; (53bc <spi_init+0x14>)
    53ac:	4904      	ldr	r1, [pc, #16]	; (53c0 <spi_init+0x18>)
    53ae:	4620      	mov	r0, r4
    53b0:	4b04      	ldr	r3, [pc, #16]	; (53c4 <spi_init+0x1c>)
    53b2:	4798      	blx	r3
    53b4:	4620      	mov	r0, r4
    53b6:	4b04      	ldr	r3, [pc, #16]	; (53c8 <spi_init+0x20>)
    53b8:	4798      	blx	r3
    53ba:	bd10      	pop	{r4, pc}
    53bc:	20000548 	.word	0x20000548
    53c0:	200003e8 	.word	0x200003e8
    53c4:	000012e9 	.word	0x000012e9
    53c8:	00001205 	.word	0x00001205

000053cc <spi_write_reg>:
    53cc:	b530      	push	{r4, r5, lr}
    53ce:	b083      	sub	sp, #12
    53d0:	2302      	movs	r3, #2
    53d2:	f88d 3004 	strb.w	r3, [sp, #4]
    53d6:	f88d 0005 	strb.w	r0, [sp, #5]
    53da:	f88d 1006 	strb.w	r1, [sp, #6]
    53de:	4c06      	ldr	r4, [pc, #24]	; (53f8 <spi_write_reg+0x2c>)
    53e0:	f44f 4580 	mov.w	r5, #16384	; 0x4000
    53e4:	6165      	str	r5, [r4, #20]
    53e6:	2203      	movs	r2, #3
    53e8:	a901      	add	r1, sp, #4
    53ea:	4b04      	ldr	r3, [pc, #16]	; (53fc <spi_write_reg+0x30>)
    53ec:	6818      	ldr	r0, [r3, #0]
    53ee:	4b04      	ldr	r3, [pc, #16]	; (5400 <spi_write_reg+0x34>)
    53f0:	4798      	blx	r3
    53f2:	61a5      	str	r5, [r4, #24]
    53f4:	b003      	add	sp, #12
    53f6:	bd30      	pop	{r4, r5, pc}
    53f8:	41008000 	.word	0x41008000
    53fc:	200003e8 	.word	0x200003e8
    5400:	00001129 	.word	0x00001129

00005404 <spi_read_reg>:
    5404:	b5f0      	push	{r4, r5, r6, r7, lr}
    5406:	b083      	sub	sp, #12
    5408:	460f      	mov	r7, r1
    540a:	2303      	movs	r3, #3
    540c:	f88d 3004 	strb.w	r3, [sp, #4]
    5410:	f88d 0005 	strb.w	r0, [sp, #5]
    5414:	4c08      	ldr	r4, [pc, #32]	; (5438 <spi_read_reg+0x34>)
    5416:	f44f 4580 	mov.w	r5, #16384	; 0x4000
    541a:	6165      	str	r5, [r4, #20]
    541c:	4e07      	ldr	r6, [pc, #28]	; (543c <spi_read_reg+0x38>)
    541e:	2202      	movs	r2, #2
    5420:	a901      	add	r1, sp, #4
    5422:	6830      	ldr	r0, [r6, #0]
    5424:	4b06      	ldr	r3, [pc, #24]	; (5440 <spi_read_reg+0x3c>)
    5426:	4798      	blx	r3
    5428:	2201      	movs	r2, #1
    542a:	4639      	mov	r1, r7
    542c:	6830      	ldr	r0, [r6, #0]
    542e:	4b05      	ldr	r3, [pc, #20]	; (5444 <spi_read_reg+0x40>)
    5430:	4798      	blx	r3
    5432:	61a5      	str	r5, [r4, #24]
    5434:	b003      	add	sp, #12
    5436:	bdf0      	pop	{r4, r5, r6, r7, pc}
    5438:	41008000 	.word	0x41008000
    543c:	200003e8 	.word	0x200003e8
    5440:	00001129 	.word	0x00001129
    5444:	0000115d 	.word	0x0000115d

00005448 <cdcdf_acm_get_req>:
    5448:	b510      	push	{r4, lr}
    544a:	88cc      	ldrh	r4, [r1, #6]
    544c:	2a01      	cmp	r2, #1
    544e:	d00a      	beq.n	5466 <cdcdf_acm_get_req+0x1e>
    5450:	784b      	ldrb	r3, [r1, #1]
    5452:	2b21      	cmp	r3, #33	; 0x21
    5454:	d109      	bne.n	546a <cdcdf_acm_get_req+0x22>
    5456:	2c07      	cmp	r4, #7
    5458:	d10a      	bne.n	5470 <cdcdf_acm_get_req+0x28>
    545a:	2300      	movs	r3, #0
    545c:	4622      	mov	r2, r4
    545e:	4906      	ldr	r1, [pc, #24]	; (5478 <cdcdf_acm_get_req+0x30>)
    5460:	4c06      	ldr	r4, [pc, #24]	; (547c <cdcdf_acm_get_req+0x34>)
    5462:	47a0      	blx	r4
    5464:	bd10      	pop	{r4, pc}
    5466:	2000      	movs	r0, #0
    5468:	bd10      	pop	{r4, pc}
    546a:	f06f 000c 	mvn.w	r0, #12
    546e:	bd10      	pop	{r4, pc}
    5470:	f04f 30ff 	mov.w	r0, #4294967295
    5474:	bd10      	pop	{r4, pc}
    5476:	bf00      	nop
    5478:	200003ec 	.word	0x200003ec
    547c:	000059ed 	.word	0x000059ed

00005480 <cdcdf_acm_set_req>:
    5480:	b5f0      	push	{r4, r5, r6, r7, lr}
    5482:	b083      	sub	sp, #12
    5484:	4607      	mov	r7, r0
    5486:	460c      	mov	r4, r1
    5488:	4616      	mov	r6, r2
    548a:	88cd      	ldrh	r5, [r1, #6]
    548c:	4b20      	ldr	r3, [pc, #128]	; (5510 <cdcdf_acm_set_req+0x90>)
    548e:	4798      	blx	r3
    5490:	7863      	ldrb	r3, [r4, #1]
    5492:	2b20      	cmp	r3, #32
    5494:	d005      	beq.n	54a2 <cdcdf_acm_set_req+0x22>
    5496:	2b22      	cmp	r3, #34	; 0x22
    5498:	d025      	beq.n	54e6 <cdcdf_acm_set_req+0x66>
    549a:	f06f 000c 	mvn.w	r0, #12
    549e:	b003      	add	sp, #12
    54a0:	bdf0      	pop	{r4, r5, r6, r7, pc}
    54a2:	4601      	mov	r1, r0
    54a4:	2d07      	cmp	r5, #7
    54a6:	d12b      	bne.n	5500 <cdcdf_acm_set_req+0x80>
    54a8:	b1be      	cbz	r6, 54da <cdcdf_acm_set_req+0x5a>
    54aa:	6800      	ldr	r0, [r0, #0]
    54ac:	9000      	str	r0, [sp, #0]
    54ae:	888a      	ldrh	r2, [r1, #4]
    54b0:	798b      	ldrb	r3, [r1, #6]
    54b2:	f8ad 2004 	strh.w	r2, [sp, #4]
    54b6:	f88d 3006 	strb.w	r3, [sp, #6]
    54ba:	4b16      	ldr	r3, [pc, #88]	; (5514 <cdcdf_acm_set_req+0x94>)
    54bc:	689b      	ldr	r3, [r3, #8]
    54be:	b113      	cbz	r3, 54c6 <cdcdf_acm_set_req+0x46>
    54c0:	4668      	mov	r0, sp
    54c2:	4798      	blx	r3
    54c4:	b1f8      	cbz	r0, 5506 <cdcdf_acm_set_req+0x86>
    54c6:	4b13      	ldr	r3, [pc, #76]	; (5514 <cdcdf_acm_set_req+0x94>)
    54c8:	aa02      	add	r2, sp, #8
    54ca:	e912 0003 	ldmdb	r2, {r0, r1}
    54ce:	6018      	str	r0, [r3, #0]
    54d0:	8099      	strh	r1, [r3, #4]
    54d2:	0c09      	lsrs	r1, r1, #16
    54d4:	7199      	strb	r1, [r3, #6]
    54d6:	2000      	movs	r0, #0
    54d8:	e7e1      	b.n	549e <cdcdf_acm_set_req+0x1e>
    54da:	2300      	movs	r3, #0
    54dc:	462a      	mov	r2, r5
    54de:	4638      	mov	r0, r7
    54e0:	4c0d      	ldr	r4, [pc, #52]	; (5518 <cdcdf_acm_set_req+0x98>)
    54e2:	47a0      	blx	r4
    54e4:	e7db      	b.n	549e <cdcdf_acm_set_req+0x1e>
    54e6:	2300      	movs	r3, #0
    54e8:	461a      	mov	r2, r3
    54ea:	4619      	mov	r1, r3
    54ec:	4618      	mov	r0, r3
    54ee:	4d0a      	ldr	r5, [pc, #40]	; (5518 <cdcdf_acm_set_req+0x98>)
    54f0:	47a8      	blx	r5
    54f2:	4b08      	ldr	r3, [pc, #32]	; (5514 <cdcdf_acm_set_req+0x94>)
    54f4:	68db      	ldr	r3, [r3, #12]
    54f6:	b143      	cbz	r3, 550a <cdcdf_acm_set_req+0x8a>
    54f8:	8860      	ldrh	r0, [r4, #2]
    54fa:	4798      	blx	r3
    54fc:	2000      	movs	r0, #0
    54fe:	e7ce      	b.n	549e <cdcdf_acm_set_req+0x1e>
    5500:	f04f 30ff 	mov.w	r0, #4294967295
    5504:	e7cb      	b.n	549e <cdcdf_acm_set_req+0x1e>
    5506:	2000      	movs	r0, #0
    5508:	e7c9      	b.n	549e <cdcdf_acm_set_req+0x1e>
    550a:	2000      	movs	r0, #0
    550c:	e7c7      	b.n	549e <cdcdf_acm_set_req+0x1e>
    550e:	bf00      	nop
    5510:	00005f4d 	.word	0x00005f4d
    5514:	200003ec 	.word	0x200003ec
    5518:	000059ed 	.word	0x000059ed

0000551c <cdcdf_acm_req>:
    551c:	b538      	push	{r3, r4, r5, lr}
    551e:	780b      	ldrb	r3, [r1, #0]
    5520:	f3c3 1441 	ubfx	r4, r3, #5, #2
    5524:	2c01      	cmp	r4, #1
    5526:	d111      	bne.n	554c <cdcdf_acm_req+0x30>
    5528:	888c      	ldrh	r4, [r1, #4]
    552a:	4d0b      	ldr	r5, [pc, #44]	; (5558 <cdcdf_acm_req+0x3c>)
    552c:	7c2d      	ldrb	r5, [r5, #16]
    552e:	42ac      	cmp	r4, r5
    5530:	d003      	beq.n	553a <cdcdf_acm_req+0x1e>
    5532:	4d09      	ldr	r5, [pc, #36]	; (5558 <cdcdf_acm_req+0x3c>)
    5534:	7c6d      	ldrb	r5, [r5, #17]
    5536:	42ac      	cmp	r4, r5
    5538:	d10b      	bne.n	5552 <cdcdf_acm_req+0x36>
    553a:	f013 0f80 	tst.w	r3, #128	; 0x80
    553e:	d102      	bne.n	5546 <cdcdf_acm_req+0x2a>
    5540:	4b06      	ldr	r3, [pc, #24]	; (555c <cdcdf_acm_req+0x40>)
    5542:	4798      	blx	r3
    5544:	bd38      	pop	{r3, r4, r5, pc}
    5546:	4b06      	ldr	r3, [pc, #24]	; (5560 <cdcdf_acm_req+0x44>)
    5548:	4798      	blx	r3
    554a:	bd38      	pop	{r3, r4, r5, pc}
    554c:	f06f 0009 	mvn.w	r0, #9
    5550:	bd38      	pop	{r3, r4, r5, pc}
    5552:	f06f 0009 	mvn.w	r0, #9
    5556:	bd38      	pop	{r3, r4, r5, pc}
    5558:	200003ec 	.word	0x200003ec
    555c:	00005481 	.word	0x00005481
    5560:	00005449 	.word	0x00005449

00005564 <cdcdf_acm_enable>:
    5564:	e92d 43f8 	stmdb	sp!, {r3, r4, r5, r6, r7, r8, r9, lr}
    5568:	460e      	mov	r6, r1
    556a:	6887      	ldr	r7, [r0, #8]
    556c:	6808      	ldr	r0, [r1, #0]
    556e:	f04f 0800 	mov.w	r8, #0
    5572:	f1b8 0f01 	cmp.w	r8, #1
    5576:	d843      	bhi.n	5600 <cdcdf_acm_enable+0x9c>
    5578:	2800      	cmp	r0, #0
    557a:	d047      	beq.n	560c <cdcdf_acm_enable+0xa8>
    557c:	7883      	ldrb	r3, [r0, #2]
    557e:	7942      	ldrb	r2, [r0, #5]
    5580:	2a02      	cmp	r2, #2
    5582:	d001      	beq.n	5588 <cdcdf_acm_enable+0x24>
    5584:	2a0a      	cmp	r2, #10
    5586:	d145      	bne.n	5614 <cdcdf_acm_enable+0xb0>
    5588:	46c1      	mov	r9, r8
    558a:	f817 2008 	ldrb.w	r2, [r7, r8]
    558e:	4293      	cmp	r3, r2
    5590:	d044      	beq.n	561c <cdcdf_acm_enable+0xb8>
    5592:	2aff      	cmp	r2, #255	; 0xff
    5594:	d146      	bne.n	5624 <cdcdf_acm_enable+0xc0>
    5596:	f807 3008 	strb.w	r3, [r7, r8]
    559a:	2205      	movs	r2, #5
    559c:	6871      	ldr	r1, [r6, #4]
    559e:	4b25      	ldr	r3, [pc, #148]	; (5634 <cdcdf_acm_enable+0xd0>)
    55a0:	4798      	blx	r3
    55a2:	4604      	mov	r4, r0
    55a4:	e00c      	b.n	55c0 <cdcdf_acm_enable+0x5c>
    55a6:	eb07 0309 	add.w	r3, r7, r9
    55aa:	709d      	strb	r5, [r3, #2]
    55ac:	4628      	mov	r0, r5
    55ae:	4b22      	ldr	r3, [pc, #136]	; (5638 <cdcdf_acm_enable+0xd4>)
    55b0:	4798      	blx	r3
    55b2:	6034      	str	r4, [r6, #0]
    55b4:	7820      	ldrb	r0, [r4, #0]
    55b6:	6871      	ldr	r1, [r6, #4]
    55b8:	4420      	add	r0, r4
    55ba:	4b20      	ldr	r3, [pc, #128]	; (563c <cdcdf_acm_enable+0xd8>)
    55bc:	4798      	blx	r3
    55be:	4604      	mov	r4, r0
    55c0:	b194      	cbz	r4, 55e8 <cdcdf_acm_enable+0x84>
    55c2:	78a5      	ldrb	r5, [r4, #2]
    55c4:	7922      	ldrb	r2, [r4, #4]
    55c6:	7963      	ldrb	r3, [r4, #5]
    55c8:	eb02 2203 	add.w	r2, r2, r3, lsl #8
    55cc:	b292      	uxth	r2, r2
    55ce:	78e1      	ldrb	r1, [r4, #3]
    55d0:	4628      	mov	r0, r5
    55d2:	4b1b      	ldr	r3, [pc, #108]	; (5640 <cdcdf_acm_enable+0xdc>)
    55d4:	4798      	blx	r3
    55d6:	bb48      	cbnz	r0, 562c <cdcdf_acm_enable+0xc8>
    55d8:	f015 0f80 	tst.w	r5, #128	; 0x80
    55dc:	d1e3      	bne.n	55a6 <cdcdf_acm_enable+0x42>
    55de:	713d      	strb	r5, [r7, #4]
    55e0:	4628      	mov	r0, r5
    55e2:	4b15      	ldr	r3, [pc, #84]	; (5638 <cdcdf_acm_enable+0xd4>)
    55e4:	4798      	blx	r3
    55e6:	e7e4      	b.n	55b2 <cdcdf_acm_enable+0x4e>
    55e8:	6833      	ldr	r3, [r6, #0]
    55ea:	7818      	ldrb	r0, [r3, #0]
    55ec:	2204      	movs	r2, #4
    55ee:	6871      	ldr	r1, [r6, #4]
    55f0:	4418      	add	r0, r3
    55f2:	4b10      	ldr	r3, [pc, #64]	; (5634 <cdcdf_acm_enable+0xd0>)
    55f4:	4798      	blx	r3
    55f6:	f108 0801 	add.w	r8, r8, #1
    55fa:	fa5f f888 	uxtb.w	r8, r8
    55fe:	e7b8      	b.n	5572 <cdcdf_acm_enable+0xe>
    5600:	2201      	movs	r2, #1
    5602:	4b10      	ldr	r3, [pc, #64]	; (5644 <cdcdf_acm_enable+0xe0>)
    5604:	755a      	strb	r2, [r3, #21]
    5606:	2000      	movs	r0, #0
    5608:	e8bd 83f8 	ldmia.w	sp!, {r3, r4, r5, r6, r7, r8, r9, pc}
    560c:	f06f 0009 	mvn.w	r0, #9
    5610:	e8bd 83f8 	ldmia.w	sp!, {r3, r4, r5, r6, r7, r8, r9, pc}
    5614:	f06f 0009 	mvn.w	r0, #9
    5618:	e8bd 83f8 	ldmia.w	sp!, {r3, r4, r5, r6, r7, r8, r9, pc}
    561c:	f06f 0011 	mvn.w	r0, #17
    5620:	e8bd 83f8 	ldmia.w	sp!, {r3, r4, r5, r6, r7, r8, r9, pc}
    5624:	f06f 001b 	mvn.w	r0, #27
    5628:	e8bd 83f8 	ldmia.w	sp!, {r3, r4, r5, r6, r7, r8, r9, pc}
    562c:	f06f 0013 	mvn.w	r0, #19
    5630:	e8bd 83f8 	ldmia.w	sp!, {r3, r4, r5, r6, r7, r8, r9, pc}
    5634:	00005f6d 	.word	0x00005f6d
    5638:	00001a4d 	.word	0x00001a4d
    563c:	00005fa1 	.word	0x00005fa1
    5640:	000019b9 	.word	0x000019b9
    5644:	200003ec 	.word	0x200003ec

00005648 <cdcdf_acm_disable>:
    5648:	b570      	push	{r4, r5, r6, lr}
    564a:	6886      	ldr	r6, [r0, #8]
    564c:	b1d9      	cbz	r1, 5686 <cdcdf_acm_disable+0x3e>
    564e:	680b      	ldr	r3, [r1, #0]
    5650:	795b      	ldrb	r3, [r3, #5]
    5652:	2b02      	cmp	r3, #2
    5654:	d019      	beq.n	568a <cdcdf_acm_disable+0x42>
    5656:	2b0a      	cmp	r3, #10
    5658:	d124      	bne.n	56a4 <cdcdf_acm_disable+0x5c>
    565a:	2400      	movs	r4, #0
    565c:	e001      	b.n	5662 <cdcdf_acm_disable+0x1a>
    565e:	3401      	adds	r4, #1
    5660:	b2e4      	uxtb	r4, r4
    5662:	2c01      	cmp	r4, #1
    5664:	d813      	bhi.n	568e <cdcdf_acm_disable+0x46>
    5666:	4625      	mov	r5, r4
    5668:	5d33      	ldrb	r3, [r6, r4]
    566a:	2bff      	cmp	r3, #255	; 0xff
    566c:	d0f7      	beq.n	565e <cdcdf_acm_disable+0x16>
    566e:	23ff      	movs	r3, #255	; 0xff
    5670:	5533      	strb	r3, [r6, r4]
    5672:	1933      	adds	r3, r6, r4
    5674:	7898      	ldrb	r0, [r3, #2]
    5676:	28ff      	cmp	r0, #255	; 0xff
    5678:	d0f1      	beq.n	565e <cdcdf_acm_disable+0x16>
    567a:	4b0c      	ldr	r3, [pc, #48]	; (56ac <cdcdf_acm_disable+0x64>)
    567c:	4798      	blx	r3
    567e:	4435      	add	r5, r6
    5680:	23ff      	movs	r3, #255	; 0xff
    5682:	70ab      	strb	r3, [r5, #2]
    5684:	e7eb      	b.n	565e <cdcdf_acm_disable+0x16>
    5686:	2400      	movs	r4, #0
    5688:	e7eb      	b.n	5662 <cdcdf_acm_disable+0x1a>
    568a:	2400      	movs	r4, #0
    568c:	e7e9      	b.n	5662 <cdcdf_acm_disable+0x1a>
    568e:	7930      	ldrb	r0, [r6, #4]
    5690:	28ff      	cmp	r0, #255	; 0xff
    5692:	d003      	beq.n	569c <cdcdf_acm_disable+0x54>
    5694:	4b05      	ldr	r3, [pc, #20]	; (56ac <cdcdf_acm_disable+0x64>)
    5696:	4798      	blx	r3
    5698:	23ff      	movs	r3, #255	; 0xff
    569a:	7133      	strb	r3, [r6, #4]
    569c:	2000      	movs	r0, #0
    569e:	4b04      	ldr	r3, [pc, #16]	; (56b0 <cdcdf_acm_disable+0x68>)
    56a0:	7558      	strb	r0, [r3, #21]
    56a2:	bd70      	pop	{r4, r5, r6, pc}
    56a4:	f06f 0009 	mvn.w	r0, #9
    56a8:	bd70      	pop	{r4, r5, r6, pc}
    56aa:	bf00      	nop
    56ac:	00001a21 	.word	0x00001a21
    56b0:	200003ec 	.word	0x200003ec

000056b4 <cdcdf_acm_ctrl>:
    56b4:	b508      	push	{r3, lr}
    56b6:	2901      	cmp	r1, #1
    56b8:	d009      	beq.n	56ce <cdcdf_acm_ctrl+0x1a>
    56ba:	b121      	cbz	r1, 56c6 <cdcdf_acm_ctrl+0x12>
    56bc:	2902      	cmp	r1, #2
    56be:	d10a      	bne.n	56d6 <cdcdf_acm_ctrl+0x22>
    56c0:	f06f 001a 	mvn.w	r0, #26
    56c4:	bd08      	pop	{r3, pc}
    56c6:	4611      	mov	r1, r2
    56c8:	4b04      	ldr	r3, [pc, #16]	; (56dc <cdcdf_acm_ctrl+0x28>)
    56ca:	4798      	blx	r3
    56cc:	bd08      	pop	{r3, pc}
    56ce:	4611      	mov	r1, r2
    56d0:	4b03      	ldr	r3, [pc, #12]	; (56e0 <cdcdf_acm_ctrl+0x2c>)
    56d2:	4798      	blx	r3
    56d4:	bd08      	pop	{r3, pc}
    56d6:	f06f 000c 	mvn.w	r0, #12
    56da:	bd08      	pop	{r3, pc}
    56dc:	00005565 	.word	0x00005565
    56e0:	00005649 	.word	0x00005649

000056e4 <cdcdf_acm_init>:
    56e4:	b508      	push	{r3, lr}
    56e6:	4b0b      	ldr	r3, [pc, #44]	; (5714 <cdcdf_acm_init+0x30>)
    56e8:	4798      	blx	r3
    56ea:	2801      	cmp	r0, #1
    56ec:	d80e      	bhi.n	570c <cdcdf_acm_init+0x28>
    56ee:	480a      	ldr	r0, [pc, #40]	; (5718 <cdcdf_acm_init+0x34>)
    56f0:	4b0a      	ldr	r3, [pc, #40]	; (571c <cdcdf_acm_init+0x38>)
    56f2:	61c3      	str	r3, [r0, #28]
    56f4:	f100 0310 	add.w	r3, r0, #16
    56f8:	6203      	str	r3, [r0, #32]
    56fa:	3018      	adds	r0, #24
    56fc:	4b08      	ldr	r3, [pc, #32]	; (5720 <cdcdf_acm_init+0x3c>)
    56fe:	4798      	blx	r3
    5700:	4908      	ldr	r1, [pc, #32]	; (5724 <cdcdf_acm_init+0x40>)
    5702:	2001      	movs	r0, #1
    5704:	4b08      	ldr	r3, [pc, #32]	; (5728 <cdcdf_acm_init+0x44>)
    5706:	4798      	blx	r3
    5708:	2000      	movs	r0, #0
    570a:	bd08      	pop	{r3, pc}
    570c:	f06f 0010 	mvn.w	r0, #16
    5710:	bd08      	pop	{r3, pc}
    5712:	bf00      	nop
    5714:	00005f59 	.word	0x00005f59
    5718:	200003ec 	.word	0x200003ec
    571c:	000056b5 	.word	0x000056b5
    5720:	00005ef9 	.word	0x00005ef9
    5724:	2000001c 	.word	0x2000001c
    5728:	00005e65 	.word	0x00005e65

0000572c <cdcdf_acm_is_enabled>:
    572c:	4b01      	ldr	r3, [pc, #4]	; (5734 <cdcdf_acm_is_enabled+0x8>)
    572e:	7d58      	ldrb	r0, [r3, #21]
    5730:	4770      	bx	lr
    5732:	bf00      	nop
    5734:	200003ec 	.word	0x200003ec

00005738 <cdcdf_acm_read>:
    5738:	b538      	push	{r3, r4, r5, lr}
    573a:	4604      	mov	r4, r0
    573c:	460d      	mov	r5, r1
    573e:	4b07      	ldr	r3, [pc, #28]	; (575c <cdcdf_acm_read+0x24>)
    5740:	4798      	blx	r3
    5742:	b138      	cbz	r0, 5754 <cdcdf_acm_read+0x1c>
    5744:	2300      	movs	r3, #0
    5746:	462a      	mov	r2, r5
    5748:	4621      	mov	r1, r4
    574a:	4805      	ldr	r0, [pc, #20]	; (5760 <cdcdf_acm_read+0x28>)
    574c:	7d00      	ldrb	r0, [r0, #20]
    574e:	4c05      	ldr	r4, [pc, #20]	; (5764 <cdcdf_acm_read+0x2c>)
    5750:	47a0      	blx	r4
    5752:	bd38      	pop	{r3, r4, r5, pc}
    5754:	f06f 0010 	mvn.w	r0, #16
    5758:	bd38      	pop	{r3, r4, r5, pc}
    575a:	bf00      	nop
    575c:	0000572d 	.word	0x0000572d
    5760:	200003ec 	.word	0x200003ec
    5764:	000059ed 	.word	0x000059ed

00005768 <cdcdf_acm_write>:
    5768:	b538      	push	{r3, r4, r5, lr}
    576a:	4604      	mov	r4, r0
    576c:	460d      	mov	r5, r1
    576e:	4b07      	ldr	r3, [pc, #28]	; (578c <cdcdf_acm_write+0x24>)
    5770:	4798      	blx	r3
    5772:	b138      	cbz	r0, 5784 <cdcdf_acm_write+0x1c>
    5774:	2301      	movs	r3, #1
    5776:	462a      	mov	r2, r5
    5778:	4621      	mov	r1, r4
    577a:	4805      	ldr	r0, [pc, #20]	; (5790 <cdcdf_acm_write+0x28>)
    577c:	7cc0      	ldrb	r0, [r0, #19]
    577e:	4c05      	ldr	r4, [pc, #20]	; (5794 <cdcdf_acm_write+0x2c>)
    5780:	47a0      	blx	r4
    5782:	bd38      	pop	{r3, r4, r5, pc}
    5784:	f06f 0010 	mvn.w	r0, #16
    5788:	bd38      	pop	{r3, r4, r5, pc}
    578a:	bf00      	nop
    578c:	0000572d 	.word	0x0000572d
    5790:	200003ec 	.word	0x200003ec
    5794:	000059ed 	.word	0x000059ed

00005798 <usbdc_unconfig>:
    5798:	b510      	push	{r4, lr}
    579a:	4b06      	ldr	r3, [pc, #24]	; (57b4 <usbdc_unconfig+0x1c>)
    579c:	691c      	ldr	r4, [r3, #16]
    579e:	e005      	b.n	57ac <usbdc_unconfig+0x14>
    57a0:	6863      	ldr	r3, [r4, #4]
    57a2:	2200      	movs	r2, #0
    57a4:	2101      	movs	r1, #1
    57a6:	4620      	mov	r0, r4
    57a8:	4798      	blx	r3
    57aa:	6824      	ldr	r4, [r4, #0]
    57ac:	2c00      	cmp	r4, #0
    57ae:	d1f7      	bne.n	57a0 <usbdc_unconfig+0x8>
    57b0:	bd10      	pop	{r4, pc}
    57b2:	bf00      	nop
    57b4:	20000410 	.word	0x20000410

000057b8 <usbdc_sof_notify>:
    57b8:	b510      	push	{r4, lr}
    57ba:	4b05      	ldr	r3, [pc, #20]	; (57d0 <usbdc_sof_notify+0x18>)
    57bc:	685c      	ldr	r4, [r3, #4]
    57be:	e000      	b.n	57c2 <usbdc_sof_notify+0xa>
    57c0:	6824      	ldr	r4, [r4, #0]
    57c2:	b124      	cbz	r4, 57ce <usbdc_sof_notify+0x16>
    57c4:	6863      	ldr	r3, [r4, #4]
    57c6:	2b00      	cmp	r3, #0
    57c8:	d0fa      	beq.n	57c0 <usbdc_sof_notify+0x8>
    57ca:	4798      	blx	r3
    57cc:	e7f8      	b.n	57c0 <usbdc_sof_notify+0x8>
    57ce:	bd10      	pop	{r4, pc}
    57d0:	20000410 	.word	0x20000410

000057d4 <usbdc_change_notify>:
    57d4:	b570      	push	{r4, r5, r6, lr}
    57d6:	4606      	mov	r6, r0
    57d8:	460d      	mov	r5, r1
    57da:	4b06      	ldr	r3, [pc, #24]	; (57f4 <usbdc_change_notify+0x20>)
    57dc:	68dc      	ldr	r4, [r3, #12]
    57de:	e000      	b.n	57e2 <usbdc_change_notify+0xe>
    57e0:	6824      	ldr	r4, [r4, #0]
    57e2:	b134      	cbz	r4, 57f2 <usbdc_change_notify+0x1e>
    57e4:	6863      	ldr	r3, [r4, #4]
    57e6:	2b00      	cmp	r3, #0
    57e8:	d0fa      	beq.n	57e0 <usbdc_change_notify+0xc>
    57ea:	4629      	mov	r1, r5
    57ec:	4630      	mov	r0, r6
    57ee:	4798      	blx	r3
    57f0:	e7f6      	b.n	57e0 <usbdc_change_notify+0xc>
    57f2:	bd70      	pop	{r4, r5, r6, pc}
    57f4:	20000410 	.word	0x20000410

000057f8 <usbdc_request_handler>:
    57f8:	b5f8      	push	{r3, r4, r5, r6, r7, lr}
    57fa:	4607      	mov	r7, r0
    57fc:	460e      	mov	r6, r1
    57fe:	4615      	mov	r5, r2
    5800:	4b0b      	ldr	r3, [pc, #44]	; (5830 <usbdc_request_handler+0x38>)
    5802:	689c      	ldr	r4, [r3, #8]
    5804:	e000      	b.n	5808 <usbdc_request_handler+0x10>
    5806:	6824      	ldr	r4, [r4, #0]
    5808:	b16c      	cbz	r4, 5826 <usbdc_request_handler+0x2e>
    580a:	6863      	ldr	r3, [r4, #4]
    580c:	2b00      	cmp	r3, #0
    580e:	d0fa      	beq.n	5806 <usbdc_request_handler+0xe>
    5810:	462a      	mov	r2, r5
    5812:	4631      	mov	r1, r6
    5814:	4638      	mov	r0, r7
    5816:	4798      	blx	r3
    5818:	b138      	cbz	r0, 582a <usbdc_request_handler+0x32>
    581a:	f110 0f0a 	cmn.w	r0, #10
    581e:	d0f2      	beq.n	5806 <usbdc_request_handler+0xe>
    5820:	f04f 30ff 	mov.w	r0, #4294967295
    5824:	bdf8      	pop	{r3, r4, r5, r6, r7, pc}
    5826:	2000      	movs	r0, #0
    5828:	bdf8      	pop	{r3, r4, r5, r6, r7, pc}
    582a:	2001      	movs	r0, #1
    582c:	bdf8      	pop	{r3, r4, r5, r6, r7, pc}
    582e:	bf00      	nop
    5830:	20000410 	.word	0x20000410

00005834 <usbd_sof_cb>:
    5834:	b508      	push	{r3, lr}
    5836:	4b01      	ldr	r3, [pc, #4]	; (583c <usbd_sof_cb+0x8>)
    5838:	4798      	blx	r3
    583a:	bd08      	pop	{r3, pc}
    583c:	000057b9 	.word	0x000057b9

00005840 <usbdc_ctrl_data_end>:
    5840:	b508      	push	{r3, lr}
    5842:	2201      	movs	r2, #1
    5844:	4601      	mov	r1, r0
    5846:	2000      	movs	r0, #0
    5848:	4b01      	ldr	r3, [pc, #4]	; (5850 <usbdc_ctrl_data_end+0x10>)
    584a:	4798      	blx	r3
    584c:	2000      	movs	r0, #0
    584e:	bd08      	pop	{r3, pc}
    5850:	000057f9 	.word	0x000057f9

00005854 <usbdc_set_address>:
    5854:	b508      	push	{r3, lr}
    5856:	4b01      	ldr	r3, [pc, #4]	; (585c <usbdc_set_address+0x8>)
    5858:	4798      	blx	r3
    585a:	bd08      	pop	{r3, pc}
    585c:	000019ad 	.word	0x000019ad

00005860 <usbdc_ctrl_status_end>:
    5860:	7803      	ldrb	r3, [r0, #0]
    5862:	bb1b      	cbnz	r3, 58ac <usbdc_ctrl_status_end+0x4c>
    5864:	b510      	push	{r4, lr}
    5866:	4604      	mov	r4, r0
    5868:	7843      	ldrb	r3, [r0, #1]
    586a:	2b05      	cmp	r3, #5
    586c:	d00f      	beq.n	588e <usbdc_ctrl_status_end+0x2e>
    586e:	2b09      	cmp	r3, #9
    5870:	d119      	bne.n	58a6 <usbdc_ctrl_status_end+0x46>
    5872:	8842      	ldrh	r2, [r0, #2]
    5874:	4b0e      	ldr	r3, [pc, #56]	; (58b0 <usbdc_ctrl_status_end+0x50>)
    5876:	76da      	strb	r2, [r3, #27]
    5878:	8843      	ldrh	r3, [r0, #2]
    587a:	b933      	cbnz	r3, 588a <usbdc_ctrl_status_end+0x2a>
    587c:	2103      	movs	r1, #3
    587e:	4b0c      	ldr	r3, [pc, #48]	; (58b0 <usbdc_ctrl_status_end+0x50>)
    5880:	7699      	strb	r1, [r3, #26]
    5882:	2001      	movs	r0, #1
    5884:	4b0b      	ldr	r3, [pc, #44]	; (58b4 <usbdc_ctrl_status_end+0x54>)
    5886:	4798      	blx	r3
    5888:	bd10      	pop	{r4, pc}
    588a:	2104      	movs	r1, #4
    588c:	e7f7      	b.n	587e <usbdc_ctrl_status_end+0x1e>
    588e:	8840      	ldrh	r0, [r0, #2]
    5890:	b2c0      	uxtb	r0, r0
    5892:	4b09      	ldr	r3, [pc, #36]	; (58b8 <usbdc_ctrl_status_end+0x58>)
    5894:	4798      	blx	r3
    5896:	8863      	ldrh	r3, [r4, #2]
    5898:	b133      	cbz	r3, 58a8 <usbdc_ctrl_status_end+0x48>
    589a:	2103      	movs	r1, #3
    589c:	4b04      	ldr	r3, [pc, #16]	; (58b0 <usbdc_ctrl_status_end+0x50>)
    589e:	7699      	strb	r1, [r3, #26]
    58a0:	2001      	movs	r0, #1
    58a2:	4b04      	ldr	r3, [pc, #16]	; (58b4 <usbdc_ctrl_status_end+0x54>)
    58a4:	4798      	blx	r3
    58a6:	bd10      	pop	{r4, pc}
    58a8:	2102      	movs	r1, #2
    58aa:	e7f7      	b.n	589c <usbdc_ctrl_status_end+0x3c>
    58ac:	4770      	bx	lr
    58ae:	bf00      	nop
    58b0:	20000410 	.word	0x20000410
    58b4:	000057d5 	.word	0x000057d5
    58b8:	00005855 	.word	0x00005855

000058bc <usbdc_cb_ctl_done>:
    58bc:	b508      	push	{r3, lr}
    58be:	b119      	cbz	r1, 58c8 <usbdc_cb_ctl_done+0xc>
    58c0:	2901      	cmp	r1, #1
    58c2:	d006      	beq.n	58d2 <usbdc_cb_ctl_done+0x16>
    58c4:	2000      	movs	r0, #0
    58c6:	bd08      	pop	{r3, pc}
    58c8:	4610      	mov	r0, r2
    58ca:	4b04      	ldr	r3, [pc, #16]	; (58dc <usbdc_cb_ctl_done+0x20>)
    58cc:	4798      	blx	r3
    58ce:	2000      	movs	r0, #0
    58d0:	bd08      	pop	{r3, pc}
    58d2:	4610      	mov	r0, r2
    58d4:	4b02      	ldr	r3, [pc, #8]	; (58e0 <usbdc_cb_ctl_done+0x24>)
    58d6:	4798      	blx	r3
    58d8:	bd08      	pop	{r3, pc}
    58da:	bf00      	nop
    58dc:	00005861 	.word	0x00005861
    58e0:	00005841 	.word	0x00005841

000058e4 <usbdc_set_config>:
    58e4:	b530      	push	{r4, r5, lr}
    58e6:	b083      	sub	sp, #12
    58e8:	b1a8      	cbz	r0, 5916 <usbdc_set_config+0x32>
    58ea:	4602      	mov	r2, r0
    58ec:	4b1d      	ldr	r3, [pc, #116]	; (5964 <usbdc_set_config+0x80>)
    58ee:	681b      	ldr	r3, [r3, #0]
    58f0:	6859      	ldr	r1, [r3, #4]
    58f2:	6818      	ldr	r0, [r3, #0]
    58f4:	4b1c      	ldr	r3, [pc, #112]	; (5968 <usbdc_set_config+0x84>)
    58f6:	4798      	blx	r3
    58f8:	2800      	cmp	r0, #0
    58fa:	d030      	beq.n	595e <usbdc_set_config+0x7a>
    58fc:	7881      	ldrb	r1, [r0, #2]
    58fe:	78c2      	ldrb	r2, [r0, #3]
    5900:	eb01 2102 	add.w	r1, r1, r2, lsl #8
    5904:	fa10 f181 	uxtah	r1, r0, r1
    5908:	9101      	str	r1, [sp, #4]
    590a:	2204      	movs	r2, #4
    590c:	4b17      	ldr	r3, [pc, #92]	; (596c <usbdc_set_config+0x88>)
    590e:	4798      	blx	r3
    5910:	9000      	str	r0, [sp, #0]
    5912:	24ff      	movs	r4, #255	; 0xff
    5914:	e00d      	b.n	5932 <usbdc_set_config+0x4e>
    5916:	4b16      	ldr	r3, [pc, #88]	; (5970 <usbdc_set_config+0x8c>)
    5918:	4798      	blx	r3
    591a:	2001      	movs	r0, #1
    591c:	e01d      	b.n	595a <usbdc_set_config+0x76>
    591e:	462c      	mov	r4, r5
    5920:	9800      	ldr	r0, [sp, #0]
    5922:	7803      	ldrb	r3, [r0, #0]
    5924:	4418      	add	r0, r3
    5926:	9000      	str	r0, [sp, #0]
    5928:	2204      	movs	r2, #4
    592a:	9901      	ldr	r1, [sp, #4]
    592c:	4b0f      	ldr	r3, [pc, #60]	; (596c <usbdc_set_config+0x88>)
    592e:	4798      	blx	r3
    5930:	9000      	str	r0, [sp, #0]
    5932:	9b00      	ldr	r3, [sp, #0]
    5934:	b183      	cbz	r3, 5958 <usbdc_set_config+0x74>
    5936:	789d      	ldrb	r5, [r3, #2]
    5938:	42ac      	cmp	r4, r5
    593a:	d0f1      	beq.n	5920 <usbdc_set_config+0x3c>
    593c:	4b09      	ldr	r3, [pc, #36]	; (5964 <usbdc_set_config+0x80>)
    593e:	691c      	ldr	r4, [r3, #16]
    5940:	2c00      	cmp	r4, #0
    5942:	d0ec      	beq.n	591e <usbdc_set_config+0x3a>
    5944:	6863      	ldr	r3, [r4, #4]
    5946:	466a      	mov	r2, sp
    5948:	2100      	movs	r1, #0
    594a:	4620      	mov	r0, r4
    594c:	4798      	blx	r3
    594e:	b108      	cbz	r0, 5954 <usbdc_set_config+0x70>
    5950:	6824      	ldr	r4, [r4, #0]
    5952:	e7f5      	b.n	5940 <usbdc_set_config+0x5c>
    5954:	462c      	mov	r4, r5
    5956:	e7e3      	b.n	5920 <usbdc_set_config+0x3c>
    5958:	2001      	movs	r0, #1
    595a:	b003      	add	sp, #12
    595c:	bd30      	pop	{r4, r5, pc}
    595e:	2000      	movs	r0, #0
    5960:	e7fb      	b.n	595a <usbdc_set_config+0x76>
    5962:	bf00      	nop
    5964:	20000410 	.word	0x20000410
    5968:	00005fc5 	.word	0x00005fc5
    596c:	00005f6d 	.word	0x00005f6d
    5970:	00005799 	.word	0x00005799

00005974 <usbdc_reset>:
    5974:	b570      	push	{r4, r5, r6, lr}
    5976:	4b0d      	ldr	r3, [pc, #52]	; (59ac <usbdc_reset+0x38>)
    5978:	4798      	blx	r3
    597a:	4d0d      	ldr	r5, [pc, #52]	; (59b0 <usbdc_reset+0x3c>)
    597c:	2602      	movs	r6, #2
    597e:	76ae      	strb	r6, [r5, #26]
    5980:	2400      	movs	r4, #0
    5982:	76ec      	strb	r4, [r5, #27]
    5984:	776c      	strb	r4, [r5, #29]
    5986:	4620      	mov	r0, r4
    5988:	4b0a      	ldr	r3, [pc, #40]	; (59b4 <usbdc_reset+0x40>)
    598a:	4798      	blx	r3
    598c:	7f28      	ldrb	r0, [r5, #28]
    598e:	4b0a      	ldr	r3, [pc, #40]	; (59b8 <usbdc_reset+0x44>)
    5990:	4798      	blx	r3
    5992:	4a0a      	ldr	r2, [pc, #40]	; (59bc <usbdc_reset+0x48>)
    5994:	4621      	mov	r1, r4
    5996:	4620      	mov	r0, r4
    5998:	4d09      	ldr	r5, [pc, #36]	; (59c0 <usbdc_reset+0x4c>)
    599a:	47a8      	blx	r5
    599c:	4a09      	ldr	r2, [pc, #36]	; (59c4 <usbdc_reset+0x50>)
    599e:	4631      	mov	r1, r6
    59a0:	4620      	mov	r0, r4
    59a2:	47a8      	blx	r5
    59a4:	4620      	mov	r0, r4
    59a6:	4b08      	ldr	r3, [pc, #32]	; (59c8 <usbdc_reset+0x54>)
    59a8:	4798      	blx	r3
    59aa:	bd70      	pop	{r4, r5, r6, pc}
    59ac:	00005799 	.word	0x00005799
    59b0:	20000410 	.word	0x20000410
    59b4:	00001a21 	.word	0x00001a21
    59b8:	00001a0d 	.word	0x00001a0d
    59bc:	00005e19 	.word	0x00005e19
    59c0:	00001c1d 	.word	0x00001c1d
    59c4:	000058bd 	.word	0x000058bd
    59c8:	00001a4d 	.word	0x00001a4d

000059cc <usbd_event_cb>:
    59cc:	b508      	push	{r3, lr}
    59ce:	b110      	cbz	r0, 59d6 <usbd_event_cb+0xa>
    59d0:	2801      	cmp	r0, #1
    59d2:	d004      	beq.n	59de <usbd_event_cb+0x12>
    59d4:	bd08      	pop	{r3, pc}
    59d6:	2000      	movs	r0, #0
    59d8:	4b02      	ldr	r3, [pc, #8]	; (59e4 <usbd_event_cb+0x18>)
    59da:	4798      	blx	r3
    59dc:	bd08      	pop	{r3, pc}
    59de:	4b02      	ldr	r3, [pc, #8]	; (59e8 <usbd_event_cb+0x1c>)
    59e0:	4798      	blx	r3
    59e2:	bd08      	pop	{r3, pc}
    59e4:	000057d5 	.word	0x000057d5
    59e8:	00005975 	.word	0x00005975

000059ec <usbdc_xfer>:
    59ec:	b500      	push	{lr}
    59ee:	b085      	sub	sp, #20
    59f0:	9101      	str	r1, [sp, #4]
    59f2:	9202      	str	r2, [sp, #8]
    59f4:	f88d 000c 	strb.w	r0, [sp, #12]
    59f8:	f88d 300d 	strb.w	r3, [sp, #13]
    59fc:	a801      	add	r0, sp, #4
    59fe:	4b02      	ldr	r3, [pc, #8]	; (5a08 <usbdc_xfer+0x1c>)
    5a00:	4798      	blx	r3
    5a02:	b005      	add	sp, #20
    5a04:	f85d fb04 	ldr.w	pc, [sp], #4
    5a08:	00001a99 	.word	0x00001a99

00005a0c <usbdc_clear_ftr_req>:
    5a0c:	780b      	ldrb	r3, [r1, #0]
    5a0e:	f003 031f 	and.w	r3, r3, #31
    5a12:	2b02      	cmp	r3, #2
    5a14:	d112      	bne.n	5a3c <usbdc_clear_ftr_req+0x30>
    5a16:	88cb      	ldrh	r3, [r1, #6]
    5a18:	b10b      	cbz	r3, 5a1e <usbdc_clear_ftr_req+0x12>
    5a1a:	2000      	movs	r0, #0
    5a1c:	4770      	bx	lr
    5a1e:	b510      	push	{r4, lr}
    5a20:	4604      	mov	r4, r0
    5a22:	8888      	ldrh	r0, [r1, #4]
    5a24:	2100      	movs	r1, #0
    5a26:	b2c0      	uxtb	r0, r0
    5a28:	4b05      	ldr	r3, [pc, #20]	; (5a40 <usbdc_clear_ftr_req+0x34>)
    5a2a:	4798      	blx	r3
    5a2c:	2301      	movs	r3, #1
    5a2e:	2200      	movs	r2, #0
    5a30:	4611      	mov	r1, r2
    5a32:	4620      	mov	r0, r4
    5a34:	4c03      	ldr	r4, [pc, #12]	; (5a44 <usbdc_clear_ftr_req+0x38>)
    5a36:	47a0      	blx	r4
    5a38:	2001      	movs	r0, #1
    5a3a:	bd10      	pop	{r4, pc}
    5a3c:	2000      	movs	r0, #0
    5a3e:	4770      	bx	lr
    5a40:	00001bad 	.word	0x00001bad
    5a44:	000059ed 	.word	0x000059ed

00005a48 <usbdc_set_ftr_req>:
    5a48:	780b      	ldrb	r3, [r1, #0]
    5a4a:	f003 031f 	and.w	r3, r3, #31
    5a4e:	2b02      	cmp	r3, #2
    5a50:	d112      	bne.n	5a78 <usbdc_set_ftr_req+0x30>
    5a52:	88cb      	ldrh	r3, [r1, #6]
    5a54:	b10b      	cbz	r3, 5a5a <usbdc_set_ftr_req+0x12>
    5a56:	2000      	movs	r0, #0
    5a58:	4770      	bx	lr
    5a5a:	b510      	push	{r4, lr}
    5a5c:	4604      	mov	r4, r0
    5a5e:	8888      	ldrh	r0, [r1, #4]
    5a60:	2101      	movs	r1, #1
    5a62:	b2c0      	uxtb	r0, r0
    5a64:	4b05      	ldr	r3, [pc, #20]	; (5a7c <usbdc_set_ftr_req+0x34>)
    5a66:	4798      	blx	r3
    5a68:	2301      	movs	r3, #1
    5a6a:	2200      	movs	r2, #0
    5a6c:	4611      	mov	r1, r2
    5a6e:	4620      	mov	r0, r4
    5a70:	4c03      	ldr	r4, [pc, #12]	; (5a80 <usbdc_set_ftr_req+0x38>)
    5a72:	47a0      	blx	r4
    5a74:	2001      	movs	r0, #1
    5a76:	bd10      	pop	{r4, pc}
    5a78:	2000      	movs	r0, #0
    5a7a:	4770      	bx	lr
    5a7c:	00001bad 	.word	0x00001bad
    5a80:	000059ed 	.word	0x000059ed

00005a84 <usbdc_set_interface>:
    5a84:	b570      	push	{r4, r5, r6, lr}
    5a86:	b082      	sub	sp, #8
    5a88:	4605      	mov	r5, r0
    5a8a:	460c      	mov	r4, r1
    5a8c:	4a29      	ldr	r2, [pc, #164]	; (5b34 <usbdc_set_interface+0xb0>)
    5a8e:	6813      	ldr	r3, [r2, #0]
    5a90:	7ed2      	ldrb	r2, [r2, #27]
    5a92:	6859      	ldr	r1, [r3, #4]
    5a94:	6818      	ldr	r0, [r3, #0]
    5a96:	4b28      	ldr	r3, [pc, #160]	; (5b38 <usbdc_set_interface+0xb4>)
    5a98:	4798      	blx	r3
    5a9a:	2800      	cmp	r0, #0
    5a9c:	d042      	beq.n	5b24 <usbdc_set_interface+0xa0>
    5a9e:	9000      	str	r0, [sp, #0]
    5aa0:	7881      	ldrb	r1, [r0, #2]
    5aa2:	78c2      	ldrb	r2, [r0, #3]
    5aa4:	eb01 2102 	add.w	r1, r1, r2, lsl #8
    5aa8:	fa10 f181 	uxtah	r1, r0, r1
    5aac:	9101      	str	r1, [sp, #4]
    5aae:	2204      	movs	r2, #4
    5ab0:	4b22      	ldr	r3, [pc, #136]	; (5b3c <usbdc_set_interface+0xb8>)
    5ab2:	4798      	blx	r3
    5ab4:	4603      	mov	r3, r0
    5ab6:	b958      	cbnz	r0, 5ad0 <usbdc_set_interface+0x4c>
    5ab8:	2000      	movs	r0, #0
    5aba:	e036      	b.n	5b2a <usbdc_set_interface+0xa6>
    5abc:	9800      	ldr	r0, [sp, #0]
    5abe:	7803      	ldrb	r3, [r0, #0]
    5ac0:	4418      	add	r0, r3
    5ac2:	9000      	str	r0, [sp, #0]
    5ac4:	2204      	movs	r2, #4
    5ac6:	9901      	ldr	r1, [sp, #4]
    5ac8:	4b1c      	ldr	r3, [pc, #112]	; (5b3c <usbdc_set_interface+0xb8>)
    5aca:	4798      	blx	r3
    5acc:	4603      	mov	r3, r0
    5ace:	b358      	cbz	r0, 5b28 <usbdc_set_interface+0xa4>
    5ad0:	789a      	ldrb	r2, [r3, #2]
    5ad2:	42a2      	cmp	r2, r4
    5ad4:	d1f2      	bne.n	5abc <usbdc_set_interface+0x38>
    5ad6:	78da      	ldrb	r2, [r3, #3]
    5ad8:	42aa      	cmp	r2, r5
    5ada:	d1ef      	bne.n	5abc <usbdc_set_interface+0x38>
    5adc:	9300      	str	r3, [sp, #0]
    5ade:	4b15      	ldr	r3, [pc, #84]	; (5b34 <usbdc_set_interface+0xb0>)
    5ae0:	691e      	ldr	r6, [r3, #16]
    5ae2:	b1ee      	cbz	r6, 5b20 <usbdc_set_interface+0x9c>
    5ae4:	6873      	ldr	r3, [r6, #4]
    5ae6:	466a      	mov	r2, sp
    5ae8:	2101      	movs	r1, #1
    5aea:	4630      	mov	r0, r6
    5aec:	4798      	blx	r3
    5aee:	b108      	cbz	r0, 5af4 <usbdc_set_interface+0x70>
    5af0:	6836      	ldr	r6, [r6, #0]
    5af2:	e7f6      	b.n	5ae2 <usbdc_set_interface+0x5e>
    5af4:	6873      	ldr	r3, [r6, #4]
    5af6:	466a      	mov	r2, sp
    5af8:	2100      	movs	r1, #0
    5afa:	4630      	mov	r0, r6
    5afc:	4798      	blx	r3
    5afe:	b9b0      	cbnz	r0, 5b2e <usbdc_set_interface+0xaa>
    5b00:	b135      	cbz	r5, 5b10 <usbdc_set_interface+0x8c>
    5b02:	2301      	movs	r3, #1
    5b04:	fa03 f404 	lsl.w	r4, r3, r4
    5b08:	4a0a      	ldr	r2, [pc, #40]	; (5b34 <usbdc_set_interface+0xb0>)
    5b0a:	7f53      	ldrb	r3, [r2, #29]
    5b0c:	4323      	orrs	r3, r4
    5b0e:	7753      	strb	r3, [r2, #29]
    5b10:	2300      	movs	r3, #0
    5b12:	461a      	mov	r2, r3
    5b14:	4619      	mov	r1, r3
    5b16:	4618      	mov	r0, r3
    5b18:	4c09      	ldr	r4, [pc, #36]	; (5b40 <usbdc_set_interface+0xbc>)
    5b1a:	47a0      	blx	r4
    5b1c:	2001      	movs	r0, #1
    5b1e:	e004      	b.n	5b2a <usbdc_set_interface+0xa6>
    5b20:	2000      	movs	r0, #0
    5b22:	e002      	b.n	5b2a <usbdc_set_interface+0xa6>
    5b24:	2000      	movs	r0, #0
    5b26:	e000      	b.n	5b2a <usbdc_set_interface+0xa6>
    5b28:	2000      	movs	r0, #0
    5b2a:	b002      	add	sp, #8
    5b2c:	bd70      	pop	{r4, r5, r6, pc}
    5b2e:	2000      	movs	r0, #0
    5b30:	e7fb      	b.n	5b2a <usbdc_set_interface+0xa6>
    5b32:	bf00      	nop
    5b34:	20000410 	.word	0x20000410
    5b38:	00005fc5 	.word	0x00005fc5
    5b3c:	00005f6d 	.word	0x00005f6d
    5b40:	000059ed 	.word	0x000059ed

00005b44 <usbdc_set_req>:
    5b44:	b510      	push	{r4, lr}
    5b46:	4604      	mov	r4, r0
    5b48:	460a      	mov	r2, r1
    5b4a:	784b      	ldrb	r3, [r1, #1]
    5b4c:	3b01      	subs	r3, #1
    5b4e:	2b0a      	cmp	r3, #10
    5b50:	d832      	bhi.n	5bb8 <usbdc_set_req+0x74>
    5b52:	e8df f003 	tbb	[pc, r3]
    5b56:	3121      	.short	0x3121
    5b58:	31063126 	.word	0x31063126
    5b5c:	31103131 	.word	0x31103131
    5b60:	2b          	.byte	0x2b
    5b61:	00          	.byte	0x00
    5b62:	2301      	movs	r3, #1
    5b64:	2200      	movs	r2, #0
    5b66:	4611      	mov	r1, r2
    5b68:	4c14      	ldr	r4, [pc, #80]	; (5bbc <usbdc_set_req+0x78>)
    5b6a:	47a0      	blx	r4
    5b6c:	fab0 f380 	clz	r3, r0
    5b70:	095b      	lsrs	r3, r3, #5
    5b72:	4618      	mov	r0, r3
    5b74:	bd10      	pop	{r4, pc}
    5b76:	8850      	ldrh	r0, [r2, #2]
    5b78:	b2c0      	uxtb	r0, r0
    5b7a:	4b11      	ldr	r3, [pc, #68]	; (5bc0 <usbdc_set_req+0x7c>)
    5b7c:	4798      	blx	r3
    5b7e:	4603      	mov	r3, r0
    5b80:	2800      	cmp	r0, #0
    5b82:	d0f6      	beq.n	5b72 <usbdc_set_req+0x2e>
    5b84:	2301      	movs	r3, #1
    5b86:	2200      	movs	r2, #0
    5b88:	4611      	mov	r1, r2
    5b8a:	4620      	mov	r0, r4
    5b8c:	4c0b      	ldr	r4, [pc, #44]	; (5bbc <usbdc_set_req+0x78>)
    5b8e:	47a0      	blx	r4
    5b90:	fab0 f380 	clz	r3, r0
    5b94:	095b      	lsrs	r3, r3, #5
    5b96:	e7ec      	b.n	5b72 <usbdc_set_req+0x2e>
    5b98:	4611      	mov	r1, r2
    5b9a:	4b0a      	ldr	r3, [pc, #40]	; (5bc4 <usbdc_set_req+0x80>)
    5b9c:	4798      	blx	r3
    5b9e:	4603      	mov	r3, r0
    5ba0:	e7e7      	b.n	5b72 <usbdc_set_req+0x2e>
    5ba2:	4611      	mov	r1, r2
    5ba4:	4b08      	ldr	r3, [pc, #32]	; (5bc8 <usbdc_set_req+0x84>)
    5ba6:	4798      	blx	r3
    5ba8:	4603      	mov	r3, r0
    5baa:	e7e2      	b.n	5b72 <usbdc_set_req+0x2e>
    5bac:	8891      	ldrh	r1, [r2, #4]
    5bae:	8850      	ldrh	r0, [r2, #2]
    5bb0:	4b06      	ldr	r3, [pc, #24]	; (5bcc <usbdc_set_req+0x88>)
    5bb2:	4798      	blx	r3
    5bb4:	4603      	mov	r3, r0
    5bb6:	e7dc      	b.n	5b72 <usbdc_set_req+0x2e>
    5bb8:	2300      	movs	r3, #0
    5bba:	e7da      	b.n	5b72 <usbdc_set_req+0x2e>
    5bbc:	000059ed 	.word	0x000059ed
    5bc0:	000058e5 	.word	0x000058e5
    5bc4:	00005a0d 	.word	0x00005a0d
    5bc8:	00005a49 	.word	0x00005a49
    5bcc:	00005a85 	.word	0x00005a85

00005bd0 <usbdc_get_dev_desc>:
    5bd0:	b538      	push	{r3, r4, r5, lr}
    5bd2:	4605      	mov	r5, r0
    5bd4:	88cc      	ldrh	r4, [r1, #6]
    5bd6:	2c12      	cmp	r4, #18
    5bd8:	d900      	bls.n	5bdc <usbdc_get_dev_desc+0xc>
    5bda:	2412      	movs	r4, #18
    5bdc:	4b0a      	ldr	r3, [pc, #40]	; (5c08 <usbdc_get_dev_desc+0x38>)
    5bde:	681b      	ldr	r3, [r3, #0]
    5be0:	2201      	movs	r2, #1
    5be2:	6859      	ldr	r1, [r3, #4]
    5be4:	6818      	ldr	r0, [r3, #0]
    5be6:	4b09      	ldr	r3, [pc, #36]	; (5c0c <usbdc_get_dev_desc+0x3c>)
    5be8:	4798      	blx	r3
    5bea:	4601      	mov	r1, r0
    5bec:	b148      	cbz	r0, 5c02 <usbdc_get_dev_desc+0x32>
    5bee:	2300      	movs	r3, #0
    5bf0:	4622      	mov	r2, r4
    5bf2:	4628      	mov	r0, r5
    5bf4:	4c06      	ldr	r4, [pc, #24]	; (5c10 <usbdc_get_dev_desc+0x40>)
    5bf6:	47a0      	blx	r4
    5bf8:	b908      	cbnz	r0, 5bfe <usbdc_get_dev_desc+0x2e>
    5bfa:	2001      	movs	r0, #1
    5bfc:	bd38      	pop	{r3, r4, r5, pc}
    5bfe:	2000      	movs	r0, #0
    5c00:	bd38      	pop	{r3, r4, r5, pc}
    5c02:	2000      	movs	r0, #0
    5c04:	bd38      	pop	{r3, r4, r5, pc}
    5c06:	bf00      	nop
    5c08:	20000410 	.word	0x20000410
    5c0c:	00005f6d 	.word	0x00005f6d
    5c10:	000059ed 	.word	0x000059ed

00005c14 <usbdc_get_cfg_desc>:
    5c14:	b570      	push	{r4, r5, r6, lr}
    5c16:	4605      	mov	r5, r0
    5c18:	88cc      	ldrh	r4, [r1, #6]
    5c1a:	884a      	ldrh	r2, [r1, #2]
    5c1c:	b2d2      	uxtb	r2, r2
    5c1e:	4912      	ldr	r1, [pc, #72]	; (5c68 <usbdc_get_cfg_desc+0x54>)
    5c20:	7f0b      	ldrb	r3, [r1, #28]
    5c22:	3b01      	subs	r3, #1
    5c24:	421c      	tst	r4, r3
    5c26:	bf0c      	ite	eq
    5c28:	2601      	moveq	r6, #1
    5c2a:	2600      	movne	r6, #0
    5c2c:	680b      	ldr	r3, [r1, #0]
    5c2e:	3201      	adds	r2, #1
    5c30:	b2d2      	uxtb	r2, r2
    5c32:	6859      	ldr	r1, [r3, #4]
    5c34:	6818      	ldr	r0, [r3, #0]
    5c36:	4b0d      	ldr	r3, [pc, #52]	; (5c6c <usbdc_get_cfg_desc+0x58>)
    5c38:	4798      	blx	r3
    5c3a:	b190      	cbz	r0, 5c62 <usbdc_get_cfg_desc+0x4e>
    5c3c:	4601      	mov	r1, r0
    5c3e:	7882      	ldrb	r2, [r0, #2]
    5c40:	78c3      	ldrb	r3, [r0, #3]
    5c42:	eb02 2203 	add.w	r2, r2, r3, lsl #8
    5c46:	b292      	uxth	r2, r2
    5c48:	4294      	cmp	r4, r2
    5c4a:	d801      	bhi.n	5c50 <usbdc_get_cfg_desc+0x3c>
    5c4c:	4622      	mov	r2, r4
    5c4e:	2600      	movs	r6, #0
    5c50:	4633      	mov	r3, r6
    5c52:	4628      	mov	r0, r5
    5c54:	4c06      	ldr	r4, [pc, #24]	; (5c70 <usbdc_get_cfg_desc+0x5c>)
    5c56:	47a0      	blx	r4
    5c58:	b908      	cbnz	r0, 5c5e <usbdc_get_cfg_desc+0x4a>
    5c5a:	2001      	movs	r0, #1
    5c5c:	bd70      	pop	{r4, r5, r6, pc}
    5c5e:	2000      	movs	r0, #0
    5c60:	bd70      	pop	{r4, r5, r6, pc}
    5c62:	2000      	movs	r0, #0
    5c64:	bd70      	pop	{r4, r5, r6, pc}
    5c66:	bf00      	nop
    5c68:	20000410 	.word	0x20000410
    5c6c:	00005fc5 	.word	0x00005fc5
    5c70:	000059ed 	.word	0x000059ed

00005c74 <usbdc_get_str_desc>:
    5c74:	b570      	push	{r4, r5, r6, lr}
    5c76:	4605      	mov	r5, r0
    5c78:	88cc      	ldrh	r4, [r1, #6]
    5c7a:	884a      	ldrh	r2, [r1, #2]
    5c7c:	490f      	ldr	r1, [pc, #60]	; (5cbc <usbdc_get_str_desc+0x48>)
    5c7e:	7f0b      	ldrb	r3, [r1, #28]
    5c80:	3b01      	subs	r3, #1
    5c82:	421c      	tst	r4, r3
    5c84:	bf0c      	ite	eq
    5c86:	2601      	moveq	r6, #1
    5c88:	2600      	movne	r6, #0
    5c8a:	680b      	ldr	r3, [r1, #0]
    5c8c:	b2d2      	uxtb	r2, r2
    5c8e:	6859      	ldr	r1, [r3, #4]
    5c90:	6818      	ldr	r0, [r3, #0]
    5c92:	4b0b      	ldr	r3, [pc, #44]	; (5cc0 <usbdc_get_str_desc+0x4c>)
    5c94:	4798      	blx	r3
    5c96:	b170      	cbz	r0, 5cb6 <usbdc_get_str_desc+0x42>
    5c98:	4601      	mov	r1, r0
    5c9a:	7802      	ldrb	r2, [r0, #0]
    5c9c:	4294      	cmp	r4, r2
    5c9e:	d801      	bhi.n	5ca4 <usbdc_get_str_desc+0x30>
    5ca0:	4622      	mov	r2, r4
    5ca2:	2600      	movs	r6, #0
    5ca4:	4633      	mov	r3, r6
    5ca6:	4628      	mov	r0, r5
    5ca8:	4c06      	ldr	r4, [pc, #24]	; (5cc4 <usbdc_get_str_desc+0x50>)
    5caa:	47a0      	blx	r4
    5cac:	b908      	cbnz	r0, 5cb2 <usbdc_get_str_desc+0x3e>
    5cae:	2001      	movs	r0, #1
    5cb0:	bd70      	pop	{r4, r5, r6, pc}
    5cb2:	2000      	movs	r0, #0
    5cb4:	bd70      	pop	{r4, r5, r6, pc}
    5cb6:	2000      	movs	r0, #0
    5cb8:	bd70      	pop	{r4, r5, r6, pc}
    5cba:	bf00      	nop
    5cbc:	20000410 	.word	0x20000410
    5cc0:	0000600d 	.word	0x0000600d
    5cc4:	000059ed 	.word	0x000059ed

00005cc8 <usbdc_get_desc_req>:
    5cc8:	b508      	push	{r3, lr}
    5cca:	884b      	ldrh	r3, [r1, #2]
    5ccc:	0a1b      	lsrs	r3, r3, #8
    5cce:	2b02      	cmp	r3, #2
    5cd0:	d008      	beq.n	5ce4 <usbdc_get_desc_req+0x1c>
    5cd2:	2b03      	cmp	r3, #3
    5cd4:	d009      	beq.n	5cea <usbdc_get_desc_req+0x22>
    5cd6:	2b01      	cmp	r3, #1
    5cd8:	d001      	beq.n	5cde <usbdc_get_desc_req+0x16>
    5cda:	2000      	movs	r0, #0
    5cdc:	bd08      	pop	{r3, pc}
    5cde:	4b04      	ldr	r3, [pc, #16]	; (5cf0 <usbdc_get_desc_req+0x28>)
    5ce0:	4798      	blx	r3
    5ce2:	bd08      	pop	{r3, pc}
    5ce4:	4b03      	ldr	r3, [pc, #12]	; (5cf4 <usbdc_get_desc_req+0x2c>)
    5ce6:	4798      	blx	r3
    5ce8:	bd08      	pop	{r3, pc}
    5cea:	4b03      	ldr	r3, [pc, #12]	; (5cf8 <usbdc_get_desc_req+0x30>)
    5cec:	4798      	blx	r3
    5cee:	bd08      	pop	{r3, pc}
    5cf0:	00005bd1 	.word	0x00005bd1
    5cf4:	00005c15 	.word	0x00005c15
    5cf8:	00005c75 	.word	0x00005c75

00005cfc <usbdc_get_status_req>:
    5cfc:	b510      	push	{r4, lr}
    5cfe:	b082      	sub	sp, #8
    5d00:	4604      	mov	r4, r0
    5d02:	780b      	ldrb	r3, [r1, #0]
    5d04:	f003 031f 	and.w	r3, r3, #31
    5d08:	2b01      	cmp	r3, #1
    5d0a:	d903      	bls.n	5d14 <usbdc_get_status_req+0x18>
    5d0c:	2b02      	cmp	r3, #2
    5d0e:	d011      	beq.n	5d34 <usbdc_get_status_req+0x38>
    5d10:	2000      	movs	r0, #0
    5d12:	e00d      	b.n	5d30 <usbdc_get_status_req+0x34>
    5d14:	2300      	movs	r3, #0
    5d16:	9301      	str	r3, [sp, #4]
    5d18:	490d      	ldr	r1, [pc, #52]	; (5d50 <usbdc_get_status_req+0x54>)
    5d1a:	694b      	ldr	r3, [r1, #20]
    5d1c:	f8bd 2004 	ldrh.w	r2, [sp, #4]
    5d20:	801a      	strh	r2, [r3, #0]
    5d22:	2300      	movs	r3, #0
    5d24:	2202      	movs	r2, #2
    5d26:	6949      	ldr	r1, [r1, #20]
    5d28:	4620      	mov	r0, r4
    5d2a:	4c0a      	ldr	r4, [pc, #40]	; (5d54 <usbdc_get_status_req+0x58>)
    5d2c:	47a0      	blx	r4
    5d2e:	2001      	movs	r0, #1
    5d30:	b002      	add	sp, #8
    5d32:	bd10      	pop	{r4, pc}
    5d34:	8888      	ldrh	r0, [r1, #4]
    5d36:	2102      	movs	r1, #2
    5d38:	b2c0      	uxtb	r0, r0
    5d3a:	4b07      	ldr	r3, [pc, #28]	; (5d58 <usbdc_get_status_req+0x5c>)
    5d3c:	4798      	blx	r3
    5d3e:	2800      	cmp	r0, #0
    5d40:	db03      	blt.n	5d4a <usbdc_get_status_req+0x4e>
    5d42:	f000 0001 	and.w	r0, r0, #1
    5d46:	9001      	str	r0, [sp, #4]
    5d48:	e7e6      	b.n	5d18 <usbdc_get_status_req+0x1c>
    5d4a:	2000      	movs	r0, #0
    5d4c:	e7f0      	b.n	5d30 <usbdc_get_status_req+0x34>
    5d4e:	bf00      	nop
    5d50:	20000410 	.word	0x20000410
    5d54:	000059ed 	.word	0x000059ed
    5d58:	00001bad 	.word	0x00001bad

00005d5c <usbdc_get_interface>:
    5d5c:	b538      	push	{r3, r4, r5, lr}
    5d5e:	4605      	mov	r5, r0
    5d60:	4b14      	ldr	r3, [pc, #80]	; (5db4 <usbdc_get_interface+0x58>)
    5d62:	691c      	ldr	r4, [r3, #16]
    5d64:	7f5b      	ldrb	r3, [r3, #29]
    5d66:	8882      	ldrh	r2, [r0, #4]
    5d68:	4113      	asrs	r3, r2
    5d6a:	f013 0f01 	tst.w	r3, #1
    5d6e:	d009      	beq.n	5d84 <usbdc_get_interface+0x28>
    5d70:	b1f4      	cbz	r4, 5db0 <usbdc_get_interface+0x54>
    5d72:	6863      	ldr	r3, [r4, #4]
    5d74:	462a      	mov	r2, r5
    5d76:	2102      	movs	r1, #2
    5d78:	4620      	mov	r0, r4
    5d7a:	4798      	blx	r3
    5d7c:	2800      	cmp	r0, #0
    5d7e:	da0c      	bge.n	5d9a <usbdc_get_interface+0x3e>
    5d80:	6824      	ldr	r4, [r4, #0]
    5d82:	e7f5      	b.n	5d70 <usbdc_get_interface+0x14>
    5d84:	490b      	ldr	r1, [pc, #44]	; (5db4 <usbdc_get_interface+0x58>)
    5d86:	694b      	ldr	r3, [r1, #20]
    5d88:	2000      	movs	r0, #0
    5d8a:	7018      	strb	r0, [r3, #0]
    5d8c:	4603      	mov	r3, r0
    5d8e:	2201      	movs	r2, #1
    5d90:	6949      	ldr	r1, [r1, #20]
    5d92:	4c09      	ldr	r4, [pc, #36]	; (5db8 <usbdc_get_interface+0x5c>)
    5d94:	47a0      	blx	r4
    5d96:	2001      	movs	r0, #1
    5d98:	bd38      	pop	{r3, r4, r5, pc}
    5d9a:	4906      	ldr	r1, [pc, #24]	; (5db4 <usbdc_get_interface+0x58>)
    5d9c:	694b      	ldr	r3, [r1, #20]
    5d9e:	7018      	strb	r0, [r3, #0]
    5da0:	2300      	movs	r3, #0
    5da2:	2201      	movs	r2, #1
    5da4:	6949      	ldr	r1, [r1, #20]
    5da6:	4618      	mov	r0, r3
    5da8:	4c03      	ldr	r4, [pc, #12]	; (5db8 <usbdc_get_interface+0x5c>)
    5daa:	47a0      	blx	r4
    5dac:	2001      	movs	r0, #1
    5dae:	bd38      	pop	{r3, r4, r5, pc}
    5db0:	2000      	movs	r0, #0
    5db2:	bd38      	pop	{r3, r4, r5, pc}
    5db4:	20000410 	.word	0x20000410
    5db8:	000059ed 	.word	0x000059ed

00005dbc <usbdc_get_req>:
    5dbc:	b510      	push	{r4, lr}
    5dbe:	784b      	ldrb	r3, [r1, #1]
    5dc0:	2b0a      	cmp	r3, #10
    5dc2:	d81c      	bhi.n	5dfe <usbdc_get_req+0x42>
    5dc4:	e8df f003 	tbb	[pc, r3]
    5dc8:	1b1b1b14 	.word	0x1b1b1b14
    5dcc:	1b061b1b 	.word	0x1b061b1b
    5dd0:	1b09      	.short	0x1b09
    5dd2:	17          	.byte	0x17
    5dd3:	00          	.byte	0x00
    5dd4:	4b0b      	ldr	r3, [pc, #44]	; (5e04 <usbdc_get_req+0x48>)
    5dd6:	4798      	blx	r3
    5dd8:	bd10      	pop	{r4, pc}
    5dda:	490b      	ldr	r1, [pc, #44]	; (5e08 <usbdc_get_req+0x4c>)
    5ddc:	694b      	ldr	r3, [r1, #20]
    5dde:	7eca      	ldrb	r2, [r1, #27]
    5de0:	701a      	strb	r2, [r3, #0]
    5de2:	2300      	movs	r3, #0
    5de4:	2201      	movs	r2, #1
    5de6:	6949      	ldr	r1, [r1, #20]
    5de8:	4c08      	ldr	r4, [pc, #32]	; (5e0c <usbdc_get_req+0x50>)
    5dea:	47a0      	blx	r4
    5dec:	2001      	movs	r0, #1
    5dee:	bd10      	pop	{r4, pc}
    5df0:	4b07      	ldr	r3, [pc, #28]	; (5e10 <usbdc_get_req+0x54>)
    5df2:	4798      	blx	r3
    5df4:	bd10      	pop	{r4, pc}
    5df6:	4608      	mov	r0, r1
    5df8:	4b06      	ldr	r3, [pc, #24]	; (5e14 <usbdc_get_req+0x58>)
    5dfa:	4798      	blx	r3
    5dfc:	bd10      	pop	{r4, pc}
    5dfe:	2000      	movs	r0, #0
    5e00:	bd10      	pop	{r4, pc}
    5e02:	bf00      	nop
    5e04:	00005cc9 	.word	0x00005cc9
    5e08:	20000410 	.word	0x20000410
    5e0c:	000059ed 	.word	0x000059ed
    5e10:	00005cfd 	.word	0x00005cfd
    5e14:	00005d5d 	.word	0x00005d5d

00005e18 <usbdc_cb_ctl_req>:
    5e18:	b538      	push	{r3, r4, r5, lr}
    5e1a:	4605      	mov	r5, r0
    5e1c:	460c      	mov	r4, r1
    5e1e:	2200      	movs	r2, #0
    5e20:	4b0d      	ldr	r3, [pc, #52]	; (5e58 <usbdc_cb_ctl_req+0x40>)
    5e22:	4798      	blx	r3
    5e24:	f1b0 3fff 	cmp.w	r0, #4294967295
    5e28:	d013      	beq.n	5e52 <usbdc_cb_ctl_req+0x3a>
    5e2a:	2801      	cmp	r0, #1
    5e2c:	d006      	beq.n	5e3c <usbdc_cb_ctl_req+0x24>
    5e2e:	7823      	ldrb	r3, [r4, #0]
    5e30:	f013 03e0 	ands.w	r3, r3, #224	; 0xe0
    5e34:	d003      	beq.n	5e3e <usbdc_cb_ctl_req+0x26>
    5e36:	2b80      	cmp	r3, #128	; 0x80
    5e38:	d006      	beq.n	5e48 <usbdc_cb_ctl_req+0x30>
    5e3a:	2000      	movs	r0, #0
    5e3c:	bd38      	pop	{r3, r4, r5, pc}
    5e3e:	4621      	mov	r1, r4
    5e40:	4628      	mov	r0, r5
    5e42:	4b06      	ldr	r3, [pc, #24]	; (5e5c <usbdc_cb_ctl_req+0x44>)
    5e44:	4798      	blx	r3
    5e46:	bd38      	pop	{r3, r4, r5, pc}
    5e48:	4621      	mov	r1, r4
    5e4a:	4628      	mov	r0, r5
    5e4c:	4b04      	ldr	r3, [pc, #16]	; (5e60 <usbdc_cb_ctl_req+0x48>)
    5e4e:	4798      	blx	r3
    5e50:	bd38      	pop	{r3, r4, r5, pc}
    5e52:	2000      	movs	r0, #0
    5e54:	bd38      	pop	{r3, r4, r5, pc}
    5e56:	bf00      	nop
    5e58:	000057f9 	.word	0x000057f9
    5e5c:	00005b45 	.word	0x00005b45
    5e60:	00005dbd 	.word	0x00005dbd

00005e64 <usbdc_register_handler>:
    5e64:	b508      	push	{r3, lr}
    5e66:	2801      	cmp	r0, #1
    5e68:	d007      	beq.n	5e7a <usbdc_register_handler+0x16>
    5e6a:	b110      	cbz	r0, 5e72 <usbdc_register_handler+0xe>
    5e6c:	2802      	cmp	r0, #2
    5e6e:	d008      	beq.n	5e82 <usbdc_register_handler+0x1e>
    5e70:	bd08      	pop	{r3, pc}
    5e72:	4806      	ldr	r0, [pc, #24]	; (5e8c <usbdc_register_handler+0x28>)
    5e74:	4b06      	ldr	r3, [pc, #24]	; (5e90 <usbdc_register_handler+0x2c>)
    5e76:	4798      	blx	r3
    5e78:	bd08      	pop	{r3, pc}
    5e7a:	4806      	ldr	r0, [pc, #24]	; (5e94 <usbdc_register_handler+0x30>)
    5e7c:	4b04      	ldr	r3, [pc, #16]	; (5e90 <usbdc_register_handler+0x2c>)
    5e7e:	4798      	blx	r3
    5e80:	bd08      	pop	{r3, pc}
    5e82:	4805      	ldr	r0, [pc, #20]	; (5e98 <usbdc_register_handler+0x34>)
    5e84:	4b02      	ldr	r3, [pc, #8]	; (5e90 <usbdc_register_handler+0x2c>)
    5e86:	4798      	blx	r3
    5e88:	bd08      	pop	{r3, pc}
    5e8a:	bf00      	nop
    5e8c:	20000414 	.word	0x20000414
    5e90:	00001cb9 	.word	0x00001cb9
    5e94:	20000418 	.word	0x20000418
    5e98:	2000041c 	.word	0x2000041c

00005e9c <usbdc_init>:
    5e9c:	b538      	push	{r3, r4, r5, lr}
    5e9e:	4605      	mov	r5, r0
    5ea0:	f240 3255 	movw	r2, #853	; 0x355
    5ea4:	490c      	ldr	r1, [pc, #48]	; (5ed8 <usbdc_init+0x3c>)
    5ea6:	3000      	adds	r0, #0
    5ea8:	bf18      	it	ne
    5eaa:	2001      	movne	r0, #1
    5eac:	4b0b      	ldr	r3, [pc, #44]	; (5edc <usbdc_init+0x40>)
    5eae:	4798      	blx	r3
    5eb0:	4b0b      	ldr	r3, [pc, #44]	; (5ee0 <usbdc_init+0x44>)
    5eb2:	4798      	blx	r3
    5eb4:	2800      	cmp	r0, #0
    5eb6:	db0e      	blt.n	5ed6 <usbdc_init+0x3a>
    5eb8:	4c0a      	ldr	r4, [pc, #40]	; (5ee4 <usbdc_init+0x48>)
    5eba:	2220      	movs	r2, #32
    5ebc:	2100      	movs	r1, #0
    5ebe:	4620      	mov	r0, r4
    5ec0:	4b09      	ldr	r3, [pc, #36]	; (5ee8 <usbdc_init+0x4c>)
    5ec2:	4798      	blx	r3
    5ec4:	6165      	str	r5, [r4, #20]
    5ec6:	4909      	ldr	r1, [pc, #36]	; (5eec <usbdc_init+0x50>)
    5ec8:	2000      	movs	r0, #0
    5eca:	4c09      	ldr	r4, [pc, #36]	; (5ef0 <usbdc_init+0x54>)
    5ecc:	47a0      	blx	r4
    5ece:	4909      	ldr	r1, [pc, #36]	; (5ef4 <usbdc_init+0x58>)
    5ed0:	2001      	movs	r0, #1
    5ed2:	47a0      	blx	r4
    5ed4:	2000      	movs	r0, #0
    5ed6:	bd38      	pop	{r3, r4, r5, pc}
    5ed8:	000066cc 	.word	0x000066cc
    5edc:	00001c69 	.word	0x00001c69
    5ee0:	0000191d 	.word	0x0000191d
    5ee4:	20000410 	.word	0x20000410
    5ee8:	00006207 	.word	0x00006207
    5eec:	00005835 	.word	0x00005835
    5ef0:	00001989 	.word	0x00001989
    5ef4:	000059cd 	.word	0x000059cd

00005ef8 <usbdc_register_function>:
    5ef8:	b508      	push	{r3, lr}
    5efa:	4601      	mov	r1, r0
    5efc:	4801      	ldr	r0, [pc, #4]	; (5f04 <usbdc_register_function+0xc>)
    5efe:	4b02      	ldr	r3, [pc, #8]	; (5f08 <usbdc_register_function+0x10>)
    5f00:	4798      	blx	r3
    5f02:	bd08      	pop	{r3, pc}
    5f04:	20000420 	.word	0x20000420
    5f08:	00001cb9 	.word	0x00001cb9

00005f0c <usbdc_start>:
    5f0c:	b508      	push	{r3, lr}
    5f0e:	4b0a      	ldr	r3, [pc, #40]	; (5f38 <usbdc_start+0x2c>)
    5f10:	7e9b      	ldrb	r3, [r3, #26]
    5f12:	b95b      	cbnz	r3, 5f2c <usbdc_start+0x20>
    5f14:	b168      	cbz	r0, 5f32 <usbdc_start+0x26>
    5f16:	4b08      	ldr	r3, [pc, #32]	; (5f38 <usbdc_start+0x2c>)
    5f18:	6018      	str	r0, [r3, #0]
    5f1a:	6802      	ldr	r2, [r0, #0]
    5f1c:	79d2      	ldrb	r2, [r2, #7]
    5f1e:	771a      	strb	r2, [r3, #28]
    5f20:	2201      	movs	r2, #1
    5f22:	769a      	strb	r2, [r3, #26]
    5f24:	4b05      	ldr	r3, [pc, #20]	; (5f3c <usbdc_start+0x30>)
    5f26:	4798      	blx	r3
    5f28:	2000      	movs	r0, #0
    5f2a:	bd08      	pop	{r3, pc}
    5f2c:	f06f 0003 	mvn.w	r0, #3
    5f30:	bd08      	pop	{r3, pc}
    5f32:	f06f 0008 	mvn.w	r0, #8
    5f36:	bd08      	pop	{r3, pc}
    5f38:	20000410 	.word	0x20000410
    5f3c:	00001995 	.word	0x00001995

00005f40 <usbdc_detach>:
    5f40:	b508      	push	{r3, lr}
    5f42:	4b01      	ldr	r3, [pc, #4]	; (5f48 <usbdc_detach+0x8>)
    5f44:	4798      	blx	r3
    5f46:	bd08      	pop	{r3, pc}
    5f48:	000019a1 	.word	0x000019a1

00005f4c <usbdc_get_ctrl_buffer>:
    5f4c:	4b01      	ldr	r3, [pc, #4]	; (5f54 <usbdc_get_ctrl_buffer+0x8>)
    5f4e:	6958      	ldr	r0, [r3, #20]
    5f50:	4770      	bx	lr
    5f52:	bf00      	nop
    5f54:	20000410 	.word	0x20000410

00005f58 <usbdc_get_state>:
    5f58:	4b03      	ldr	r3, [pc, #12]	; (5f68 <usbdc_get_state+0x10>)
    5f5a:	7e98      	ldrb	r0, [r3, #26]
    5f5c:	f010 0f10 	tst.w	r0, #16
    5f60:	d000      	beq.n	5f64 <usbdc_get_state+0xc>
    5f62:	2010      	movs	r0, #16
    5f64:	4770      	bx	lr
    5f66:	bf00      	nop
    5f68:	20000410 	.word	0x20000410

00005f6c <usb_find_desc>:
    5f6c:	4288      	cmp	r0, r1
    5f6e:	d213      	bcs.n	5f98 <usb_find_desc+0x2c>
    5f70:	7803      	ldrb	r3, [r0, #0]
    5f72:	2b01      	cmp	r3, #1
    5f74:	d912      	bls.n	5f9c <usb_find_desc+0x30>
    5f76:	b410      	push	{r4}
    5f78:	e002      	b.n	5f80 <usb_find_desc+0x14>
    5f7a:	7803      	ldrb	r3, [r0, #0]
    5f7c:	2b01      	cmp	r3, #1
    5f7e:	d909      	bls.n	5f94 <usb_find_desc+0x28>
    5f80:	7844      	ldrb	r4, [r0, #1]
    5f82:	4294      	cmp	r4, r2
    5f84:	d003      	beq.n	5f8e <usb_find_desc+0x22>
    5f86:	4418      	add	r0, r3
    5f88:	4288      	cmp	r0, r1
    5f8a:	d3f6      	bcc.n	5f7a <usb_find_desc+0xe>
    5f8c:	2000      	movs	r0, #0
    5f8e:	f85d 4b04 	ldr.w	r4, [sp], #4
    5f92:	4770      	bx	lr
    5f94:	2000      	movs	r0, #0
    5f96:	e7fa      	b.n	5f8e <usb_find_desc+0x22>
    5f98:	2000      	movs	r0, #0
    5f9a:	4770      	bx	lr
    5f9c:	2000      	movs	r0, #0
    5f9e:	4770      	bx	lr

00005fa0 <usb_find_ep_desc>:
    5fa0:	4288      	cmp	r0, r1
    5fa2:	d209      	bcs.n	5fb8 <usb_find_ep_desc+0x18>
    5fa4:	7803      	ldrb	r3, [r0, #0]
    5fa6:	2b01      	cmp	r3, #1
    5fa8:	d908      	bls.n	5fbc <usb_find_ep_desc+0x1c>
    5faa:	7842      	ldrb	r2, [r0, #1]
    5fac:	2a04      	cmp	r2, #4
    5fae:	d007      	beq.n	5fc0 <usb_find_ep_desc+0x20>
    5fb0:	2a05      	cmp	r2, #5
    5fb2:	d006      	beq.n	5fc2 <usb_find_ep_desc+0x22>
    5fb4:	4418      	add	r0, r3
    5fb6:	e7f3      	b.n	5fa0 <usb_find_ep_desc>
    5fb8:	2000      	movs	r0, #0
    5fba:	4770      	bx	lr
    5fbc:	2000      	movs	r0, #0
    5fbe:	4770      	bx	lr
    5fc0:	2000      	movs	r0, #0
    5fc2:	4770      	bx	lr

00005fc4 <usb_find_cfg_desc>:
    5fc4:	b538      	push	{r3, r4, r5, lr}
    5fc6:	460c      	mov	r4, r1
    5fc8:	4615      	mov	r5, r2
    5fca:	2202      	movs	r2, #2
    5fcc:	4b0e      	ldr	r3, [pc, #56]	; (6008 <usb_find_cfg_desc+0x44>)
    5fce:	4798      	blx	r3
    5fd0:	4603      	mov	r3, r0
    5fd2:	b190      	cbz	r0, 5ffa <usb_find_cfg_desc+0x36>
    5fd4:	42a3      	cmp	r3, r4
    5fd6:	d20f      	bcs.n	5ff8 <usb_find_cfg_desc+0x34>
    5fd8:	781a      	ldrb	r2, [r3, #0]
    5fda:	2a01      	cmp	r2, #1
    5fdc:	d90f      	bls.n	5ffe <usb_find_cfg_desc+0x3a>
    5fde:	785a      	ldrb	r2, [r3, #1]
    5fe0:	2a02      	cmp	r2, #2
    5fe2:	d10e      	bne.n	6002 <usb_find_cfg_desc+0x3e>
    5fe4:	795a      	ldrb	r2, [r3, #5]
    5fe6:	42aa      	cmp	r2, r5
    5fe8:	d007      	beq.n	5ffa <usb_find_cfg_desc+0x36>
    5fea:	789a      	ldrb	r2, [r3, #2]
    5fec:	78d9      	ldrb	r1, [r3, #3]
    5fee:	eb02 2201 	add.w	r2, r2, r1, lsl #8
    5ff2:	fa13 f382 	uxtah	r3, r3, r2
    5ff6:	e7ed      	b.n	5fd4 <usb_find_cfg_desc+0x10>
    5ff8:	2300      	movs	r3, #0
    5ffa:	4618      	mov	r0, r3
    5ffc:	bd38      	pop	{r3, r4, r5, pc}
    5ffe:	2300      	movs	r3, #0
    6000:	e7fb      	b.n	5ffa <usb_find_cfg_desc+0x36>
    6002:	2300      	movs	r3, #0
    6004:	e7f9      	b.n	5ffa <usb_find_cfg_desc+0x36>
    6006:	bf00      	nop
    6008:	00005f6d 	.word	0x00005f6d

0000600c <usb_find_str_desc>:
    600c:	b570      	push	{r4, r5, r6, lr}
    600e:	460d      	mov	r5, r1
    6010:	4616      	mov	r6, r2
    6012:	2400      	movs	r4, #0
    6014:	42a8      	cmp	r0, r5
    6016:	d20e      	bcs.n	6036 <usb_find_str_desc+0x2a>
    6018:	2203      	movs	r2, #3
    601a:	4629      	mov	r1, r5
    601c:	4b08      	ldr	r3, [pc, #32]	; (6040 <usb_find_str_desc+0x34>)
    601e:	4798      	blx	r3
    6020:	4603      	mov	r3, r0
    6022:	b148      	cbz	r0, 6038 <usb_find_str_desc+0x2c>
    6024:	7800      	ldrb	r0, [r0, #0]
    6026:	2801      	cmp	r0, #1
    6028:	d908      	bls.n	603c <usb_find_str_desc+0x30>
    602a:	42b4      	cmp	r4, r6
    602c:	d004      	beq.n	6038 <usb_find_str_desc+0x2c>
    602e:	3401      	adds	r4, #1
    6030:	b2e4      	uxtb	r4, r4
    6032:	4418      	add	r0, r3
    6034:	e7ee      	b.n	6014 <usb_find_str_desc+0x8>
    6036:	2300      	movs	r3, #0
    6038:	4618      	mov	r0, r3
    603a:	bd70      	pop	{r4, r5, r6, pc}
    603c:	2300      	movs	r3, #0
    603e:	e7fb      	b.n	6038 <usb_find_str_desc+0x2c>
    6040:	00005f6d 	.word	0x00005f6d

00006044 <cdc_read_start>:
    6044:	b508      	push	{r3, lr}
    6046:	2201      	movs	r2, #1
    6048:	4b03      	ldr	r3, [pc, #12]	; (6058 <cdc_read_start+0x14>)
    604a:	705a      	strb	r2, [r3, #1]
    604c:	2140      	movs	r1, #64	; 0x40
    604e:	4803      	ldr	r0, [pc, #12]	; (605c <cdc_read_start+0x18>)
    6050:	4b03      	ldr	r3, [pc, #12]	; (6060 <cdc_read_start+0x1c>)
    6052:	4798      	blx	r3
    6054:	bd08      	pop	{r3, pc}
    6056:	bf00      	nop
    6058:	20000430 	.word	0x20000430
    605c:	20000690 	.word	0x20000690
    6060:	00005739 	.word	0x00005739

00006064 <cdc_write>:
    6064:	b570      	push	{r4, r5, r6, lr}
    6066:	2200      	movs	r2, #0
    6068:	e008      	b.n	607c <cdc_write+0x18>
    606a:	5c85      	ldrb	r5, [r0, r2]
    606c:	4b0c      	ldr	r3, [pc, #48]	; (60a0 <cdc_write+0x3c>)
    606e:	6c9c      	ldr	r4, [r3, #72]	; 0x48
    6070:	1c66      	adds	r6, r4, #1
    6072:	649e      	str	r6, [r3, #72]	; 0x48
    6074:	4423      	add	r3, r4
    6076:	f883 504c 	strb.w	r5, [r3, #76]	; 0x4c
    607a:	3201      	adds	r2, #1
    607c:	460c      	mov	r4, r1
    607e:	428a      	cmp	r2, r1
    6080:	da03      	bge.n	608a <cdc_write+0x26>
    6082:	4b07      	ldr	r3, [pc, #28]	; (60a0 <cdc_write+0x3c>)
    6084:	789b      	ldrb	r3, [r3, #2]
    6086:	2b00      	cmp	r3, #0
    6088:	d1ef      	bne.n	606a <cdc_write+0x6>
    608a:	4d05      	ldr	r5, [pc, #20]	; (60a0 <cdc_write+0x3c>)
    608c:	6ca9      	ldr	r1, [r5, #72]	; 0x48
    608e:	f105 004c 	add.w	r0, r5, #76	; 0x4c
    6092:	4b04      	ldr	r3, [pc, #16]	; (60a4 <cdc_write+0x40>)
    6094:	4798      	blx	r3
    6096:	2300      	movs	r3, #0
    6098:	64ab      	str	r3, [r5, #72]	; 0x48
    609a:	4620      	mov	r0, r4
    609c:	bd70      	pop	{r4, r5, r6, pc}
    609e:	bf00      	nop
    60a0:	20000430 	.word	0x20000430
    60a4:	00005769 	.word	0x00005769

000060a8 <cdc_device_acm_init>:
    60a8:	b508      	push	{r3, lr}
    60aa:	4804      	ldr	r0, [pc, #16]	; (60bc <cdc_device_acm_init+0x14>)
    60ac:	4b04      	ldr	r3, [pc, #16]	; (60c0 <cdc_device_acm_init+0x18>)
    60ae:	4798      	blx	r3
    60b0:	4b04      	ldr	r3, [pc, #16]	; (60c4 <cdc_device_acm_init+0x1c>)
    60b2:	4798      	blx	r3
    60b4:	4804      	ldr	r0, [pc, #16]	; (60c8 <cdc_device_acm_init+0x20>)
    60b6:	4b05      	ldr	r3, [pc, #20]	; (60cc <cdc_device_acm_init+0x24>)
    60b8:	4798      	blx	r3
    60ba:	bd08      	pop	{r3, pc}
    60bc:	200004bc 	.word	0x200004bc
    60c0:	00005e9d 	.word	0x00005e9d
    60c4:	000056e5 	.word	0x000056e5
    60c8:	20000024 	.word	0x20000024
    60cc:	00005f0d 	.word	0x00005f0d

000060d0 <usb_init>:
    60d0:	b508      	push	{r3, lr}
    60d2:	4b01      	ldr	r3, [pc, #4]	; (60d8 <usb_init+0x8>)
    60d4:	4798      	blx	r3
    60d6:	bd08      	pop	{r3, pc}
    60d8:	000060a9 	.word	0x000060a9

000060dc <usb_serial_bytes_available>:
    60dc:	b508      	push	{r3, lr}
    60de:	4b04      	ldr	r3, [pc, #16]	; (60f0 <usb_serial_bytes_available+0x14>)
    60e0:	785b      	ldrb	r3, [r3, #1]
    60e2:	b113      	cbz	r3, 60ea <usb_serial_bytes_available+0xe>
    60e4:	4b02      	ldr	r3, [pc, #8]	; (60f0 <usb_serial_bytes_available+0x14>)
    60e6:	6858      	ldr	r0, [r3, #4]
    60e8:	bd08      	pop	{r3, pc}
    60ea:	4b02      	ldr	r3, [pc, #8]	; (60f4 <usb_serial_bytes_available+0x18>)
    60ec:	4798      	blx	r3
    60ee:	e7f9      	b.n	60e4 <usb_serial_bytes_available+0x8>
    60f0:	20000430 	.word	0x20000430
    60f4:	00006045 	.word	0x00006045

000060f8 <usb_serial_read>:
    60f8:	e92d 41f0 	stmdb	sp!, {r4, r5, r6, r7, r8, lr}
    60fc:	b082      	sub	sp, #8
    60fe:	4b20      	ldr	r3, [pc, #128]	; (6180 <usb_serial_read+0x88>)
    6100:	685c      	ldr	r4, [r3, #4]
    6102:	2c00      	cmp	r4, #0
    6104:	d037      	beq.n	6176 <usb_serial_read+0x7e>
    6106:	428c      	cmp	r4, r1
    6108:	d327      	bcc.n	615a <usb_serial_read+0x62>
    610a:	460f      	mov	r7, r1
    610c:	1a64      	subs	r4, r4, r1
    610e:	460e      	mov	r6, r1
    6110:	4605      	mov	r5, r0
    6112:	a801      	add	r0, sp, #4
    6114:	4b1b      	ldr	r3, [pc, #108]	; (6184 <usb_serial_read+0x8c>)
    6116:	4798      	blx	r3
    6118:	463a      	mov	r2, r7
    611a:	491b      	ldr	r1, [pc, #108]	; (6188 <usb_serial_read+0x90>)
    611c:	4628      	mov	r0, r5
    611e:	4b1b      	ldr	r3, [pc, #108]	; (618c <usb_serial_read+0x94>)
    6120:	4798      	blx	r3
    6122:	2c00      	cmp	r4, #0
    6124:	dd1d      	ble.n	6162 <usb_serial_read+0x6a>
    6126:	4d16      	ldr	r5, [pc, #88]	; (6180 <usb_serial_read+0x88>)
    6128:	f105 0808 	add.w	r8, r5, #8
    612c:	4622      	mov	r2, r4
    612e:	eb08 0106 	add.w	r1, r8, r6
    6132:	4640      	mov	r0, r8
    6134:	4b15      	ldr	r3, [pc, #84]	; (618c <usb_serial_read+0x94>)
    6136:	4798      	blx	r3
    6138:	686a      	ldr	r2, [r5, #4]
    613a:	1b12      	subs	r2, r2, r4
    613c:	2100      	movs	r1, #0
    613e:	eb08 0004 	add.w	r0, r8, r4
    6142:	4b13      	ldr	r3, [pc, #76]	; (6190 <usb_serial_read+0x98>)
    6144:	4798      	blx	r3
    6146:	606c      	str	r4, [r5, #4]
    6148:	a801      	add	r0, sp, #4
    614a:	4b12      	ldr	r3, [pc, #72]	; (6194 <usb_serial_read+0x9c>)
    614c:	4798      	blx	r3
    614e:	4b0c      	ldr	r3, [pc, #48]	; (6180 <usb_serial_read+0x88>)
    6150:	785b      	ldrb	r3, [r3, #1]
    6152:	b98b      	cbnz	r3, 6178 <usb_serial_read+0x80>
    6154:	4b10      	ldr	r3, [pc, #64]	; (6198 <usb_serial_read+0xa0>)
    6156:	4798      	blx	r3
    6158:	e00e      	b.n	6178 <usb_serial_read+0x80>
    615a:	4627      	mov	r7, r4
    615c:	2600      	movs	r6, #0
    615e:	4634      	mov	r4, r6
    6160:	e7d6      	b.n	6110 <usb_serial_read+0x18>
    6162:	4c07      	ldr	r4, [pc, #28]	; (6180 <usb_serial_read+0x88>)
    6164:	6862      	ldr	r2, [r4, #4]
    6166:	2100      	movs	r1, #0
    6168:	f104 0008 	add.w	r0, r4, #8
    616c:	4b08      	ldr	r3, [pc, #32]	; (6190 <usb_serial_read+0x98>)
    616e:	4798      	blx	r3
    6170:	2300      	movs	r3, #0
    6172:	6063      	str	r3, [r4, #4]
    6174:	e7e8      	b.n	6148 <usb_serial_read+0x50>
    6176:	2700      	movs	r7, #0
    6178:	4638      	mov	r0, r7
    617a:	b002      	add	sp, #8
    617c:	e8bd 81f0 	ldmia.w	sp!, {r4, r5, r6, r7, r8, pc}
    6180:	20000430 	.word	0x20000430
    6184:	00000e51 	.word	0x00000e51
    6188:	20000438 	.word	0x20000438
    618c:	000061f1 	.word	0x000061f1
    6190:	00006207 	.word	0x00006207
    6194:	00000e5f 	.word	0x00000e5f
    6198:	00006045 	.word	0x00006045

0000619c <usb_serial_write>:
    619c:	b508      	push	{r3, lr}
    619e:	4b01      	ldr	r3, [pc, #4]	; (61a4 <usb_serial_write+0x8>)
    61a0:	4798      	blx	r3
    61a2:	bd08      	pop	{r3, pc}
    61a4:	00006065 	.word	0x00006065

000061a8 <__libc_init_array>:
    61a8:	b570      	push	{r4, r5, r6, lr}
    61aa:	4e0d      	ldr	r6, [pc, #52]	; (61e0 <__libc_init_array+0x38>)
    61ac:	4c0d      	ldr	r4, [pc, #52]	; (61e4 <__libc_init_array+0x3c>)
    61ae:	1ba4      	subs	r4, r4, r6
    61b0:	10a4      	asrs	r4, r4, #2
    61b2:	2500      	movs	r5, #0
    61b4:	42a5      	cmp	r5, r4
    61b6:	d109      	bne.n	61cc <__libc_init_array+0x24>
    61b8:	4e0b      	ldr	r6, [pc, #44]	; (61e8 <__libc_init_array+0x40>)
    61ba:	4c0c      	ldr	r4, [pc, #48]	; (61ec <__libc_init_array+0x44>)
    61bc:	f000 fa92 	bl	66e4 <_init>
    61c0:	1ba4      	subs	r4, r4, r6
    61c2:	10a4      	asrs	r4, r4, #2
    61c4:	2500      	movs	r5, #0
    61c6:	42a5      	cmp	r5, r4
    61c8:	d105      	bne.n	61d6 <__libc_init_array+0x2e>
    61ca:	bd70      	pop	{r4, r5, r6, pc}
    61cc:	f856 3025 	ldr.w	r3, [r6, r5, lsl #2]
    61d0:	4798      	blx	r3
    61d2:	3501      	adds	r5, #1
    61d4:	e7ee      	b.n	61b4 <__libc_init_array+0xc>
    61d6:	f856 3025 	ldr.w	r3, [r6, r5, lsl #2]
    61da:	4798      	blx	r3
    61dc:	3501      	adds	r5, #1
    61de:	e7f2      	b.n	61c6 <__libc_init_array+0x1e>
    61e0:	000066f0 	.word	0x000066f0
    61e4:	000066f0 	.word	0x000066f0
    61e8:	000066f0 	.word	0x000066f0
    61ec:	000066f4 	.word	0x000066f4

000061f0 <memcpy>:
    61f0:	b510      	push	{r4, lr}
    61f2:	1e43      	subs	r3, r0, #1
    61f4:	440a      	add	r2, r1
    61f6:	4291      	cmp	r1, r2
    61f8:	d100      	bne.n	61fc <memcpy+0xc>
    61fa:	bd10      	pop	{r4, pc}
    61fc:	f811 4b01 	ldrb.w	r4, [r1], #1
    6200:	f803 4f01 	strb.w	r4, [r3, #1]!
    6204:	e7f7      	b.n	61f6 <memcpy+0x6>

00006206 <memset>:
    6206:	4402      	add	r2, r0
    6208:	4603      	mov	r3, r0
    620a:	4293      	cmp	r3, r2
    620c:	d100      	bne.n	6210 <memset+0xa>
    620e:	4770      	bx	lr
    6210:	f803 1b01 	strb.w	r1, [r3], #1
    6214:	e7f9      	b.n	620a <memset+0x4>

00006216 <strcat>:
    6216:	b510      	push	{r4, lr}
    6218:	4602      	mov	r2, r0
    621a:	4613      	mov	r3, r2
    621c:	3201      	adds	r2, #1
    621e:	781c      	ldrb	r4, [r3, #0]
    6220:	2c00      	cmp	r4, #0
    6222:	d1fa      	bne.n	621a <strcat+0x4>
    6224:	3b01      	subs	r3, #1
    6226:	f811 2b01 	ldrb.w	r2, [r1], #1
    622a:	f803 2f01 	strb.w	r2, [r3, #1]!
    622e:	2a00      	cmp	r2, #0
    6230:	d1f9      	bne.n	6226 <strcat+0x10>
    6232:	bd10      	pop	{r4, pc}

00006234 <strcmp>:
    6234:	f810 2b01 	ldrb.w	r2, [r0], #1
    6238:	f811 3b01 	ldrb.w	r3, [r1], #1
    623c:	2a01      	cmp	r2, #1
    623e:	bf28      	it	cs
    6240:	429a      	cmpcs	r2, r3
    6242:	d0f7      	beq.n	6234 <strcmp>
    6244:	1ad0      	subs	r0, r2, r3
    6246:	4770      	bx	lr

00006248 <strlen>:
    6248:	4603      	mov	r3, r0
    624a:	f813 2b01 	ldrb.w	r2, [r3], #1
    624e:	2a00      	cmp	r2, #0
    6250:	d1fb      	bne.n	624a <strlen+0x2>
    6252:	1a18      	subs	r0, r3, r0
    6254:	3801      	subs	r0, #1
    6256:	4770      	bx	lr

00006258 <strncmp>:
    6258:	b510      	push	{r4, lr}
    625a:	b16a      	cbz	r2, 6278 <strncmp+0x20>
    625c:	3901      	subs	r1, #1
    625e:	1884      	adds	r4, r0, r2
    6260:	f810 3b01 	ldrb.w	r3, [r0], #1
    6264:	f811 2f01 	ldrb.w	r2, [r1, #1]!
    6268:	4293      	cmp	r3, r2
    626a:	d103      	bne.n	6274 <strncmp+0x1c>
    626c:	42a0      	cmp	r0, r4
    626e:	d001      	beq.n	6274 <strncmp+0x1c>
    6270:	2b00      	cmp	r3, #0
    6272:	d1f5      	bne.n	6260 <strncmp+0x8>
    6274:	1a98      	subs	r0, r3, r2
    6276:	bd10      	pop	{r4, pc}
    6278:	4610      	mov	r0, r2
    627a:	bd10      	pop	{r4, pc}
    627c:	682f2e2e 	.word	0x682f2e2e
    6280:	732f6c61 	.word	0x732f6c61
    6284:	682f6372 	.word	0x682f6372
    6288:	615f6c61 	.word	0x615f6c61
    628c:	735f6364 	.word	0x735f6364
    6290:	2e636e79 	.word	0x2e636e79
    6294:	00000063 	.word	0x00000063
    6298:	682f2e2e 	.word	0x682f2e2e
    629c:	732f6c61 	.word	0x732f6c61
    62a0:	682f6372 	.word	0x682f6372
    62a4:	635f6c61 	.word	0x635f6c61
    62a8:	615f6e61 	.word	0x615f6e61
    62ac:	636e7973 	.word	0x636e7973
    62b0:	0000632e 	.word	0x0000632e
    62b4:	682f2e2e 	.word	0x682f2e2e
    62b8:	732f6c61 	.word	0x732f6c61
    62bc:	682f6372 	.word	0x682f6372
    62c0:	635f6c61 	.word	0x635f6c61
    62c4:	735f6372 	.word	0x735f6372
    62c8:	2e636e79 	.word	0x2e636e79
    62cc:	00000063 	.word	0x00000063
    62d0:	682f2e2e 	.word	0x682f2e2e
    62d4:	732f6c61 	.word	0x732f6c61
    62d8:	682f6372 	.word	0x682f6372
    62dc:	665f6c61 	.word	0x665f6c61
    62e0:	6873616c 	.word	0x6873616c
    62e4:	0000632e 	.word	0x0000632e
    62e8:	682f2e2e 	.word	0x682f2e2e
    62ec:	732f6c61 	.word	0x732f6c61
    62f0:	682f6372 	.word	0x682f6372
    62f4:	695f6c61 	.word	0x695f6c61
    62f8:	6d5f6332 	.word	0x6d5f6332
    62fc:	6e79735f 	.word	0x6e79735f
    6300:	00632e63 	.word	0x00632e63
    6304:	682f2e2e 	.word	0x682f2e2e
    6308:	732f6c61 	.word	0x732f6c61
    630c:	682f6372 	.word	0x682f6372
    6310:	695f6c61 	.word	0x695f6c61
    6314:	00632e6f 	.word	0x00632e6f
    6318:	682f2e2e 	.word	0x682f2e2e
    631c:	732f6c61 	.word	0x732f6c61
    6320:	682f6372 	.word	0x682f6372
    6324:	735f6c61 	.word	0x735f6c61
    6328:	6d5f6970 	.word	0x6d5f6970
    632c:	6e79735f 	.word	0x6e79735f
    6330:	00632e63 	.word	0x00632e63
    6334:	682f2e2e 	.word	0x682f2e2e
    6338:	732f6c61 	.word	0x732f6c61
    633c:	682f6372 	.word	0x682f6372
    6340:	745f6c61 	.word	0x745f6c61
    6344:	72656d69 	.word	0x72656d69
    6348:	0000632e 	.word	0x0000632e
    634c:	682f2e2e 	.word	0x682f2e2e
    6350:	732f6c61 	.word	0x732f6c61
    6354:	682f6372 	.word	0x682f6372
    6358:	755f6c61 	.word	0x755f6c61
    635c:	74726173 	.word	0x74726173
    6360:	7973615f 	.word	0x7973615f
    6364:	632e636e 	.word	0x632e636e
    6368:	00000000 	.word	0x00000000
    636c:	682f2e2e 	.word	0x682f2e2e
    6370:	752f6c61 	.word	0x752f6c61
    6374:	736c6974 	.word	0x736c6974
    6378:	6372732f 	.word	0x6372732f
    637c:	6974752f 	.word	0x6974752f
    6380:	6c5f736c 	.word	0x6c5f736c
    6384:	2e747369 	.word	0x2e747369
    6388:	00000063 	.word	0x00000063
    638c:	682f2e2e 	.word	0x682f2e2e
    6390:	752f6c61 	.word	0x752f6c61
    6394:	736c6974 	.word	0x736c6974
    6398:	6372732f 	.word	0x6372732f
    639c:	6974752f 	.word	0x6974752f
    63a0:	725f736c 	.word	0x725f736c
    63a4:	62676e69 	.word	0x62676e69
    63a8:	65666675 	.word	0x65666675
    63ac:	00632e72 	.word	0x00632e72

000063b0 <_adcs>:
	...
    63c8:	682f2e2e 612f6c70 682f6364 615f6c70     ../hpl/adc/hpl_a
    63d8:	632e6364 00000000                       dc.c....

000063e0 <_map>:
    63e0:	00000002 00000022 0000000d 0000002d     ....".......-...
    63f0:	682f2e2e 652f6c70 682f6369 655f6c70     ../hpl/eic/hpl_e
    6400:	632e6369 00000000 682f2e2e 6e2f6c70     ic.c....../hpl/n
    6410:	74636d76 682f6c72 6e5f6c70 74636d76     vmctrl/hpl_nvmct
    6420:	632e6c72 00000000 682f2e2e 722f6c70     rl.c....../hpl/r
    6430:	682f6374 725f6c70 632e6374 00000000     tc/hpl_rtc.c....
    6440:	40003000 40003400 41012000 41014000     .0.@.4.@. .A.@.A
    6450:	43000000 43000400                       ...C...C

00006458 <_usarts>:
    6458:	00000000 40100004 00030000 00700002     .......@......p.
    6468:	0000f62b 00000000 00000002 40100004     +..............@
    6478:	00030000 00700002 0000f62b 00000000     ......p.+.......

00006488 <_i2cms>:
    6488:	00000003 00200014 00000100 0000e6e5     ...... .........
    6498:	00d70000 02dc6c00                       .....l..

000064a0 <_i2css>:
	...

000064b0 <sercomspi_regs>:
    64b0:	0030000c 00020000 00000000 01ff00fe     ..0.............
    64c0:	00000004 682f2e2e 732f6c70 6f637265     ....../hpl/serco
    64d0:	70682f6d 65735f6c 6d6f6372 0000632e     m/hpl_sercom.c..
    64e0:	00004a25 00000804                       %J......

000064e8 <_usb_ep_cfgs>:
    64e8:	200003a0 00000000 00000040 20000360     ... ....@...`.. 
    64f8:	00000000 00000040 20000320 00000000     ....@... .. ....
    6508:	00000040 532b5441 5045454c 00000000     @...AT+SLEEP....
    6518:	41414141 00414141 65636552 64657669     AAAAAAA.Received
    6528:	0000203a 30455441 0000000d 432b5441     : ..ATE0....AT+C
    6538:	3f4e4950 0000000d 50432b0a 203a4e49     PIN?.....+CPIN: 
    6548:	44414552 00000059 53534150 00004445     READY...PASSED..
    6558:	432b5441 47455247 0000003f 432b5441     AT+CGREG?...AT+C
    6568:	3f53504f 00000000 432b5441 00005153     OPS?....AT+CSQ..
    6578:	632b5441 74746167 0000313d 00004b4f     AT+cgatt=1..OK..
    6588:	432b5441 4f434447 313d544e 5049222c     AT+CGDCONT=1,"IP
    6598:	69222c22 732e746f 72756365 00002265     ","iot.secure"..
    65a8:	432b5441 54434147 312c313d 00000000     AT+CGACT=1,1....
    65b8:	6f666e69 00000000 616d6f53 77662078     info....Somax fw
    65c8:	64317620 000a7665 6b6e6162 70617773      v1dev..bankswap
    65d8:	00000000 70617753 676e6970 0a776620     ....Swapping fw.
    65e8:	00000000 20656c62 00000000 206d6973     ....ble ....sim 
    65f8:	00000000 64616572 006d6973 20636361     ....readsim.acc 
    6608:	63656863 0000006b 64616552 20676e69     check...Reading 
    6618:	0a676572 00000000 20697073 63656863     reg.....spi chec
    6628:	0000006b 20697073 74697277 00000065     k...spi write...
    6638:	6d617266 69727720 00006574 6d617266     fram write..fram
    6648:	61657220 00000064 70776f6c 00007277      read...lowpwr..
    6658:	636d6973 00006e6f 6d6d6f43 20646e61     simcon..Command 
    6668:	20746f6e 6f636572 7a696e67 000a6465     not recognized..
    6678:	00005441 422b5441 3f445541 00000000     AT..AT+BAUD?....
    6688:	70736572 3a656c62 00000020 472b4b4f     respble: ...OK+G
    6698:	003a7465 000d5441 70736572 3a6d6973     et:.AT..respsim:
    66a8:	00000020 63207852 6c706d6f 64657465      ...Rx completed
    66b8:	0000000a 63207854 6c706d6f 64657465     ....Tx completed
    66c8:	0000000a 752f2e2e 642f6273 63697665     ....../usb/devic
    66d8:	73752f65 2e636462 00000063              e/usbdc.c...

000066e4 <_init>:
    66e4:	b5f8      	push	{r3, r4, r5, r6, r7, lr}
    66e6:	bf00      	nop
    66e8:	bcf8      	pop	{r3, r4, r5, r6, r7}
    66ea:	bc08      	pop	{r3}
    66ec:	469e      	mov	lr, r3
    66ee:	4770      	bx	lr

000066f0 <__init_array_start>:
    66f0:	00000289 	.word	0x00000289

000066f4 <_fini>:
    66f4:	b5f8      	push	{r3, r4, r5, r6, r7, lr}
    66f6:	bf00      	nop
    66f8:	bcf8      	pop	{r3, r4, r5, r6, r7}
    66fa:	bc08      	pop	{r3}
    66fc:	469e      	mov	lr, r3
    66fe:	4770      	bx	lr

00006700 <__fini_array_start>:
    6700:	00000265 	.word	0x00000265
